
KursachV1.elf:     file format elf32-avr

Sections:
Idx Name          Size      VMA       LMA       File off  Algn
  0 .data         000000bc  00800100  00000b34  00000bc8  2**0
                  CONTENTS, ALLOC, LOAD, DATA
  1 .text         00000b34  00000000  00000000  00000094  2**1
                  CONTENTS, ALLOC, LOAD, READONLY, CODE
  2 .bss          000000a0  008001bc  008001bc  00000c84  2**0
                  ALLOC
  3 .stab         00000984  00000000  00000000  00000c84  2**2
                  CONTENTS, READONLY, DEBUGGING
  4 .stabstr      000001f4  00000000  00000000  00001608  2**0
                  CONTENTS, READONLY, DEBUGGING
  5 .debug_aranges 000000a0  00000000  00000000  000017fc  2**0
                  CONTENTS, READONLY, DEBUGGING
  6 .debug_pubnames 000001e3  00000000  00000000  0000189c  2**0
                  CONTENTS, READONLY, DEBUGGING
  7 .debug_info   00001055  00000000  00000000  00001a7f  2**0
                  CONTENTS, READONLY, DEBUGGING
  8 .debug_abbrev 00000736  00000000  00000000  00002ad4  2**0
                  CONTENTS, READONLY, DEBUGGING
  9 .debug_line   000010b8  00000000  00000000  0000320a  2**0
                  CONTENTS, READONLY, DEBUGGING
 10 .debug_frame  000001c0  00000000  00000000  000042c4  2**2
                  CONTENTS, READONLY, DEBUGGING
 11 .debug_str    0000031d  00000000  00000000  00004484  2**0
                  CONTENTS, READONLY, DEBUGGING
 12 .debug_loc    000005f9  00000000  00000000  000047a1  2**0
                  CONTENTS, READONLY, DEBUGGING
 13 .debug_pubtypes 000000f2  00000000  00000000  00004d9a  2**0
                  CONTENTS, READONLY, DEBUGGING
 14 .debug_ranges 00000018  00000000  00000000  00004e8c  2**0
                  CONTENTS, READONLY, DEBUGGING

Disassembly of section .text:

00000000 <__vectors>:
   0:	0c 94 e1 00 	jmp	0x1c2	; 0x1c2 <__ctors_end>
   4:	0c 94 fe 00 	jmp	0x1fc	; 0x1fc <__bad_interrupt>
   8:	0c 94 fe 00 	jmp	0x1fc	; 0x1fc <__bad_interrupt>
   c:	0c 94 fe 00 	jmp	0x1fc	; 0x1fc <__bad_interrupt>
  10:	0c 94 fe 00 	jmp	0x1fc	; 0x1fc <__bad_interrupt>
  14:	0c 94 fe 00 	jmp	0x1fc	; 0x1fc <__bad_interrupt>
  18:	0c 94 fe 00 	jmp	0x1fc	; 0x1fc <__bad_interrupt>
  1c:	0c 94 fe 00 	jmp	0x1fc	; 0x1fc <__bad_interrupt>
  20:	0c 94 fe 00 	jmp	0x1fc	; 0x1fc <__bad_interrupt>
  24:	0c 94 fe 00 	jmp	0x1fc	; 0x1fc <__bad_interrupt>
  28:	0c 94 fe 00 	jmp	0x1fc	; 0x1fc <__bad_interrupt>
  2c:	0c 94 fe 00 	jmp	0x1fc	; 0x1fc <__bad_interrupt>
  30:	0c 94 fe 00 	jmp	0x1fc	; 0x1fc <__bad_interrupt>
  34:	0c 94 fe 00 	jmp	0x1fc	; 0x1fc <__bad_interrupt>
  38:	0c 94 fe 00 	jmp	0x1fc	; 0x1fc <__bad_interrupt>
  3c:	0c 94 fe 00 	jmp	0x1fc	; 0x1fc <__bad_interrupt>
  40:	0c 94 fe 00 	jmp	0x1fc	; 0x1fc <__bad_interrupt>
  44:	0c 94 fe 00 	jmp	0x1fc	; 0x1fc <__bad_interrupt>
  48:	0c 94 fe 00 	jmp	0x1fc	; 0x1fc <__bad_interrupt>
  4c:	0c 94 fe 00 	jmp	0x1fc	; 0x1fc <__bad_interrupt>
  50:	0c 94 fe 00 	jmp	0x1fc	; 0x1fc <__bad_interrupt>
  54:	0c 94 fe 00 	jmp	0x1fc	; 0x1fc <__bad_interrupt>
  58:	0c 94 fe 00 	jmp	0x1fc	; 0x1fc <__bad_interrupt>
  5c:	0c 94 fe 00 	jmp	0x1fc	; 0x1fc <__bad_interrupt>
  60:	0c 94 fe 00 	jmp	0x1fc	; 0x1fc <__bad_interrupt>
  64:	0c 94 fe 00 	jmp	0x1fc	; 0x1fc <__bad_interrupt>

00000068 <font_5x8>:
  68:	00 00 00 00 00 3e 51 49 45 3e 00 42 7f 40 00 42     .....>QIE>.B.@.B
  78:	61 51 49 46 21 41 45 4b 31 18 14 12 7f 10 27 45     aQIF!AEK1.....'E
  88:	45 45 39 3c 4a 49 49 30 01 71 09 05 03 36 49 49     EE9<JII0.q...6II
  98:	49 36 06 49 49 29 1e 7c 12 11 12 7c 7f 49 49 49     I6.II).|...|.III
  a8:	36 3e 41 41 41 22 7f 41 41 22 1c 7f 49 49 49 41     6>AAA".AA"..IIIA
  b8:	7f 09 09 09 01 3e 41 49 49 7a 7f 08 08 08 7f 00     .....>AIIz......
  c8:	41 7f 41 00 20 40 41 3f 01 7f 08 14 22 41 7f 40     A.A. @A?...."A.@
  d8:	40 40 40 7f 02 0c 02 7f 7f 04 08 10 7f 3e 41 41     @@@..........>AA
  e8:	41 3e 7f 09 09 09 06 3e 41 51 21 5e 7f 09 19 29     A>.....>AQ!^...)
  f8:	46 46 49 49 49 31 01 01 7f 01 01 3f 40 40 40 3f     FFIII1.....?@@@?
 108:	1f 20 40 20 1f 3f 40 38 40 3f 63 14 08 14 63 07     . @ .?@8@?c...c.
 118:	08 70 08 07 61 51 49 45 43 00 00 5f 00 00 00 07     .p..aQIEC.._....
 128:	00 07 00 14 7f 14 7f 14 24 2a 7f 2a 12 23 13 08     ........$*.*.#..
 138:	64 62 36 49 55 22 50 00 05 03 00 00 00 1c 22 41     db6IU"P......."A
 148:	00 00 41 22 1c 00 14 08 3e 08 14 08 08 3e 08 08     ..A"....>....>..
 158:	00 50 30 00 00 08 08 08 08 08 00 60 60 00 00 20     .P0........``.. 
 168:	10 08 04 02 00 36 36 00 00 00 56 36 00 00 08 14     .....66...V6....
 178:	22 41 00 14 14 14 14 14 00 41 22 14 08 02 01 51     "A.......A"....Q
 188:	09 06 32 49 79 41 3e 7f 09 19 29 46 41 22 14 08     ..2IyA>...)FA"..
 198:	00 46 29 19 09 7f 04 02 01 02 04 40 40 40 40 40     .F)........@@@@@
 1a8:	00 01 02 04 00 08 3e 41 41 00 00 00 7f 00 00 00     ......>AA.......
 1b8:	41 41 3e 08 08 04 08 10 08 00                       AA>.......

000001c2 <__ctors_end>:
 1c2:	11 24       	eor	r1, r1
 1c4:	1f be       	out	0x3f, r1	; 63
 1c6:	cf ef       	ldi	r28, 0xFF	; 255
 1c8:	d8 e0       	ldi	r29, 0x08	; 8
 1ca:	de bf       	out	0x3e, r29	; 62
 1cc:	cd bf       	out	0x3d, r28	; 61

000001ce <__do_copy_data>:
 1ce:	11 e0       	ldi	r17, 0x01	; 1
 1d0:	a0 e0       	ldi	r26, 0x00	; 0
 1d2:	b1 e0       	ldi	r27, 0x01	; 1
 1d4:	e4 e3       	ldi	r30, 0x34	; 52
 1d6:	fb e0       	ldi	r31, 0x0B	; 11
 1d8:	02 c0       	rjmp	.+4      	; 0x1de <__do_copy_data+0x10>
 1da:	05 90       	lpm	r0, Z+
 1dc:	0d 92       	st	X+, r0
 1de:	ac 3b       	cpi	r26, 0xBC	; 188
 1e0:	b1 07       	cpc	r27, r17
 1e2:	d9 f7       	brne	.-10     	; 0x1da <__do_copy_data+0xc>

000001e4 <__do_clear_bss>:
 1e4:	12 e0       	ldi	r17, 0x02	; 2
 1e6:	ac eb       	ldi	r26, 0xBC	; 188
 1e8:	b1 e0       	ldi	r27, 0x01	; 1
 1ea:	01 c0       	rjmp	.+2      	; 0x1ee <.do_clear_bss_start>

000001ec <.do_clear_bss_loop>:
 1ec:	1d 92       	st	X+, r1

000001ee <.do_clear_bss_start>:
 1ee:	ac 35       	cpi	r26, 0x5C	; 92
 1f0:	b1 07       	cpc	r27, r17
 1f2:	e1 f7       	brne	.-8      	; 0x1ec <.do_clear_bss_loop>
 1f4:	0e 94 5e 01 	call	0x2bc	; 0x2bc <main>
 1f8:	0c 94 98 05 	jmp	0xb30	; 0xb30 <_exit>

000001fc <__bad_interrupt>:
 1fc:	0c 94 00 00 	jmp	0	; 0x0 <__vectors>

00000200 <display>:
    f_mount(0, "", 0);
    return 0;  // Успех
}
*/
void display ( char * string ) 
{
 200:	cf 93       	push	r28
 202:	df 93       	push	r29
 204:	ec 01       	movw	r28, r24
    ssd1306_clear();
 206:	0e 94 d7 02 	call	0x5ae	; 0x5ae <ssd1306_clear>
	#else
		//round up by default
		__ticks_dc = (uint32_t)(ceil(fabs(__tmp)));
	#endif

	__builtin_avr_delay_cycles(__ticks_dc);
 20a:	8f ef       	ldi	r24, 0xFF	; 255
 20c:	99 ef       	ldi	r25, 0xF9	; 249
 20e:	a0 e0       	ldi	r26, 0x00	; 0
 210:	81 50       	subi	r24, 0x01	; 1
 212:	90 40       	sbci	r25, 0x00	; 0
 214:	a0 40       	sbci	r26, 0x00	; 0
 216:	e1 f7       	brne	.-8      	; 0x210 <display+0x10>
 218:	00 c0       	rjmp	.+0      	; 0x21a <display+0x1a>
 21a:	00 00       	nop
    _delay_ms(20);
    ssd1306_set_cursor(2, 10);
 21c:	82 e0       	ldi	r24, 0x02	; 2
 21e:	6a e0       	ldi	r22, 0x0A	; 10
 220:	0e 94 c0 02 	call	0x580	; 0x580 <ssd1306_set_cursor>
    ssd1306_print_string(string);
 224:	ce 01       	movw	r24, r28
 226:	0e 94 d3 03 	call	0x7a6	; 0x7a6 <ssd1306_print_string>
    return;
}
 22a:	df 91       	pop	r29
 22c:	cf 91       	pop	r28
 22e:	08 95       	ret

00000230 <init>:
 230:	8f ef       	ldi	r24, 0xFF	; 255
 232:	91 ee       	ldi	r25, 0xE1	; 225
 234:	a4 e0       	ldi	r26, 0x04	; 4
 236:	81 50       	subi	r24, 0x01	; 1
 238:	90 40       	sbci	r25, 0x00	; 0
 23a:	a0 40       	sbci	r26, 0x00	; 0
 23c:	e1 f7       	brne	.-8      	; 0x236 <init+0x6>
 23e:	00 c0       	rjmp	.+0      	; 0x240 <init+0x10>
 240:	00 00       	nop

void init()
{
    _delay_ms(100);
    init_leds();
 242:	0e 94 93 01 	call	0x326	; 0x326 <init_leds>
 246:	8f ef       	ldi	r24, 0xFF	; 255
 248:	99 ef       	ldi	r25, 0xF9	; 249
 24a:	a0 e0       	ldi	r26, 0x00	; 0
 24c:	81 50       	subi	r24, 0x01	; 1
 24e:	90 40       	sbci	r25, 0x00	; 0
 250:	a0 40       	sbci	r26, 0x00	; 0
 252:	e1 f7       	brne	.-8      	; 0x24c <init+0x1c>
 254:	00 c0       	rjmp	.+0      	; 0x256 <init+0x26>
 256:	00 00       	nop
 258:	8f ef       	ldi	r24, 0xFF	; 255
 25a:	99 ef       	ldi	r25, 0xF9	; 249
 25c:	a0 e0       	ldi	r26, 0x00	; 0
 25e:	81 50       	subi	r24, 0x01	; 1
 260:	90 40       	sbci	r25, 0x00	; 0
 262:	a0 40       	sbci	r26, 0x00	; 0
 264:	e1 f7       	brne	.-8      	; 0x25e <init+0x2e>
 266:	00 c0       	rjmp	.+0      	; 0x268 <init+0x38>
 268:	00 00       	nop
    _delay_ms(20);
    //i2c_init();
    _delay_ms(20);
    ssd1306_init();
 26a:	0e 94 50 02 	call	0x4a0	; 0x4a0 <ssd1306_init>
 26e:	8f ef       	ldi	r24, 0xFF	; 255
 270:	99 ef       	ldi	r25, 0xF9	; 249
 272:	a0 e0       	ldi	r26, 0x00	; 0
 274:	81 50       	subi	r24, 0x01	; 1
 276:	90 40       	sbci	r25, 0x00	; 0
 278:	a0 40       	sbci	r26, 0x00	; 0
 27a:	e1 f7       	brne	.-8      	; 0x274 <init+0x44>
 27c:	00 c0       	rjmp	.+0      	; 0x27e <init+0x4e>
 27e:	00 00       	nop
    _delay_ms(20);
    ssd1306_clear();
 280:	0e 94 d7 02 	call	0x5ae	; 0x5ae <ssd1306_clear>
 284:	8f ef       	ldi	r24, 0xFF	; 255
 286:	99 ef       	ldi	r25, 0xF9	; 249
 288:	a0 e0       	ldi	r26, 0x00	; 0
 28a:	81 50       	subi	r24, 0x01	; 1
 28c:	90 40       	sbci	r25, 0x00	; 0
 28e:	a0 40       	sbci	r26, 0x00	; 0
 290:	e1 f7       	brne	.-8      	; 0x28a <init+0x5a>
 292:	00 c0       	rjmp	.+0      	; 0x294 <init+0x64>
 294:	00 00       	nop
    _delay_ms(20);
    SIM800_Init();
 296:	0e 94 6e 04 	call	0x8dc	; 0x8dc <SIM800_Init>
    return;
}
 29a:	08 95       	ret

0000029c <exit_all>:
 29c:	8f ef       	ldi	r24, 0xFF	; 255
 29e:	99 ef       	ldi	r25, 0xF9	; 249
 2a0:	a0 e0       	ldi	r26, 0x00	; 0
 2a2:	81 50       	subi	r24, 0x01	; 1
 2a4:	90 40       	sbci	r25, 0x00	; 0
 2a6:	a0 40       	sbci	r26, 0x00	; 0
 2a8:	e1 f7       	brne	.-8      	; 0x2a2 <exit_all+0x6>
 2aa:	00 c0       	rjmp	.+0      	; 0x2ac <exit_all+0x10>
 2ac:	00 00       	nop
void exit_all()
{
    _delay_ms(20);
    while(1) 
    {
        blink(0, 3);
 2ae:	80 e0       	ldi	r24, 0x00	; 0
 2b0:	90 e0       	ldi	r25, 0x00	; 0
 2b2:	63 e0       	ldi	r22, 0x03	; 3
 2b4:	70 e0       	ldi	r23, 0x00	; 0
 2b6:	0e 94 9a 01 	call	0x334	; 0x334 <blink>
 2ba:	f9 cf       	rjmp	.-14     	; 0x2ae <exit_all+0x12>

000002bc <main>:
    }
    return;
}

int main(void)
{
 2bc:	0f 93       	push	r16
 2be:	1f 93       	push	r17
 2c0:	df 93       	push	r29
 2c2:	cf 93       	push	r28
 2c4:	cd b7       	in	r28, 0x3d	; 61
 2c6:	de b7       	in	r29, 0x3e	; 62
 2c8:	e2 97       	sbiw	r28, 0x32	; 50
 2ca:	0f b6       	in	r0, 0x3f	; 63
 2cc:	f8 94       	cli
 2ce:	de bf       	out	0x3e, r29	; 62
 2d0:	0f be       	out	0x3f, r0	; 63
 2d2:	cd bf       	out	0x3d, r28	; 61
    init();
 2d4:	0e 94 18 01 	call	0x230	; 0x230 <init>
    char received_command[50];
    // int line = 0; // Потом доработать с кнопками аля +1 -1;
    // char result[64]; // 64 от головы взял
    // char * filename = "test1.txt"; // если rtc то потом надо головой думать
    
    blink(0, 1);
 2d8:	80 e0       	ldi	r24, 0x00	; 0
 2da:	90 e0       	ldi	r25, 0x00	; 0
 2dc:	61 e0       	ldi	r22, 0x01	; 1
 2de:	70 e0       	ldi	r23, 0x00	; 0
 2e0:	0e 94 9a 01 	call	0x334	; 0x334 <blink>

    // blink(1, 2);

    while(1)
    {
        if (SIM800_ReadCommandMessage(received_command))
 2e4:	8e 01       	movw	r16, r28
 2e6:	0f 5f       	subi	r16, 0xFF	; 255
 2e8:	1f 4f       	sbci	r17, 0xFF	; 255
 2ea:	c8 01       	movw	r24, r16
 2ec:	0e 94 c4 04 	call	0x988	; 0x988 <SIM800_ReadCommandMessage>
 2f0:	88 23       	and	r24, r24
 2f2:	49 f0       	breq	.+18     	; 0x306 <main+0x4a>
        {
            blink(1, 3);
 2f4:	81 e0       	ldi	r24, 0x01	; 1
 2f6:	90 e0       	ldi	r25, 0x00	; 0
 2f8:	63 e0       	ldi	r22, 0x03	; 3
 2fa:	70 e0       	ldi	r23, 0x00	; 0
 2fc:	0e 94 9a 01 	call	0x334	; 0x334 <blink>
            display(received_command);
 300:	c8 01       	movw	r24, r16
 302:	0e 94 00 01 	call	0x200	; 0x200 <display>
 306:	8f ef       	ldi	r24, 0xFF	; 255
 308:	93 e2       	ldi	r25, 0x23	; 35
 30a:	a4 ef       	ldi	r26, 0xF4	; 244
 30c:	81 50       	subi	r24, 0x01	; 1
 30e:	90 40       	sbci	r25, 0x00	; 0
 310:	a0 40       	sbci	r26, 0x00	; 0
 312:	e1 f7       	brne	.-8      	; 0x30c <main+0x50>
 314:	00 c0       	rjmp	.+0      	; 0x316 <main+0x5a>
 316:	00 00       	nop
        }
        _delay_ms(5000);
        blink(0, 3);
 318:	80 e0       	ldi	r24, 0x00	; 0
 31a:	90 e0       	ldi	r25, 0x00	; 0
 31c:	63 e0       	ldi	r22, 0x03	; 3
 31e:	70 e0       	ldi	r23, 0x00	; 0
 320:	0e 94 9a 01 	call	0x334	; 0x334 <blink>
    }
 324:	e2 cf       	rjmp	.-60     	; 0x2ea <main+0x2e>

00000326 <init_leds>:
#include <string.h>
#include "log.h"


void init_leds(void) {
    DDRD |= (1 << LED_Stat) | (1 << LED_Err) | (1 << LED_OK);
 326:	8a b1       	in	r24, 0x0a	; 10
 328:	80 6e       	ori	r24, 0xE0	; 224
 32a:	8a b9       	out	0x0a, r24	; 10
    PORTD &= ~((1 << LED_Stat) | (1 << LED_Err) | (1 << LED_OK));
 32c:	8b b1       	in	r24, 0x0b	; 11
 32e:	8f 71       	andi	r24, 0x1F	; 31
 330:	8b b9       	out	0x0b, r24	; 11
}
 332:	08 95       	ret

00000334 <blink>:

void blink(int type, int amount){
    switch (type)
 334:	81 30       	cpi	r24, 0x01	; 1
 336:	91 05       	cpc	r25, r1
 338:	49 f0       	breq	.+18     	; 0x34c <blink+0x18>
 33a:	82 30       	cpi	r24, 0x02	; 2
 33c:	91 05       	cpc	r25, r1
 33e:	19 f0       	breq	.+6      	; 0x346 <blink+0x12>
 340:	00 97       	sbiw	r24, 0x00	; 0
 342:	39 f0       	breq	.+14     	; 0x352 <blink+0x1e>
 344:	08 95       	ret
 346:	80 e0       	ldi	r24, 0x00	; 0
 348:	90 e0       	ldi	r25, 0x00	; 0
 34a:	4d c0       	rjmp	.+154    	; 0x3e6 <blink+0xb2>
 34c:	80 e0       	ldi	r24, 0x00	; 0
 34e:	90 e0       	ldi	r25, 0x00	; 0
 350:	31 c0       	rjmp	.+98     	; 0x3b4 <blink+0x80>
 352:	80 e0       	ldi	r24, 0x00	; 0
 354:	90 e0       	ldi	r25, 0x00	; 0
 356:	15 c0       	rjmp	.+42     	; 0x382 <blink+0x4e>
    {
    case 0: // OK
        for (int i = 0; i < amount; i++){
            PORTD |= (1 << LED_OK);
 358:	5e 9a       	sbi	0x0b, 6	; 11
 35a:	2f ef       	ldi	r18, 0xFF	; 255
 35c:	33 ec       	ldi	r19, 0xC3	; 195
 35e:	49 e0       	ldi	r20, 0x09	; 9
 360:	21 50       	subi	r18, 0x01	; 1
 362:	30 40       	sbci	r19, 0x00	; 0
 364:	40 40       	sbci	r20, 0x00	; 0
 366:	e1 f7       	brne	.-8      	; 0x360 <blink+0x2c>
 368:	00 c0       	rjmp	.+0      	; 0x36a <blink+0x36>
 36a:	00 00       	nop
            _delay_ms(200);
            PORTD &= ~(1 << LED_OK);
 36c:	5e 98       	cbi	0x0b, 6	; 11
 36e:	2f ef       	ldi	r18, 0xFF	; 255
 370:	33 ec       	ldi	r19, 0xC3	; 195
 372:	49 e0       	ldi	r20, 0x09	; 9
 374:	21 50       	subi	r18, 0x01	; 1
 376:	30 40       	sbci	r19, 0x00	; 0
 378:	40 40       	sbci	r20, 0x00	; 0
 37a:	e1 f7       	brne	.-8      	; 0x374 <blink+0x40>
 37c:	00 c0       	rjmp	.+0      	; 0x37e <blink+0x4a>
 37e:	00 00       	nop

void blink(int type, int amount){
    switch (type)
    {
    case 0: // OK
        for (int i = 0; i < amount; i++){
 380:	01 96       	adiw	r24, 0x01	; 1
 382:	86 17       	cp	r24, r22
 384:	97 07       	cpc	r25, r23
 386:	44 f3       	brlt	.-48     	; 0x358 <blink+0x24>
 388:	31 c0       	rjmp	.+98     	; 0x3ec <blink+0xb8>
        }
        _delay_ms(1000);
        break;
    case 1: // STAT
        for (int i = 0; i < amount; i++){
            PORTD |= (1 << LED_Stat);
 38a:	5f 9a       	sbi	0x0b, 7	; 11
 38c:	2f ef       	ldi	r18, 0xFF	; 255
 38e:	33 ec       	ldi	r19, 0xC3	; 195
 390:	49 e0       	ldi	r20, 0x09	; 9
 392:	21 50       	subi	r18, 0x01	; 1
 394:	30 40       	sbci	r19, 0x00	; 0
 396:	40 40       	sbci	r20, 0x00	; 0
 398:	e1 f7       	brne	.-8      	; 0x392 <blink+0x5e>
 39a:	00 c0       	rjmp	.+0      	; 0x39c <blink+0x68>
 39c:	00 00       	nop
            _delay_ms(200);
            PORTD &= ~(1 << LED_Stat);
 39e:	5f 98       	cbi	0x0b, 7	; 11
 3a0:	2f ef       	ldi	r18, 0xFF	; 255
 3a2:	33 ec       	ldi	r19, 0xC3	; 195
 3a4:	49 e0       	ldi	r20, 0x09	; 9
 3a6:	21 50       	subi	r18, 0x01	; 1
 3a8:	30 40       	sbci	r19, 0x00	; 0
 3aa:	40 40       	sbci	r20, 0x00	; 0
 3ac:	e1 f7       	brne	.-8      	; 0x3a6 <blink+0x72>
 3ae:	00 c0       	rjmp	.+0      	; 0x3b0 <blink+0x7c>
 3b0:	00 00       	nop
            _delay_ms(200);
        }
        _delay_ms(1000);
        break;
    case 1: // STAT
        for (int i = 0; i < amount; i++){
 3b2:	01 96       	adiw	r24, 0x01	; 1
 3b4:	86 17       	cp	r24, r22
 3b6:	97 07       	cpc	r25, r23
 3b8:	44 f3       	brlt	.-48     	; 0x38a <blink+0x56>
 3ba:	18 c0       	rjmp	.+48     	; 0x3ec <blink+0xb8>
        }
        _delay_ms(1000);
        break;
    case 2: // ERROR
        for (int i = 0; i < amount; i++){
            PORTD |= (1 << LED_Err);
 3bc:	5d 9a       	sbi	0x0b, 5	; 11
 3be:	2f ef       	ldi	r18, 0xFF	; 255
 3c0:	39 e6       	ldi	r19, 0x69	; 105
 3c2:	48 e1       	ldi	r20, 0x18	; 24
 3c4:	21 50       	subi	r18, 0x01	; 1
 3c6:	30 40       	sbci	r19, 0x00	; 0
 3c8:	40 40       	sbci	r20, 0x00	; 0
 3ca:	e1 f7       	brne	.-8      	; 0x3c4 <blink+0x90>
 3cc:	00 c0       	rjmp	.+0      	; 0x3ce <blink+0x9a>
 3ce:	00 00       	nop
            _delay_ms(500);
            PORTD &= ~(1 << LED_Err);
 3d0:	5d 98       	cbi	0x0b, 5	; 11
 3d2:	2f ef       	ldi	r18, 0xFF	; 255
 3d4:	39 e6       	ldi	r19, 0x69	; 105
 3d6:	48 e1       	ldi	r20, 0x18	; 24
 3d8:	21 50       	subi	r18, 0x01	; 1
 3da:	30 40       	sbci	r19, 0x00	; 0
 3dc:	40 40       	sbci	r20, 0x00	; 0
 3de:	e1 f7       	brne	.-8      	; 0x3d8 <blink+0xa4>
 3e0:	00 c0       	rjmp	.+0      	; 0x3e2 <blink+0xae>
 3e2:	00 00       	nop
            
        }
        _delay_ms(1000);
        break;
    case 2: // ERROR
        for (int i = 0; i < amount; i++){
 3e4:	01 96       	adiw	r24, 0x01	; 1
 3e6:	86 17       	cp	r24, r22
 3e8:	97 07       	cpc	r25, r23
 3ea:	44 f3       	brlt	.-48     	; 0x3bc <blink+0x88>
 3ec:	8f ef       	ldi	r24, 0xFF	; 255
 3ee:	93 ed       	ldi	r25, 0xD3	; 211
 3f0:	a0 e3       	ldi	r26, 0x30	; 48
 3f2:	81 50       	subi	r24, 0x01	; 1
 3f4:	90 40       	sbci	r25, 0x00	; 0
 3f6:	a0 40       	sbci	r26, 0x00	; 0
 3f8:	e1 f7       	brne	.-8      	; 0x3f2 <blink+0xbe>
 3fa:	00 c0       	rjmp	.+0      	; 0x3fc <blink+0xc8>
 3fc:	00 00       	nop
 3fe:	08 95       	ret

00000400 <i2c_init>:
#include "i2c_config.h"
#include <util/delay.h>

void i2c_init(void) {
    TWSR = 0x00;
 400:	10 92 b9 00 	sts	0x00B9, r1
    TWBR = 0x0C;
 404:	8c e0       	ldi	r24, 0x0C	; 12
 406:	80 93 b8 00 	sts	0x00B8, r24
    TWCR = (1 << TWEN);
 40a:	84 e0       	ldi	r24, 0x04	; 4
 40c:	80 93 bc 00 	sts	0x00BC, r24
}
 410:	08 95       	ret

00000412 <i2c_start>:

uint8_t i2c_start(uint8_t address) {
    TWCR = (1 << TWINT) | (1 << TWSTA) | (1 << TWEN);
 412:	94 ea       	ldi	r25, 0xA4	; 164
 414:	90 93 bc 00 	sts	0x00BC, r25
    while (!(TWCR & (1 << TWINT)));
 418:	90 91 bc 00 	lds	r25, 0x00BC
 41c:	97 ff       	sbrs	r25, 7
 41e:	fc cf       	rjmp	.-8      	; 0x418 <i2c_start+0x6>
    
    if ((TWSR & 0xF8) != TW_START) return 1;
 420:	90 91 b9 00 	lds	r25, 0x00B9
 424:	98 7f       	andi	r25, 0xF8	; 248
 426:	98 30       	cpi	r25, 0x08	; 8
 428:	89 f4       	brne	.+34     	; 0x44c <i2c_start+0x3a>
    
    TWDR = address;
 42a:	80 93 bb 00 	sts	0x00BB, r24
    TWCR = (1 << TWINT) | (1 << TWEN);
 42e:	84 e8       	ldi	r24, 0x84	; 132
 430:	80 93 bc 00 	sts	0x00BC, r24
    while (!(TWCR & (1 << TWINT)));
 434:	80 91 bc 00 	lds	r24, 0x00BC
 438:	87 ff       	sbrs	r24, 7
 43a:	fc cf       	rjmp	.-8      	; 0x434 <i2c_start+0x22>
    
    if ((TWSR & 0xF8) != TW_MT_SLA_ACK) return 1;
 43c:	90 91 b9 00 	lds	r25, 0x00B9
 440:	98 7f       	andi	r25, 0xF8	; 248

uint8_t i2c_start(uint8_t address) {
    TWCR = (1 << TWINT) | (1 << TWSTA) | (1 << TWEN);
    while (!(TWCR & (1 << TWINT)));
    
    if ((TWSR & 0xF8) != TW_START) return 1;
 442:	81 e0       	ldi	r24, 0x01	; 1
 444:	98 31       	cpi	r25, 0x18	; 24
 446:	19 f4       	brne	.+6      	; 0x44e <i2c_start+0x3c>
 448:	80 e0       	ldi	r24, 0x00	; 0
 44a:	08 95       	ret
 44c:	81 e0       	ldi	r24, 0x01	; 1
    while (!(TWCR & (1 << TWINT)));
    
    if ((TWSR & 0xF8) != TW_MT_SLA_ACK) return 1;
    
    return 0;
}
 44e:	08 95       	ret

00000450 <i2c_stop>:

void i2c_stop(void) {
    TWCR = (1 << TWINT) | (1 << TWSTO) | (1 << TWEN);
 450:	84 e9       	ldi	r24, 0x94	; 148
 452:	80 93 bc 00 	sts	0x00BC, r24
    while (TWCR & (1 << TWSTO));
 456:	80 91 bc 00 	lds	r24, 0x00BC
 45a:	84 fd       	sbrc	r24, 4
 45c:	fc cf       	rjmp	.-8      	; 0x456 <i2c_stop+0x6>
}
 45e:	08 95       	ret

00000460 <i2c_write>:

uint8_t i2c_write(uint8_t data) {
    TWDR = data;
 460:	80 93 bb 00 	sts	0x00BB, r24
    TWCR = (1 << TWINT) | (1 << TWEN);
 464:	84 e8       	ldi	r24, 0x84	; 132
 466:	80 93 bc 00 	sts	0x00BC, r24
    while (!(TWCR & (1 << TWINT)));
 46a:	80 91 bc 00 	lds	r24, 0x00BC
 46e:	87 ff       	sbrs	r24, 7
 470:	fc cf       	rjmp	.-8      	; 0x46a <i2c_write+0xa>
    
    if ((TWSR & 0xF8) != TW_MT_DATA_ACK) return 1;
 472:	90 91 b9 00 	lds	r25, 0x00B9
 476:	98 7f       	andi	r25, 0xF8	; 248
 478:	81 e0       	ldi	r24, 0x01	; 1
 47a:	98 32       	cpi	r25, 0x28	; 40
 47c:	09 f4       	brne	.+2      	; 0x480 <i2c_write+0x20>
 47e:	80 e0       	ldi	r24, 0x00	; 0
    
    return 0;
 480:	08 95       	ret

00000482 <ssd1306_cmd>:
    0x00, 0x00, 0x7F, 0x00, 0x00, // |
    0x00, 0x41, 0x41, 0x3E, 0x08, // }
    0x08, 0x04, 0x08, 0x10, 0x08 // ~
};

void ssd1306_cmd(uint8_t cmd) {
 482:	1f 93       	push	r17
 484:	18 2f       	mov	r17, r24
    i2c_start(SSD1306_ADDRESS);
 486:	88 e7       	ldi	r24, 0x78	; 120
 488:	0e 94 09 02 	call	0x412	; 0x412 <i2c_start>
    i2c_write(0x00);
 48c:	80 e0       	ldi	r24, 0x00	; 0
 48e:	0e 94 30 02 	call	0x460	; 0x460 <i2c_write>
    i2c_write(cmd);
 492:	81 2f       	mov	r24, r17
 494:	0e 94 30 02 	call	0x460	; 0x460 <i2c_write>
    i2c_stop();
 498:	0e 94 28 02 	call	0x450	; 0x450 <i2c_stop>
}
 49c:	1f 91       	pop	r17
 49e:	08 95       	ret

000004a0 <ssd1306_init>:
 4a0:	8f ef       	ldi	r24, 0xFF	; 255
 4a2:	91 ee       	ldi	r25, 0xE1	; 225
 4a4:	a4 e0       	ldi	r26, 0x04	; 4
 4a6:	81 50       	subi	r24, 0x01	; 1
 4a8:	90 40       	sbci	r25, 0x00	; 0
 4aa:	a0 40       	sbci	r26, 0x00	; 0
 4ac:	e1 f7       	brne	.-8      	; 0x4a6 <ssd1306_init+0x6>
 4ae:	00 c0       	rjmp	.+0      	; 0x4b0 <ssd1306_init+0x10>
 4b0:	00 00       	nop

void ssd1306_init(void) {
    _delay_ms(100);
    
    ssd1306_cmd(SSD1306_DISPLAYOFF);
 4b2:	8e ea       	ldi	r24, 0xAE	; 174
 4b4:	0e 94 41 02 	call	0x482	; 0x482 <ssd1306_cmd>
    
    ssd1306_cmd(0x20);
 4b8:	80 e2       	ldi	r24, 0x20	; 32
 4ba:	0e 94 41 02 	call	0x482	; 0x482 <ssd1306_cmd>
    ssd1306_cmd(0x00);
 4be:	80 e0       	ldi	r24, 0x00	; 0
 4c0:	0e 94 41 02 	call	0x482	; 0x482 <ssd1306_cmd>

    ssd1306_cmd(0x21);
 4c4:	81 e2       	ldi	r24, 0x21	; 33
 4c6:	0e 94 41 02 	call	0x482	; 0x482 <ssd1306_cmd>
    ssd1306_cmd(0x02);  // 4 часа делал они делают с запасом 2 пикселя, а I2C 
 4ca:	82 e0       	ldi	r24, 0x02	; 2
 4cc:	0e 94 41 02 	call	0x482	; 0x482 <ssd1306_cmd>
    ssd1306_cmd(0x81);  // фигачит подряд теперь получается с 2-129
 4d0:	81 e8       	ldi	r24, 0x81	; 129
 4d2:	0e 94 41 02 	call	0x482	; 0x482 <ssd1306_cmd>

    ssd1306_cmd(0x22);
 4d6:	82 e2       	ldi	r24, 0x22	; 34
 4d8:	0e 94 41 02 	call	0x482	; 0x482 <ssd1306_cmd>
    ssd1306_cmd(0x00);  // Начальная страница = 0
 4dc:	80 e0       	ldi	r24, 0x00	; 0
 4de:	0e 94 41 02 	call	0x482	; 0x482 <ssd1306_cmd>
    ssd1306_cmd(0x07);  // Конечная страница = 7
 4e2:	87 e0       	ldi	r24, 0x07	; 7
 4e4:	0e 94 41 02 	call	0x482	; 0x482 <ssd1306_cmd>

    // Сбрасываем смещение
    ssd1306_cmd(0xD3);
 4e8:	83 ed       	ldi	r24, 0xD3	; 211
 4ea:	0e 94 41 02 	call	0x482	; 0x482 <ssd1306_cmd>
    ssd1306_cmd(0x00);  // NO offset
 4ee:	80 e0       	ldi	r24, 0x00	; 0
 4f0:	0e 94 41 02 	call	0x482	; 0x482 <ssd1306_cmd>

    // Начальная линия = 0
    ssd1306_cmd(0x40);
 4f4:	80 e4       	ldi	r24, 0x40	; 64
 4f6:	0e 94 41 02 	call	0x482	; 0x482 <ssd1306_cmd>
    ssd1306_cmd(0xA1);  // Segment re-map normal (колонка 0 -> SEG0)
 4fa:	81 ea       	ldi	r24, 0xA1	; 161
 4fc:	0e 94 41 02 	call	0x482	; 0x482 <ssd1306_cmd>
    ssd1306_cmd(0xC8);  // COM output scan normal (страница 0 -> COM0)
 500:	88 ec       	ldi	r24, 0xC8	; 200
 502:	0e 94 41 02 	call	0x482	; 0x482 <ssd1306_cmd>
    ssd1306_cmd(0xA8);
 506:	88 ea       	ldi	r24, 0xA8	; 168
 508:	0e 94 41 02 	call	0x482	; 0x482 <ssd1306_cmd>
    ssd1306_cmd(0x3F);
 50c:	8f e3       	ldi	r24, 0x3F	; 63
 50e:	0e 94 41 02 	call	0x482	; 0x482 <ssd1306_cmd>

    // COM pins configuration
    ssd1306_cmd(0xDA);
 512:	8a ed       	ldi	r24, 0xDA	; 218
 514:	0e 94 41 02 	call	0x482	; 0x482 <ssd1306_cmd>
    ssd1306_cmd(0x12);  // Alternative COM pin configuration, disable COM left/right remap
 518:	82 e1       	ldi	r24, 0x12	; 18
 51a:	0e 94 41 02 	call	0x482	; 0x482 <ssd1306_cmd>

    // Контраст
    ssd1306_cmd(0x81);
 51e:	81 e8       	ldi	r24, 0x81	; 129
 520:	0e 94 41 02 	call	0x482	; 0x482 <ssd1306_cmd>
    ssd1306_cmd(0x7F);
 524:	8f e7       	ldi	r24, 0x7F	; 127
 526:	0e 94 41 02 	call	0x482	; 0x482 <ssd1306_cmd>

    // Включаем отображение из RAM
    ssd1306_cmd(0xA4);
 52a:	84 ea       	ldi	r24, 0xA4	; 164
 52c:	0e 94 41 02 	call	0x482	; 0x482 <ssd1306_cmd>
    
    // Нормальный (не инвертированный) дисплей
    ssd1306_cmd(0xA6);
 530:	86 ea       	ldi	r24, 0xA6	; 166
 532:	0e 94 41 02 	call	0x482	; 0x482 <ssd1306_cmd>

    // Настройка тактовой частоты
    ssd1306_cmd(0xD5);
 536:	85 ed       	ldi	r24, 0xD5	; 213
 538:	0e 94 41 02 	call	0x482	; 0x482 <ssd1306_cmd>
    ssd1306_cmd(0x80);
 53c:	80 e8       	ldi	r24, 0x80	; 128
 53e:	0e 94 41 02 	call	0x482	; 0x482 <ssd1306_cmd>

    // Включаем charge pump
    ssd1306_cmd(0x8D);
 542:	8d e8       	ldi	r24, 0x8D	; 141
 544:	0e 94 41 02 	call	0x482	; 0x482 <ssd1306_cmd>
    ssd1306_cmd(0x14);
 548:	84 e1       	ldi	r24, 0x14	; 20
 54a:	0e 94 41 02 	call	0x482	; 0x482 <ssd1306_cmd>

    // Pre-charge period
    ssd1306_cmd(0xD9);
 54e:	89 ed       	ldi	r24, 0xD9	; 217
 550:	0e 94 41 02 	call	0x482	; 0x482 <ssd1306_cmd>
    ssd1306_cmd(0x22);
 554:	82 e2       	ldi	r24, 0x22	; 34
 556:	0e 94 41 02 	call	0x482	; 0x482 <ssd1306_cmd>

    // VCOMH deselect level
    ssd1306_cmd(0xDB);
 55a:	8b ed       	ldi	r24, 0xDB	; 219
 55c:	0e 94 41 02 	call	0x482	; 0x482 <ssd1306_cmd>
    ssd1306_cmd(0x20);
 560:	80 e2       	ldi	r24, 0x20	; 32
 562:	0e 94 41 02 	call	0x482	; 0x482 <ssd1306_cmd>
    ssd1306_cmd(SSD1306_DISPLAYON);
 566:	8f ea       	ldi	r24, 0xAF	; 175
 568:	0e 94 41 02 	call	0x482	; 0x482 <ssd1306_cmd>
 56c:	8f ef       	ldi	r24, 0xFF	; 255
 56e:	91 ee       	ldi	r25, 0xE1	; 225
 570:	a4 e0       	ldi	r26, 0x04	; 4
 572:	81 50       	subi	r24, 0x01	; 1
 574:	90 40       	sbci	r25, 0x00	; 0
 576:	a0 40       	sbci	r26, 0x00	; 0
 578:	e1 f7       	brne	.-8      	; 0x572 <ssd1306_init+0xd2>
 57a:	00 c0       	rjmp	.+0      	; 0x57c <ssd1306_init+0xdc>
 57c:	00 00       	nop
    _delay_ms(100);
}
 57e:	08 95       	ret

00000580 <ssd1306_set_cursor>:
        i2c_stop();
    }
    ssd1306_set_cursor(0, 0);
}

void ssd1306_set_cursor(uint8_t page, uint8_t column) {
 580:	1f 93       	push	r17
    if (page > 7) page = 7;
    if (column > 127) column = 127;
 582:	88 30       	cpi	r24, 0x08	; 8
 584:	08 f0       	brcs	.+2      	; 0x588 <ssd1306_set_cursor+0x8>
 586:	87 e0       	ldi	r24, 0x07	; 7
 588:	67 fd       	sbrc	r22, 7
 58a:	6f e7       	ldi	r22, 0x7F	; 127
    column += 2; // костыль
 58c:	16 2f       	mov	r17, r22
 58e:	1e 5f       	subi	r17, 0xFE	; 254
    ssd1306_cmd(0xB0 + page);
 590:	80 55       	subi	r24, 0x50	; 80
 592:	0e 94 41 02 	call	0x482	; 0x482 <ssd1306_cmd>
    ssd1306_cmd((column & 0x0F) | 0x00);
 596:	81 2f       	mov	r24, r17
 598:	8f 70       	andi	r24, 0x0F	; 15
 59a:	0e 94 41 02 	call	0x482	; 0x482 <ssd1306_cmd>
    ssd1306_cmd((column >> 4) | 0x10);
 59e:	81 2f       	mov	r24, r17
 5a0:	82 95       	swap	r24
 5a2:	8f 70       	andi	r24, 0x0F	; 15
 5a4:	80 61       	ori	r24, 0x10	; 16
 5a6:	0e 94 41 02 	call	0x482	; 0x482 <ssd1306_cmd>
}
 5aa:	1f 91       	pop	r17
 5ac:	08 95       	ret

000005ae <ssd1306_clear>:
    ssd1306_cmd(0x20);
    ssd1306_cmd(SSD1306_DISPLAYON);
    _delay_ms(100);
}

void ssd1306_clear(void) {
 5ae:	0f 93       	push	r16
 5b0:	1f 93       	push	r17
    for (uint8_t page = 0; page < 8; page++) {
 5b2:	10 e0       	ldi	r17, 0x00	; 0
        ssd1306_set_cursor(page, 0);
 5b4:	81 2f       	mov	r24, r17
 5b6:	60 e0       	ldi	r22, 0x00	; 0
 5b8:	0e 94 c0 02 	call	0x580	; 0x580 <ssd1306_set_cursor>
        
        i2c_start(SSD1306_ADDRESS);
 5bc:	88 e7       	ldi	r24, 0x78	; 120
 5be:	0e 94 09 02 	call	0x412	; 0x412 <i2c_start>
        i2c_write(0x40);
 5c2:	80 e4       	ldi	r24, 0x40	; 64
 5c4:	0e 94 30 02 	call	0x460	; 0x460 <i2c_write>
        for (uint8_t col = 0; col < 128; col++) {
 5c8:	00 e0       	ldi	r16, 0x00	; 0
            i2c_write(0x00);
 5ca:	80 e0       	ldi	r24, 0x00	; 0
 5cc:	0e 94 30 02 	call	0x460	; 0x460 <i2c_write>
    for (uint8_t page = 0; page < 8; page++) {
        ssd1306_set_cursor(page, 0);
        
        i2c_start(SSD1306_ADDRESS);
        i2c_write(0x40);
        for (uint8_t col = 0; col < 128; col++) {
 5d0:	0f 5f       	subi	r16, 0xFF	; 255
 5d2:	00 38       	cpi	r16, 0x80	; 128
 5d4:	d1 f7       	brne	.-12     	; 0x5ca <ssd1306_clear+0x1c>
            i2c_write(0x00);
        }
        
        i2c_stop();
 5d6:	0e 94 28 02 	call	0x450	; 0x450 <i2c_stop>
    ssd1306_cmd(SSD1306_DISPLAYON);
    _delay_ms(100);
}

void ssd1306_clear(void) {
    for (uint8_t page = 0; page < 8; page++) {
 5da:	1f 5f       	subi	r17, 0xFF	; 255
 5dc:	18 30       	cpi	r17, 0x08	; 8
 5de:	51 f7       	brne	.-44     	; 0x5b4 <ssd1306_clear+0x6>
            i2c_write(0x00);
        }
        
        i2c_stop();
    }
    ssd1306_set_cursor(0, 0);
 5e0:	80 e0       	ldi	r24, 0x00	; 0
 5e2:	60 e0       	ldi	r22, 0x00	; 0
 5e4:	0e 94 c0 02 	call	0x580	; 0x580 <ssd1306_set_cursor>
}
 5e8:	1f 91       	pop	r17
 5ea:	0f 91       	pop	r16
 5ec:	08 95       	ret

000005ee <ssd1306_print_char>:
    ssd1306_cmd(0xB0 + page);
    ssd1306_cmd((column & 0x0F) | 0x00);
    ssd1306_cmd((column >> 4) | 0x10);
}

void ssd1306_print_char(char c) {
 5ee:	0f 93       	push	r16
 5f0:	1f 93       	push	r17
 5f2:	cf 93       	push	r28
 5f4:	df 93       	push	r29
    uint8_t char_index;
    
    // Конвертируем нижний регистр в верхний
    if (c >= 'a' && c <= 'z') {
 5f6:	98 2f       	mov	r25, r24
 5f8:	91 56       	subi	r25, 0x61	; 97
 5fa:	9a 31       	cpi	r25, 0x1A	; 26
 5fc:	08 f4       	brcc	.+2      	; 0x600 <ssd1306_print_char+0x12>
        c = c - 'a' + 'A';
 5fe:	80 52       	subi	r24, 0x20	; 32
    }
    
    // Определяем индекс символа (без умножения на 5)
    if (c >= '0' && c <= '9') {
 600:	98 2f       	mov	r25, r24
 602:	90 53       	subi	r25, 0x30	; 48
 604:	9a 30       	cpi	r25, 0x0A	; 10
 606:	10 f4       	brcc	.+4      	; 0x60c <ssd1306_print_char+0x1e>
        char_index = c - '0' + 1;
 608:	8f 52       	subi	r24, 0x2F	; 47
 60a:	ac c0       	rjmp	.+344    	; 0x764 <ssd1306_print_char+0x176>
    } else if (c >= 'A' && c <= 'Z') {
 60c:	98 2f       	mov	r25, r24
 60e:	91 54       	subi	r25, 0x41	; 65
 610:	9a 31       	cpi	r25, 0x1A	; 26
 612:	10 f4       	brcc	.+4      	; 0x618 <ssd1306_print_char+0x2a>
        char_index = c - 'A' + 11;
 614:	86 53       	subi	r24, 0x36	; 54
 616:	a6 c0       	rjmp	.+332    	; 0x764 <ssd1306_print_char+0x176>
    } else if (c == ' ') {
 618:	80 32       	cpi	r24, 0x20	; 32
 61a:	09 f4       	brne	.+2      	; 0x61e <ssd1306_print_char+0x30>
 61c:	62 c0       	rjmp	.+196    	; 0x6e2 <ssd1306_print_char+0xf4>
        char_index = 0;
    } else if (c == '!') {
 61e:	81 32       	cpi	r24, 0x21	; 33
 620:	09 f4       	brne	.+2      	; 0x624 <ssd1306_print_char+0x36>
 622:	61 c0       	rjmp	.+194    	; 0x6e6 <ssd1306_print_char+0xf8>
        char_index = 36;
    } else if (c == '"') {
 624:	82 32       	cpi	r24, 0x22	; 34
 626:	09 f4       	brne	.+2      	; 0x62a <ssd1306_print_char+0x3c>
 628:	60 c0       	rjmp	.+192    	; 0x6ea <ssd1306_print_char+0xfc>
        char_index = 37;
    } else if (c == '#') {
 62a:	83 32       	cpi	r24, 0x23	; 35
 62c:	09 f4       	brne	.+2      	; 0x630 <ssd1306_print_char+0x42>
 62e:	5f c0       	rjmp	.+190    	; 0x6ee <ssd1306_print_char+0x100>
        char_index = 38;
    } else if (c == '$') {
 630:	84 32       	cpi	r24, 0x24	; 36
 632:	09 f4       	brne	.+2      	; 0x636 <ssd1306_print_char+0x48>
 634:	5e c0       	rjmp	.+188    	; 0x6f2 <ssd1306_print_char+0x104>
        char_index = 39;
    } else if (c == '%') {
 636:	85 32       	cpi	r24, 0x25	; 37
 638:	09 f4       	brne	.+2      	; 0x63c <ssd1306_print_char+0x4e>
 63a:	5d c0       	rjmp	.+186    	; 0x6f6 <ssd1306_print_char+0x108>
        char_index = 40;
    } else if (c == '&') {
 63c:	86 32       	cpi	r24, 0x26	; 38
 63e:	09 f4       	brne	.+2      	; 0x642 <ssd1306_print_char+0x54>
 640:	5c c0       	rjmp	.+184    	; 0x6fa <ssd1306_print_char+0x10c>
        char_index = 41;
    } else if (c == '\'') {
 642:	87 32       	cpi	r24, 0x27	; 39
 644:	09 f4       	brne	.+2      	; 0x648 <ssd1306_print_char+0x5a>
 646:	5b c0       	rjmp	.+182    	; 0x6fe <ssd1306_print_char+0x110>
        char_index = 42;
    } else if (c == '(') {
 648:	88 32       	cpi	r24, 0x28	; 40
 64a:	09 f4       	brne	.+2      	; 0x64e <ssd1306_print_char+0x60>
 64c:	5a c0       	rjmp	.+180    	; 0x702 <ssd1306_print_char+0x114>
        char_index = 43;
    } else if (c == ')') {
 64e:	89 32       	cpi	r24, 0x29	; 41
 650:	09 f4       	brne	.+2      	; 0x654 <ssd1306_print_char+0x66>
 652:	59 c0       	rjmp	.+178    	; 0x706 <ssd1306_print_char+0x118>
        char_index = 44;
    } else if (c == '*') {
 654:	8a 32       	cpi	r24, 0x2A	; 42
 656:	09 f4       	brne	.+2      	; 0x65a <ssd1306_print_char+0x6c>
 658:	58 c0       	rjmp	.+176    	; 0x70a <ssd1306_print_char+0x11c>
        char_index = 45;
    } else if (c == '+') {
 65a:	8b 32       	cpi	r24, 0x2B	; 43
 65c:	09 f4       	brne	.+2      	; 0x660 <ssd1306_print_char+0x72>
 65e:	57 c0       	rjmp	.+174    	; 0x70e <ssd1306_print_char+0x120>
        char_index = 46;
    } else if (c == ',') {
 660:	8c 32       	cpi	r24, 0x2C	; 44
 662:	09 f4       	brne	.+2      	; 0x666 <ssd1306_print_char+0x78>
 664:	56 c0       	rjmp	.+172    	; 0x712 <ssd1306_print_char+0x124>
        char_index = 47;
    } else if (c == '-') {
 666:	8d 32       	cpi	r24, 0x2D	; 45
 668:	09 f4       	brne	.+2      	; 0x66c <ssd1306_print_char+0x7e>
 66a:	55 c0       	rjmp	.+170    	; 0x716 <ssd1306_print_char+0x128>
        char_index = 48;
    } else if (c == '.') {
 66c:	8e 32       	cpi	r24, 0x2E	; 46
 66e:	09 f4       	brne	.+2      	; 0x672 <ssd1306_print_char+0x84>
 670:	54 c0       	rjmp	.+168    	; 0x71a <ssd1306_print_char+0x12c>
        char_index = 49;
    } else if (c == '/') {
 672:	8f 32       	cpi	r24, 0x2F	; 47
 674:	09 f4       	brne	.+2      	; 0x678 <ssd1306_print_char+0x8a>
 676:	53 c0       	rjmp	.+166    	; 0x71e <ssd1306_print_char+0x130>
        char_index = 50;
    } else if (c == ':') {
 678:	8a 33       	cpi	r24, 0x3A	; 58
 67a:	09 f4       	brne	.+2      	; 0x67e <ssd1306_print_char+0x90>
 67c:	52 c0       	rjmp	.+164    	; 0x722 <ssd1306_print_char+0x134>
        char_index = 51;
    } else if (c == ';') {
 67e:	8b 33       	cpi	r24, 0x3B	; 59
 680:	09 f4       	brne	.+2      	; 0x684 <ssd1306_print_char+0x96>
 682:	51 c0       	rjmp	.+162    	; 0x726 <ssd1306_print_char+0x138>
        char_index = 52;
    } else if (c == '<') {
 684:	8c 33       	cpi	r24, 0x3C	; 60
 686:	09 f4       	brne	.+2      	; 0x68a <ssd1306_print_char+0x9c>
 688:	50 c0       	rjmp	.+160    	; 0x72a <ssd1306_print_char+0x13c>
        char_index = 53;
    } else if (c == '=') {
 68a:	8d 33       	cpi	r24, 0x3D	; 61
 68c:	09 f4       	brne	.+2      	; 0x690 <ssd1306_print_char+0xa2>
 68e:	4f c0       	rjmp	.+158    	; 0x72e <ssd1306_print_char+0x140>
        char_index = 54;
    } else if (c == '>') {
 690:	8e 33       	cpi	r24, 0x3E	; 62
 692:	09 f4       	brne	.+2      	; 0x696 <ssd1306_print_char+0xa8>
 694:	4e c0       	rjmp	.+156    	; 0x732 <ssd1306_print_char+0x144>
        char_index = 55;
    } else if (c == '?') {
 696:	8f 33       	cpi	r24, 0x3F	; 63
 698:	09 f4       	brne	.+2      	; 0x69c <ssd1306_print_char+0xae>
 69a:	4d c0       	rjmp	.+154    	; 0x736 <ssd1306_print_char+0x148>
        char_index = 56;
    } else if (c == '@') {
 69c:	80 34       	cpi	r24, 0x40	; 64
 69e:	09 f4       	brne	.+2      	; 0x6a2 <ssd1306_print_char+0xb4>
 6a0:	4c c0       	rjmp	.+152    	; 0x73a <ssd1306_print_char+0x14c>
        char_index = 57;
    } else if (c == '[') {
 6a2:	8b 35       	cpi	r24, 0x5B	; 91
 6a4:	09 f4       	brne	.+2      	; 0x6a8 <ssd1306_print_char+0xba>
 6a6:	4b c0       	rjmp	.+150    	; 0x73e <ssd1306_print_char+0x150>
        char_index = 58;
    } else if (c == '\\') {
 6a8:	8c 35       	cpi	r24, 0x5C	; 92
 6aa:	09 f4       	brne	.+2      	; 0x6ae <ssd1306_print_char+0xc0>
 6ac:	4a c0       	rjmp	.+148    	; 0x742 <ssd1306_print_char+0x154>
        char_index = 59;
    } else if (c == ']') {
 6ae:	8d 35       	cpi	r24, 0x5D	; 93
 6b0:	09 f4       	brne	.+2      	; 0x6b4 <ssd1306_print_char+0xc6>
 6b2:	49 c0       	rjmp	.+146    	; 0x746 <ssd1306_print_char+0x158>
        char_index = 60;
    } else if (c == '^') {
 6b4:	8e 35       	cpi	r24, 0x5E	; 94
 6b6:	09 f4       	brne	.+2      	; 0x6ba <ssd1306_print_char+0xcc>
 6b8:	48 c0       	rjmp	.+144    	; 0x74a <ssd1306_print_char+0x15c>
        char_index = 61;
    } else if (c == '_') {
 6ba:	8f 35       	cpi	r24, 0x5F	; 95
 6bc:	09 f4       	brne	.+2      	; 0x6c0 <ssd1306_print_char+0xd2>
 6be:	47 c0       	rjmp	.+142    	; 0x74e <ssd1306_print_char+0x160>
        char_index = 62;
    } else if (c == '`') {
 6c0:	80 36       	cpi	r24, 0x60	; 96
 6c2:	09 f4       	brne	.+2      	; 0x6c6 <ssd1306_print_char+0xd8>
 6c4:	46 c0       	rjmp	.+140    	; 0x752 <ssd1306_print_char+0x164>
        char_index = 63;
    } else if (c == '{') {
 6c6:	8b 37       	cpi	r24, 0x7B	; 123
 6c8:	09 f4       	brne	.+2      	; 0x6cc <ssd1306_print_char+0xde>
 6ca:	45 c0       	rjmp	.+138    	; 0x756 <ssd1306_print_char+0x168>
        char_index = 64;
    } else if (c == '|') {
 6cc:	8c 37       	cpi	r24, 0x7C	; 124
 6ce:	09 f4       	brne	.+2      	; 0x6d2 <ssd1306_print_char+0xe4>
 6d0:	44 c0       	rjmp	.+136    	; 0x75a <ssd1306_print_char+0x16c>
        char_index = 65;
    } else if (c == '}') {
 6d2:	8d 37       	cpi	r24, 0x7D	; 125
 6d4:	09 f4       	brne	.+2      	; 0x6d8 <ssd1306_print_char+0xea>
 6d6:	43 c0       	rjmp	.+134    	; 0x75e <ssd1306_print_char+0x170>
        char_index = 66;
    } else if (c == '~') {
 6d8:	8e 37       	cpi	r24, 0x7E	; 126
 6da:	09 f0       	breq	.+2      	; 0x6de <ssd1306_print_char+0xf0>
 6dc:	42 c0       	rjmp	.+132    	; 0x762 <ssd1306_print_char+0x174>
        char_index = 67;
 6de:	83 e4       	ldi	r24, 0x43	; 67
 6e0:	41 c0       	rjmp	.+130    	; 0x764 <ssd1306_print_char+0x176>
    if (c >= '0' && c <= '9') {
        char_index = c - '0' + 1;
    } else if (c >= 'A' && c <= 'Z') {
        char_index = c - 'A' + 11;
    } else if (c == ' ') {
        char_index = 0;
 6e2:	80 e0       	ldi	r24, 0x00	; 0
 6e4:	3f c0       	rjmp	.+126    	; 0x764 <ssd1306_print_char+0x176>
    } else if (c == '!') {
        char_index = 36;
 6e6:	84 e2       	ldi	r24, 0x24	; 36
 6e8:	3d c0       	rjmp	.+122    	; 0x764 <ssd1306_print_char+0x176>
    } else if (c == '"') {
        char_index = 37;
 6ea:	85 e2       	ldi	r24, 0x25	; 37
 6ec:	3b c0       	rjmp	.+118    	; 0x764 <ssd1306_print_char+0x176>
    } else if (c == '#') {
        char_index = 38;
 6ee:	86 e2       	ldi	r24, 0x26	; 38
 6f0:	39 c0       	rjmp	.+114    	; 0x764 <ssd1306_print_char+0x176>
    } else if (c == '$') {
        char_index = 39;
 6f2:	87 e2       	ldi	r24, 0x27	; 39
 6f4:	37 c0       	rjmp	.+110    	; 0x764 <ssd1306_print_char+0x176>
    } else if (c == '%') {
        char_index = 40;
 6f6:	88 e2       	ldi	r24, 0x28	; 40
 6f8:	35 c0       	rjmp	.+106    	; 0x764 <ssd1306_print_char+0x176>
    } else if (c == '&') {
        char_index = 41;
 6fa:	89 e2       	ldi	r24, 0x29	; 41
 6fc:	33 c0       	rjmp	.+102    	; 0x764 <ssd1306_print_char+0x176>
    } else if (c == '\'') {
        char_index = 42;
 6fe:	8a e2       	ldi	r24, 0x2A	; 42
 700:	31 c0       	rjmp	.+98     	; 0x764 <ssd1306_print_char+0x176>
    } else if (c == '(') {
        char_index = 43;
 702:	8b e2       	ldi	r24, 0x2B	; 43
 704:	2f c0       	rjmp	.+94     	; 0x764 <ssd1306_print_char+0x176>
    } else if (c == ')') {
        char_index = 44;
 706:	8c e2       	ldi	r24, 0x2C	; 44
 708:	2d c0       	rjmp	.+90     	; 0x764 <ssd1306_print_char+0x176>
    } else if (c == '*') {
        char_index = 45;
 70a:	8d e2       	ldi	r24, 0x2D	; 45
 70c:	2b c0       	rjmp	.+86     	; 0x764 <ssd1306_print_char+0x176>
    } else if (c == '+') {
        char_index = 46;
 70e:	8e e2       	ldi	r24, 0x2E	; 46
 710:	29 c0       	rjmp	.+82     	; 0x764 <ssd1306_print_char+0x176>
    } else if (c == ',') {
        char_index = 47;
 712:	8f e2       	ldi	r24, 0x2F	; 47
 714:	27 c0       	rjmp	.+78     	; 0x764 <ssd1306_print_char+0x176>
    } else if (c == '-') {
        char_index = 48;
 716:	80 e3       	ldi	r24, 0x30	; 48
 718:	25 c0       	rjmp	.+74     	; 0x764 <ssd1306_print_char+0x176>
    } else if (c == '.') {
        char_index = 49;
 71a:	81 e3       	ldi	r24, 0x31	; 49
 71c:	23 c0       	rjmp	.+70     	; 0x764 <ssd1306_print_char+0x176>
    } else if (c == '/') {
        char_index = 50;
 71e:	82 e3       	ldi	r24, 0x32	; 50
 720:	21 c0       	rjmp	.+66     	; 0x764 <ssd1306_print_char+0x176>
    } else if (c == ':') {
        char_index = 51;
 722:	83 e3       	ldi	r24, 0x33	; 51
 724:	1f c0       	rjmp	.+62     	; 0x764 <ssd1306_print_char+0x176>
    } else if (c == ';') {
        char_index = 52;
 726:	84 e3       	ldi	r24, 0x34	; 52
 728:	1d c0       	rjmp	.+58     	; 0x764 <ssd1306_print_char+0x176>
    } else if (c == '<') {
        char_index = 53;
 72a:	85 e3       	ldi	r24, 0x35	; 53
 72c:	1b c0       	rjmp	.+54     	; 0x764 <ssd1306_print_char+0x176>
    } else if (c == '=') {
        char_index = 54;
 72e:	86 e3       	ldi	r24, 0x36	; 54
 730:	19 c0       	rjmp	.+50     	; 0x764 <ssd1306_print_char+0x176>
    } else if (c == '>') {
        char_index = 55;
 732:	87 e3       	ldi	r24, 0x37	; 55
 734:	17 c0       	rjmp	.+46     	; 0x764 <ssd1306_print_char+0x176>
    } else if (c == '?') {
        char_index = 56;
 736:	88 e3       	ldi	r24, 0x38	; 56
 738:	15 c0       	rjmp	.+42     	; 0x764 <ssd1306_print_char+0x176>
    } else if (c == '@') {
        char_index = 57;
 73a:	89 e3       	ldi	r24, 0x39	; 57
 73c:	13 c0       	rjmp	.+38     	; 0x764 <ssd1306_print_char+0x176>
    } else if (c == '[') {
        char_index = 58;
 73e:	8a e3       	ldi	r24, 0x3A	; 58
 740:	11 c0       	rjmp	.+34     	; 0x764 <ssd1306_print_char+0x176>
    } else if (c == '\\') {
        char_index = 59;
 742:	8b e3       	ldi	r24, 0x3B	; 59
 744:	0f c0       	rjmp	.+30     	; 0x764 <ssd1306_print_char+0x176>
    } else if (c == ']') {
        char_index = 60;
 746:	8c e3       	ldi	r24, 0x3C	; 60
 748:	0d c0       	rjmp	.+26     	; 0x764 <ssd1306_print_char+0x176>
    } else if (c == '^') {
        char_index = 61;
 74a:	8d e3       	ldi	r24, 0x3D	; 61
 74c:	0b c0       	rjmp	.+22     	; 0x764 <ssd1306_print_char+0x176>
    } else if (c == '_') {
        char_index = 62;
 74e:	8e e3       	ldi	r24, 0x3E	; 62
 750:	09 c0       	rjmp	.+18     	; 0x764 <ssd1306_print_char+0x176>
    } else if (c == '`') {
        char_index = 63;
 752:	8f e3       	ldi	r24, 0x3F	; 63
 754:	07 c0       	rjmp	.+14     	; 0x764 <ssd1306_print_char+0x176>
    } else if (c == '{') {
        char_index = 64;
 756:	80 e4       	ldi	r24, 0x40	; 64
 758:	05 c0       	rjmp	.+10     	; 0x764 <ssd1306_print_char+0x176>
    } else if (c == '|') {
        char_index = 65;
 75a:	81 e4       	ldi	r24, 0x41	; 65
 75c:	03 c0       	rjmp	.+6      	; 0x764 <ssd1306_print_char+0x176>
    } else if (c == '}') {
        char_index = 66;
 75e:	82 e4       	ldi	r24, 0x42	; 66
 760:	01 c0       	rjmp	.+2      	; 0x764 <ssd1306_print_char+0x176>
    } else if (c == '~') {
        char_index = 67;
    } else {
        char_index = 1;  // Для неизвестных символов
 762:	81 e0       	ldi	r24, 0x01	; 1
    }
    
    // Умножаем на 5 только здесь
    uint16_t font_index = char_index * 5;
 764:	95 e0       	ldi	r25, 0x05	; 5
 766:	89 9f       	mul	r24, r25
 768:	e0 01       	movw	r28, r0
 76a:	11 24       	eor	r1, r1
    
    i2c_start(SSD1306_ADDRESS);
 76c:	88 e7       	ldi	r24, 0x78	; 120
 76e:	0e 94 09 02 	call	0x412	; 0x412 <i2c_start>
    i2c_write(0x40);
 772:	80 e4       	ldi	r24, 0x40	; 64
 774:	0e 94 30 02 	call	0x460	; 0x460 <i2c_write>
    ssd1306_cmd(0xB0 + page);
    ssd1306_cmd((column & 0x0F) | 0x00);
    ssd1306_cmd((column >> 4) | 0x10);
}

void ssd1306_print_char(char c) {
 778:	8e 01       	movw	r16, r28
 77a:	0b 5f       	subi	r16, 0xFB	; 251
 77c:	1f 4f       	sbci	r17, 0xFF	; 255
    
    i2c_start(SSD1306_ADDRESS);
    i2c_write(0x40);
    
    for (uint8_t i = 0; i < 5; i++) {
        i2c_write(pgm_read_byte(&font_5x8[font_index + i]));
 77e:	fe 01       	movw	r30, r28
 780:	e8 59       	subi	r30, 0x98	; 152
 782:	ff 4f       	sbci	r31, 0xFF	; 255
 784:	84 91       	lpm	r24, Z+
 786:	0e 94 30 02 	call	0x460	; 0x460 <i2c_write>
 78a:	21 96       	adiw	r28, 0x01	; 1
    uint16_t font_index = char_index * 5;
    
    i2c_start(SSD1306_ADDRESS);
    i2c_write(0x40);
    
    for (uint8_t i = 0; i < 5; i++) {
 78c:	c0 17       	cp	r28, r16
 78e:	d1 07       	cpc	r29, r17
 790:	b1 f7       	brne	.-20     	; 0x77e <ssd1306_print_char+0x190>
        i2c_write(pgm_read_byte(&font_5x8[font_index + i]));
    }
    
    i2c_write(0x00);
 792:	80 e0       	ldi	r24, 0x00	; 0
 794:	0e 94 30 02 	call	0x460	; 0x460 <i2c_write>
    i2c_stop();
 798:	0e 94 28 02 	call	0x450	; 0x450 <i2c_stop>
}
 79c:	df 91       	pop	r29
 79e:	cf 91       	pop	r28
 7a0:	1f 91       	pop	r17
 7a2:	0f 91       	pop	r16
 7a4:	08 95       	ret

000007a6 <ssd1306_print_string>:

void ssd1306_print_string(const char* str) {
 7a6:	ef 92       	push	r14
 7a8:	ff 92       	push	r15
 7aa:	cf 93       	push	r28
 7ac:	df 93       	push	r29
 7ae:	e8 2e       	mov	r14, r24
 7b0:	e7 01       	movw	r28, r14
 7b2:	7e 01       	movw	r14, r28
 7b4:	f9 2e       	mov	r15, r25
 7b6:	e7 01       	movw	r28, r14
    while (*str) {
 7b8:	02 c0       	rjmp	.+4      	; 0x7be <ssd1306_print_string+0x18>
        ssd1306_print_char(*str++);
 7ba:	0e 94 f7 02 	call	0x5ee	; 0x5ee <ssd1306_print_char>
    i2c_write(0x00);
    i2c_stop();
}

void ssd1306_print_string(const char* str) {
    while (*str) {
 7be:	89 91       	ld	r24, Y+
 7c0:	88 23       	and	r24, r24
 7c2:	d9 f7       	brne	.-10     	; 0x7ba <ssd1306_print_string+0x14>
        ssd1306_print_char(*str++);
    }
}
 7c4:	df 91       	pop	r29
 7c6:	cf 91       	pop	r28
 7c8:	ff 90       	pop	r15
 7ca:	ef 90       	pop	r14
 7cc:	08 95       	ret

000007ce <ssd1306_test_chars>:

void ssd1306_test_chars(void) {
    ssd1306_clear();
 7ce:	0e 94 d7 02 	call	0x5ae	; 0x5ae <ssd1306_clear>
    
    ssd1306_set_cursor(0, 0);
 7d2:	80 e0       	ldi	r24, 0x00	; 0
 7d4:	60 e0       	ldi	r22, 0x00	; 0
 7d6:	0e 94 c0 02 	call	0x580	; 0x580 <ssd1306_set_cursor>
    ssd1306_print_string("0123456789");
 7da:	80 e0       	ldi	r24, 0x00	; 0
 7dc:	91 e0       	ldi	r25, 0x01	; 1
 7de:	0e 94 d3 03 	call	0x7a6	; 0x7a6 <ssd1306_print_string>
    
    ssd1306_set_cursor(2, 0);
 7e2:	82 e0       	ldi	r24, 0x02	; 2
 7e4:	60 e0       	ldi	r22, 0x00	; 0
 7e6:	0e 94 c0 02 	call	0x580	; 0x580 <ssd1306_set_cursor>
    ssd1306_print_string("ABCDEFGHIJKLM");
 7ea:	8b e0       	ldi	r24, 0x0B	; 11
 7ec:	91 e0       	ldi	r25, 0x01	; 1
 7ee:	0e 94 d3 03 	call	0x7a6	; 0x7a6 <ssd1306_print_string>
    
    ssd1306_set_cursor(4, 0);
 7f2:	84 e0       	ldi	r24, 0x04	; 4
 7f4:	60 e0       	ldi	r22, 0x00	; 0
 7f6:	0e 94 c0 02 	call	0x580	; 0x580 <ssd1306_set_cursor>
    ssd1306_print_string("NOPQRSTUVWXYZ");
 7fa:	89 e1       	ldi	r24, 0x19	; 25
 7fc:	91 e0       	ldi	r25, 0x01	; 1
 7fe:	0e 94 d3 03 	call	0x7a6	; 0x7a6 <ssd1306_print_string>
    
    ssd1306_set_cursor(6, 0);
 802:	86 e0       	ldi	r24, 0x06	; 6
 804:	60 e0       	ldi	r22, 0x00	; 0
 806:	0e 94 c0 02 	call	0x580	; 0x580 <ssd1306_set_cursor>
    ssd1306_print_string("TEST WY");
 80a:	87 e2       	ldi	r24, 0x27	; 39
 80c:	91 e0       	ldi	r25, 0x01	; 1
 80e:	0e 94 d3 03 	call	0x7a6	; 0x7a6 <ssd1306_print_string>
 812:	08 95       	ret

00000814 <simDisplay.clone.0>:
#include "../log.h"
#include "../display/ssd1306.h"

char uart_buffer[SMS_BUFFER_SIZE];

void simDisplay(const int row, const char * buffer)
 814:	cf 93       	push	r28
 816:	df 93       	push	r29
 818:	ec 01       	movw	r28, r24
{
    ssd1306_clear();
 81a:	0e 94 d7 02 	call	0x5ae	; 0x5ae <ssd1306_clear>
 81e:	8f ef       	ldi	r24, 0xFF	; 255
 820:	99 ef       	ldi	r25, 0xF9	; 249
 822:	a0 e0       	ldi	r26, 0x00	; 0
 824:	81 50       	subi	r24, 0x01	; 1
 826:	90 40       	sbci	r25, 0x00	; 0
 828:	a0 40       	sbci	r26, 0x00	; 0
 82a:	e1 f7       	brne	.-8      	; 0x824 <simDisplay.clone.0+0x10>
 82c:	00 c0       	rjmp	.+0      	; 0x82e <simDisplay.clone.0+0x1a>
 82e:	00 00       	nop
    _delay_ms(20);
    ssd1306_set_cursor(row, 10);
 830:	82 e0       	ldi	r24, 0x02	; 2
 832:	6a e0       	ldi	r22, 0x0A	; 10
 834:	0e 94 c0 02 	call	0x580	; 0x580 <ssd1306_set_cursor>
    ssd1306_print_string(buffer);
 838:	ce 01       	movw	r24, r28
 83a:	0e 94 d3 03 	call	0x7a6	; 0x7a6 <ssd1306_print_string>
 83e:	8f ef       	ldi	r24, 0xFF	; 255
 840:	97 ea       	ldi	r25, 0xA7	; 167
 842:	a1 e6       	ldi	r26, 0x61	; 97
 844:	81 50       	subi	r24, 0x01	; 1
 846:	90 40       	sbci	r25, 0x00	; 0
 848:	a0 40       	sbci	r26, 0x00	; 0
 84a:	e1 f7       	brne	.-8      	; 0x844 <simDisplay.clone.0+0x30>
 84c:	00 c0       	rjmp	.+0      	; 0x84e <simDisplay.clone.0+0x3a>
 84e:	00 00       	nop
    _delay_ms(2000);
}
 850:	df 91       	pop	r29
 852:	cf 91       	pop	r28
 854:	08 95       	ret

00000856 <simDisplay>:
#include "../display/ssd1306.h"

char uart_buffer[SMS_BUFFER_SIZE];

void simDisplay(const int row, const char * buffer)
{
 856:	0f 93       	push	r16
 858:	1f 93       	push	r17
 85a:	df 93       	push	r29
 85c:	cf 93       	push	r28
 85e:	0f 92       	push	r0
 860:	cd b7       	in	r28, 0x3d	; 61
 862:	de b7       	in	r29, 0x3e	; 62
 864:	8b 01       	movw	r16, r22
    ssd1306_clear();
 866:	89 83       	std	Y+1, r24	; 0x01
 868:	0e 94 d7 02 	call	0x5ae	; 0x5ae <ssd1306_clear>
 86c:	2f ef       	ldi	r18, 0xFF	; 255
 86e:	39 ef       	ldi	r19, 0xF9	; 249
 870:	40 e0       	ldi	r20, 0x00	; 0
 872:	21 50       	subi	r18, 0x01	; 1
 874:	30 40       	sbci	r19, 0x00	; 0
 876:	40 40       	sbci	r20, 0x00	; 0
 878:	e1 f7       	brne	.-8      	; 0x872 <simDisplay+0x1c>
 87a:	00 c0       	rjmp	.+0      	; 0x87c <simDisplay+0x26>
 87c:	00 00       	nop
    _delay_ms(20);
    ssd1306_set_cursor(row, 10);
 87e:	89 81       	ldd	r24, Y+1	; 0x01
 880:	6a e0       	ldi	r22, 0x0A	; 10
 882:	0e 94 c0 02 	call	0x580	; 0x580 <ssd1306_set_cursor>
    ssd1306_print_string(buffer);
 886:	c8 01       	movw	r24, r16
 888:	0e 94 d3 03 	call	0x7a6	; 0x7a6 <ssd1306_print_string>
 88c:	8f ef       	ldi	r24, 0xFF	; 255
 88e:	97 ea       	ldi	r25, 0xA7	; 167
 890:	a1 e6       	ldi	r26, 0x61	; 97
 892:	81 50       	subi	r24, 0x01	; 1
 894:	90 40       	sbci	r25, 0x00	; 0
 896:	a0 40       	sbci	r26, 0x00	; 0
 898:	e1 f7       	brne	.-8      	; 0x892 <simDisplay+0x3c>
 89a:	00 c0       	rjmp	.+0      	; 0x89c <simDisplay+0x46>
 89c:	00 00       	nop
    _delay_ms(2000);
}
 89e:	0f 90       	pop	r0
 8a0:	cf 91       	pop	r28
 8a2:	df 91       	pop	r29
 8a4:	1f 91       	pop	r17
 8a6:	0f 91       	pop	r16
 8a8:	08 95       	ret

000008aa <UART_SendString>:

void UART_SendString(const char* str) {
 8aa:	28 2f       	mov	r18, r24
 8ac:	39 2f       	mov	r19, r25
 8ae:	f9 01       	movw	r30, r18
    while (*str) {
 8b0:	06 c0       	rjmp	.+12     	; 0x8be <UART_SendString+0x14>
        while (!(UCSR0A & (1 << UDRE0)));
 8b2:	90 91 c0 00 	lds	r25, 0x00C0
 8b6:	95 ff       	sbrs	r25, 5
 8b8:	fc cf       	rjmp	.-8      	; 0x8b2 <UART_SendString+0x8>
        UDR0 = *str++;
 8ba:	80 93 c6 00 	sts	0x00C6, r24
    ssd1306_print_string(buffer);
    _delay_ms(2000);
}

void UART_SendString(const char* str) {
    while (*str) {
 8be:	81 91       	ld	r24, Z+
 8c0:	88 23       	and	r24, r24
 8c2:	b9 f7       	brne	.-18     	; 0x8b2 <UART_SendString+0x8>
        while (!(UCSR0A & (1 << UDRE0)));
        UDR0 = *str++;
    }
}
 8c4:	08 95       	ret

000008c6 <UART_Receive>:

char UART_Receive(void) {
    simDisplay(2,"idk im stuck");
 8c6:	8f e2       	ldi	r24, 0x2F	; 47
 8c8:	91 e0       	ldi	r25, 0x01	; 1
 8ca:	0e 94 0a 04 	call	0x814	; 0x814 <simDisplay.clone.0>
    while (!(UCSR0A & (1 << RXC0)));
 8ce:	80 91 c0 00 	lds	r24, 0x00C0
 8d2:	87 ff       	sbrs	r24, 7
 8d4:	fc cf       	rjmp	.-8      	; 0x8ce <UART_Receive+0x8>
    return UDR0;
 8d6:	80 91 c6 00 	lds	r24, 0x00C6
}
 8da:	08 95       	ret

000008dc <SIM800_Init>:

void SIM800_Init(void) {
    UBRR0H = 0;
 8dc:	10 92 c5 00 	sts	0x00C5, r1
    UBRR0L = 103;
 8e0:	87 e6       	ldi	r24, 0x67	; 103
 8e2:	80 93 c4 00 	sts	0x00C4, r24
    UCSR0B = (1 << RXEN0) | (1 << TXEN0);
 8e6:	88 e1       	ldi	r24, 0x18	; 24
 8e8:	80 93 c1 00 	sts	0x00C1, r24
    UCSR0C = (1 << UCSZ01) | (1 << UCSZ00);
 8ec:	86 e0       	ldi	r24, 0x06	; 6
 8ee:	80 93 c2 00 	sts	0x00C2, r24
 8f2:	8f ef       	ldi	r24, 0xFF	; 255
 8f4:	93 e2       	ldi	r25, 0x23	; 35
 8f6:	a4 ef       	ldi	r26, 0xF4	; 244
 8f8:	81 50       	subi	r24, 0x01	; 1
 8fa:	90 40       	sbci	r25, 0x00	; 0
 8fc:	a0 40       	sbci	r26, 0x00	; 0
 8fe:	e1 f7       	brne	.-8      	; 0x8f8 <SIM800_Init+0x1c>
 900:	00 c0       	rjmp	.+0      	; 0x902 <__stack+0x3>
 902:	00 00       	nop
    
    _delay_ms(5000); // Увеличил до 5 сек
    
    // Проверяем связь
    UART_SendString("AT\r\n");
 904:	8c e3       	ldi	r24, 0x3C	; 60
 906:	91 e0       	ldi	r25, 0x01	; 1
 908:	0e 94 55 04 	call	0x8aa	; 0x8aa <UART_SendString>
 90c:	8f ef       	ldi	r24, 0xFF	; 255
 90e:	97 ea       	ldi	r25, 0xA7	; 167
 910:	a1 e6       	ldi	r26, 0x61	; 97
 912:	81 50       	subi	r24, 0x01	; 1
 914:	90 40       	sbci	r25, 0x00	; 0
 916:	a0 40       	sbci	r26, 0x00	; 0
 918:	e1 f7       	brne	.-8      	; 0x912 <__stack+0x13>
 91a:	00 c0       	rjmp	.+0      	; 0x91c <__stack+0x1d>
 91c:	00 00       	nop
    _delay_ms(2000);
    
    // Ждем регистрации в сети
    UART_SendString("AT+CREG?\r\n");
 91e:	81 e4       	ldi	r24, 0x41	; 65
 920:	91 e0       	ldi	r25, 0x01	; 1
 922:	0e 94 55 04 	call	0x8aa	; 0x8aa <UART_SendString>
 926:	8f ef       	ldi	r24, 0xFF	; 255
 928:	9b e7       	ldi	r25, 0x7B	; 123
 92a:	a2 e9       	ldi	r26, 0x92	; 146
 92c:	81 50       	subi	r24, 0x01	; 1
 92e:	90 40       	sbci	r25, 0x00	; 0
 930:	a0 40       	sbci	r26, 0x00	; 0
 932:	e1 f7       	brne	.-8      	; 0x92c <__stack+0x2d>
 934:	00 c0       	rjmp	.+0      	; 0x936 <__stack+0x37>
 936:	00 00       	nop
    _delay_ms(3000);
    
    // Проверяем уровень сигнала
    UART_SendString("AT+CSQ\r\n");
 938:	8c e4       	ldi	r24, 0x4C	; 76
 93a:	91 e0       	ldi	r25, 0x01	; 1
 93c:	0e 94 55 04 	call	0x8aa	; 0x8aa <UART_SendString>
 940:	8f ef       	ldi	r24, 0xFF	; 255
 942:	97 ea       	ldi	r25, 0xA7	; 167
 944:	a1 e6       	ldi	r26, 0x61	; 97
 946:	81 50       	subi	r24, 0x01	; 1
 948:	90 40       	sbci	r25, 0x00	; 0
 94a:	a0 40       	sbci	r26, 0x00	; 0
 94c:	e1 f7       	brne	.-8      	; 0x946 <__stack+0x47>
 94e:	00 c0       	rjmp	.+0      	; 0x950 <__stack+0x51>
 950:	00 00       	nop
    _delay_ms(2000);
    
    UART_SendString("AT+CMGF=1\r\n");
 952:	85 e5       	ldi	r24, 0x55	; 85
 954:	91 e0       	ldi	r25, 0x01	; 1
 956:	0e 94 55 04 	call	0x8aa	; 0x8aa <UART_SendString>
 95a:	8f ef       	ldi	r24, 0xFF	; 255
 95c:	93 ed       	ldi	r25, 0xD3	; 211
 95e:	a0 e3       	ldi	r26, 0x30	; 48
 960:	81 50       	subi	r24, 0x01	; 1
 962:	90 40       	sbci	r25, 0x00	; 0
 964:	a0 40       	sbci	r26, 0x00	; 0
 966:	e1 f7       	brne	.-8      	; 0x960 <__stack+0x61>
 968:	00 c0       	rjmp	.+0      	; 0x96a <__stack+0x6b>
 96a:	00 00       	nop
    _delay_ms(1000);

    UART_SendString("AT+CBC\r\n");
 96c:	81 e6       	ldi	r24, 0x61	; 97
 96e:	91 e0       	ldi	r25, 0x01	; 1
 970:	0e 94 55 04 	call	0x8aa	; 0x8aa <UART_SendString>
 974:	8f ef       	ldi	r24, 0xFF	; 255
 976:	9b e7       	ldi	r25, 0x7B	; 123
 978:	a2 e9       	ldi	r26, 0x92	; 146
 97a:	81 50       	subi	r24, 0x01	; 1
 97c:	90 40       	sbci	r25, 0x00	; 0
 97e:	a0 40       	sbci	r26, 0x00	; 0
 980:	e1 f7       	brne	.-8      	; 0x97a <__stack+0x7b>
 982:	00 c0       	rjmp	.+0      	; 0x984 <__stack+0x85>
 984:	00 00       	nop
    _delay_ms(3000);
}
 986:	08 95       	ret

00000988 <SIM800_ReadCommandMessage>:
bool SIM800_ReadCommandMessage(char* message) {
 988:	ef 92       	push	r14
 98a:	ff 92       	push	r15
 98c:	0f 93       	push	r16
 98e:	1f 93       	push	r17
 990:	cf 93       	push	r28
 992:	df 93       	push	r29
 994:	7c 01       	movw	r14, r24
    memset(uart_buffer, 0, SMS_BUFFER_SIZE);
 996:	ec eb       	ldi	r30, 0xBC	; 188
 998:	f1 e0       	ldi	r31, 0x01	; 1
 99a:	80 ea       	ldi	r24, 0xA0	; 160
 99c:	df 01       	movw	r26, r30
 99e:	1d 92       	st	X+, r1
 9a0:	8a 95       	dec	r24
 9a2:	e9 f7       	brne	.-6      	; 0x99e <SIM800_ReadCommandMessage+0x16>
 9a4:	8f 01       	movw	r16, r30
    _delay_ms(1000);

    UART_SendString("AT+CBC\r\n");
    _delay_ms(3000);
}
bool SIM800_ReadCommandMessage(char* message) {
 9a6:	ef 01       	movw	r28, r30
    memset(uart_buffer, 0, SMS_BUFFER_SIZE);

    uint16_t j = 0;
    while (j < SMS_BUFFER_SIZE - 1) {
        uart_buffer[j] = UART_Receive();
 9a8:	0e 94 63 04 	call	0x8c6	; 0x8c6 <UART_Receive>
 9ac:	89 93       	st	Y+, r24
        
        simDisplay(2, "recieving");
 9ae:	8a e6       	ldi	r24, 0x6A	; 106
 9b0:	91 e0       	ldi	r25, 0x01	; 1
 9b2:	0e 94 0a 04 	call	0x814	; 0x814 <simDisplay.clone.0>
        if (strstr(uart_buffer, "OK\r\n") != NULL){
 9b6:	8c eb       	ldi	r24, 0xBC	; 188
 9b8:	91 e0       	ldi	r25, 0x01	; 1
 9ba:	64 e7       	ldi	r22, 0x74	; 116
 9bc:	71 e0       	ldi	r23, 0x01	; 1
 9be:	0e 94 7e 05 	call	0xafc	; 0xafc <strstr>
 9c2:	00 97       	sbiw	r24, 0x00	; 0
 9c4:	29 f0       	breq	.+10     	; 0x9d0 <SIM800_ReadCommandMessage+0x48>
            simDisplay(2, "ok");
 9c6:	89 e7       	ldi	r24, 0x79	; 121
 9c8:	91 e0       	ldi	r25, 0x01	; 1
 9ca:	0e 94 0a 04 	call	0x814	; 0x814 <simDisplay.clone.0>
            break;
 9ce:	08 c0       	rjmp	.+16     	; 0x9e0 <SIM800_ReadCommandMessage+0x58>
        }
        simDisplay(2, uart_buffer);
 9d0:	8c eb       	ldi	r24, 0xBC	; 188
 9d2:	91 e0       	ldi	r25, 0x01	; 1
 9d4:	0e 94 0a 04 	call	0x814	; 0x814 <simDisplay.clone.0>
}
bool SIM800_ReadCommandMessage(char* message) {
    memset(uart_buffer, 0, SMS_BUFFER_SIZE);

    uint16_t j = 0;
    while (j < SMS_BUFFER_SIZE - 1) {
 9d8:	b2 e0       	ldi	r27, 0x02	; 2
 9da:	cb 35       	cpi	r28, 0x5B	; 91
 9dc:	db 07       	cpc	r29, r27
 9de:	21 f7       	brne	.-56     	; 0x9a8 <SIM800_ReadCommandMessage+0x20>
        }
        simDisplay(2, uart_buffer);
        j++;
    }

    simDisplay(2,"start sending");
 9e0:	8c e7       	ldi	r24, 0x7C	; 124
 9e2:	91 e0       	ldi	r25, 0x01	; 1
 9e4:	0e 94 0a 04 	call	0x814	; 0x814 <simDisplay.clone.0>
    UART_SendString("AT+CMGL=\"ALL\"\r\n");
 9e8:	8a e8       	ldi	r24, 0x8A	; 138
 9ea:	91 e0       	ldi	r25, 0x01	; 1
 9ec:	0e 94 55 04 	call	0x8aa	; 0x8aa <UART_SendString>
 9f0:	8f ef       	ldi	r24, 0xFF	; 255
 9f2:	9b e7       	ldi	r25, 0x7B	; 123
 9f4:	a2 e9       	ldi	r26, 0x92	; 146
 9f6:	81 50       	subi	r24, 0x01	; 1
 9f8:	90 40       	sbci	r25, 0x00	; 0
 9fa:	a0 40       	sbci	r26, 0x00	; 0
 9fc:	e1 f7       	brne	.-8      	; 0x9f6 <SIM800_ReadCommandMessage+0x6e>
 9fe:	00 c0       	rjmp	.+0      	; 0xa00 <SIM800_ReadCommandMessage+0x78>
 a00:	00 00       	nop
    _delay_ms(3000);
    simDisplay(2,"start reading");
 a02:	8a e9       	ldi	r24, 0x9A	; 154
 a04:	91 e0       	ldi	r25, 0x01	; 1
 a06:	0e 94 0a 04 	call	0x814	; 0x814 <simDisplay.clone.0>
    // Читаем ответ от модуля
    uint16_t i = 0;
 a0a:	c0 e0       	ldi	r28, 0x00	; 0
 a0c:	d0 e0       	ldi	r29, 0x00	; 0
    while (i < SMS_BUFFER_SIZE - 1) {
        uart_buffer[i] = UART_Receive();
 a0e:	0e 94 63 04 	call	0x8c6	; 0x8c6 <UART_Receive>
 a12:	d8 01       	movw	r26, r16
 a14:	8d 93       	st	X+, r24
 a16:	8d 01       	movw	r16, r26
        
        simDisplay(2, "recieving");
 a18:	8a e6       	ldi	r24, 0x6A	; 106
 a1a:	91 e0       	ldi	r25, 0x01	; 1
 a1c:	0e 94 0a 04 	call	0x814	; 0x814 <simDisplay.clone.0>
        if (strstr(uart_buffer, "OK\r\n") != NULL){
 a20:	8c eb       	ldi	r24, 0xBC	; 188
 a22:	91 e0       	ldi	r25, 0x01	; 1
 a24:	64 e7       	ldi	r22, 0x74	; 116
 a26:	71 e0       	ldi	r23, 0x01	; 1
 a28:	0e 94 7e 05 	call	0xafc	; 0xafc <strstr>
 a2c:	00 97       	sbiw	r24, 0x00	; 0
 a2e:	29 f0       	breq	.+10     	; 0xa3a <SIM800_ReadCommandMessage+0xb2>
            simDisplay(2, "not ok");
 a30:	88 ea       	ldi	r24, 0xA8	; 168
 a32:	91 e0       	ldi	r25, 0x01	; 1
 a34:	0e 94 0a 04 	call	0x814	; 0x814 <simDisplay.clone.0>
            break;
 a38:	08 c0       	rjmp	.+16     	; 0xa4a <SIM800_ReadCommandMessage+0xc2>
        }
        simDisplay(2, uart_buffer);
 a3a:	8c eb       	ldi	r24, 0xBC	; 188
 a3c:	91 e0       	ldi	r25, 0x01	; 1
 a3e:	0e 94 0a 04 	call	0x814	; 0x814 <simDisplay.clone.0>
        i++;
 a42:	21 96       	adiw	r28, 0x01	; 1
    UART_SendString("AT+CMGL=\"ALL\"\r\n");
    _delay_ms(3000);
    simDisplay(2,"start reading");
    // Читаем ответ от модуля
    uint16_t i = 0;
    while (i < SMS_BUFFER_SIZE - 1) {
 a44:	cf 39       	cpi	r28, 0x9F	; 159
 a46:	d1 05       	cpc	r29, r1
 a48:	11 f7       	brne	.-60     	; 0xa0e <SIM800_ReadCommandMessage+0x86>
            break;
        }
        simDisplay(2, uart_buffer);
        i++;
    }
    uart_buffer[i] = '\0';
 a4a:	c4 54       	subi	r28, 0x44	; 68
 a4c:	de 4f       	sbci	r29, 0xFE	; 254
 a4e:	18 82       	st	Y, r1
    simDisplay(2, "Fine");
 a50:	8f ea       	ldi	r24, 0xAF	; 175
 a52:	91 e0       	ldi	r25, 0x01	; 1
 a54:	0e 94 0a 04 	call	0x814	; 0x814 <simDisplay.clone.0>
    // Ищем сообщение формата #XX:YYY
    char* msg_start = uart_buffer;
 a58:	0c eb       	ldi	r16, 0xBC	; 188
 a5a:	11 e0       	ldi	r17, 0x01	; 1
    while ((msg_start = strstr(msg_start, "\r\n#")) != NULL) {
 a5c:	24 c0       	rjmp	.+72     	; 0xaa6 <SIM800_ReadCommandMessage+0x11e>
        msg_start += 2; // Пропускаем \r\n
 a5e:	8c 01       	movw	r16, r24
 a60:	0e 5f       	subi	r16, 0xFE	; 254
 a62:	1f 4f       	sbci	r17, 0xFF	; 255
        simDisplay(2, "1");
 a64:	84 eb       	ldi	r24, 0xB4	; 180
 a66:	91 e0       	ldi	r25, 0x01	; 1
 a68:	0e 94 0a 04 	call	0x814	; 0x814 <simDisplay.clone.0>
        char* msg_end = strchr(msg_start, '\r');
 a6c:	c8 01       	movw	r24, r16
 a6e:	6d e0       	ldi	r22, 0x0D	; 13
 a70:	70 e0       	ldi	r23, 0x00	; 0
 a72:	0e 94 64 05 	call	0xac8	; 0xac8 <strchr>
 a76:	ec 01       	movw	r28, r24
        if (msg_end) {
 a78:	00 97       	sbiw	r24, 0x00	; 0
 a7a:	a9 f0       	breq	.+42     	; 0xaa6 <SIM800_ReadCommandMessage+0x11e>
            simDisplay(2, "2");
 a7c:	86 eb       	ldi	r24, 0xB6	; 182
 a7e:	91 e0       	ldi	r25, 0x01	; 1
 a80:	0e 94 0a 04 	call	0x814	; 0x814 <simDisplay.clone.0>
            strncpy(message, msg_start, msg_end - msg_start);
 a84:	c0 1b       	sub	r28, r16
 a86:	d1 0b       	sbc	r29, r17
 a88:	c7 01       	movw	r24, r14
 a8a:	b8 01       	movw	r22, r16
 a8c:	ae 01       	movw	r20, r28
 a8e:	0e 94 6f 05 	call	0xade	; 0xade <strncpy>
            message[msg_end - msg_start] = '\0';
 a92:	ce 0d       	add	r28, r14
 a94:	df 1d       	adc	r29, r15
 a96:	18 82       	st	Y, r1
            
            if (strchr(message, ':') != NULL) {
 a98:	c7 01       	movw	r24, r14
 a9a:	6a e3       	ldi	r22, 0x3A	; 58
 a9c:	70 e0       	ldi	r23, 0x00	; 0
 a9e:	0e 94 64 05 	call	0xac8	; 0xac8 <strchr>
 aa2:	00 97       	sbiw	r24, 0x00	; 0
 aa4:	49 f4       	brne	.+18     	; 0xab8 <SIM800_ReadCommandMessage+0x130>
    }
    uart_buffer[i] = '\0';
    simDisplay(2, "Fine");
    // Ищем сообщение формата #XX:YYY
    char* msg_start = uart_buffer;
    while ((msg_start = strstr(msg_start, "\r\n#")) != NULL) {
 aa6:	c8 01       	movw	r24, r16
 aa8:	68 eb       	ldi	r22, 0xB8	; 184
 aaa:	71 e0       	ldi	r23, 0x01	; 1
 aac:	0e 94 7e 05 	call	0xafc	; 0xafc <strstr>
 ab0:	00 97       	sbiw	r24, 0x00	; 0
 ab2:	a9 f6       	brne	.-86     	; 0xa5e <SIM800_ReadCommandMessage+0xd6>
                return true;
            }
        }
    }
    
    return false;
 ab4:	80 e0       	ldi	r24, 0x00	; 0
 ab6:	01 c0       	rjmp	.+2      	; 0xaba <SIM800_ReadCommandMessage+0x132>
            simDisplay(2, "2");
            strncpy(message, msg_start, msg_end - msg_start);
            message[msg_end - msg_start] = '\0';
            
            if (strchr(message, ':') != NULL) {
                return true;
 ab8:	81 e0       	ldi	r24, 0x01	; 1
            }
        }
    }
    
    return false;
 aba:	df 91       	pop	r29
 abc:	cf 91       	pop	r28
 abe:	1f 91       	pop	r17
 ac0:	0f 91       	pop	r16
 ac2:	ff 90       	pop	r15
 ac4:	ef 90       	pop	r14
 ac6:	08 95       	ret

00000ac8 <strchr>:
 ac8:	fc 01       	movw	r30, r24
 aca:	81 91       	ld	r24, Z+
 acc:	86 17       	cp	r24, r22
 ace:	21 f0       	breq	.+8      	; 0xad8 <strchr+0x10>
 ad0:	88 23       	and	r24, r24
 ad2:	d9 f7       	brne	.-10     	; 0xaca <strchr+0x2>
 ad4:	99 27       	eor	r25, r25
 ad6:	08 95       	ret
 ad8:	31 97       	sbiw	r30, 0x01	; 1
 ada:	cf 01       	movw	r24, r30
 adc:	08 95       	ret

00000ade <strncpy>:
 ade:	fb 01       	movw	r30, r22
 ae0:	dc 01       	movw	r26, r24
 ae2:	41 50       	subi	r20, 0x01	; 1
 ae4:	50 40       	sbci	r21, 0x00	; 0
 ae6:	48 f0       	brcs	.+18     	; 0xafa <strncpy+0x1c>
 ae8:	01 90       	ld	r0, Z+
 aea:	0d 92       	st	X+, r0
 aec:	00 20       	and	r0, r0
 aee:	c9 f7       	brne	.-14     	; 0xae2 <strncpy+0x4>
 af0:	01 c0       	rjmp	.+2      	; 0xaf4 <strncpy+0x16>
 af2:	1d 92       	st	X+, r1
 af4:	41 50       	subi	r20, 0x01	; 1
 af6:	50 40       	sbci	r21, 0x00	; 0
 af8:	e0 f7       	brcc	.-8      	; 0xaf2 <strncpy+0x14>
 afa:	08 95       	ret

00000afc <strstr>:
 afc:	fb 01       	movw	r30, r22
 afe:	51 91       	ld	r21, Z+
 b00:	55 23       	and	r21, r21
 b02:	a9 f0       	breq	.+42     	; 0xb2e <strstr+0x32>
 b04:	bf 01       	movw	r22, r30
 b06:	dc 01       	movw	r26, r24
 b08:	4d 91       	ld	r20, X+
 b0a:	45 17       	cp	r20, r21
 b0c:	41 11       	cpse	r20, r1
 b0e:	e1 f7       	brne	.-8      	; 0xb08 <strstr+0xc>
 b10:	59 f4       	brne	.+22     	; 0xb28 <strstr+0x2c>
 b12:	cd 01       	movw	r24, r26
 b14:	01 90       	ld	r0, Z+
 b16:	00 20       	and	r0, r0
 b18:	49 f0       	breq	.+18     	; 0xb2c <strstr+0x30>
 b1a:	4d 91       	ld	r20, X+
 b1c:	40 15       	cp	r20, r0
 b1e:	41 11       	cpse	r20, r1
 b20:	c9 f3       	breq	.-14     	; 0xb14 <strstr+0x18>
 b22:	fb 01       	movw	r30, r22
 b24:	41 11       	cpse	r20, r1
 b26:	ef cf       	rjmp	.-34     	; 0xb06 <strstr+0xa>
 b28:	81 e0       	ldi	r24, 0x01	; 1
 b2a:	90 e0       	ldi	r25, 0x00	; 0
 b2c:	01 97       	sbiw	r24, 0x01	; 1
 b2e:	08 95       	ret

00000b30 <_exit>:
 b30:	f8 94       	cli

00000b32 <__stop_program>:
 b32:	ff cf       	rjmp	.-2      	; 0xb32 <__stop_program>
