
KursachV1.elf:     file format elf32-avr

Sections:
Idx Name          Size      VMA       LMA       File off  Algn
  0 .data         00000052  00800100  000043a8  0000443c  2**0
                  CONTENTS, ALLOC, LOAD, DATA
  1 .text         000043a8  00000000  00000000  00000094  2**1
                  CONTENTS, ALLOC, LOAD, READONLY, CODE
  2 .bss          00000205  00800152  00800152  0000448e  2**0
                  ALLOC
  3 .stab         0000090c  00000000  00000000  00004490  2**2
                  CONTENTS, READONLY, DEBUGGING
  4 .stabstr      00000267  00000000  00000000  00004d9c  2**0
                  CONTENTS, READONLY, DEBUGGING
  5 .debug_aranges 000000c0  00000000  00000000  00005003  2**0
                  CONTENTS, READONLY, DEBUGGING
  6 .debug_pubnames 00000323  00000000  00000000  000050c3  2**0
                  CONTENTS, READONLY, DEBUGGING
  7 .debug_info   000031cc  00000000  00000000  000053e6  2**0
                  CONTENTS, READONLY, DEBUGGING
  8 .debug_abbrev 00000a6a  00000000  00000000  000085b2  2**0
                  CONTENTS, READONLY, DEBUGGING
  9 .debug_line   00003318  00000000  00000000  0000901c  2**0
                  CONTENTS, READONLY, DEBUGGING
 10 .debug_frame  000004a0  00000000  00000000  0000c334  2**2
                  CONTENTS, READONLY, DEBUGGING
 11 .debug_str    00000873  00000000  00000000  0000c7d4  2**0
                  CONTENTS, READONLY, DEBUGGING
 12 .debug_loc    00004078  00000000  00000000  0000d047  2**0
                  CONTENTS, READONLY, DEBUGGING
 13 .debug_pubtypes 00000259  00000000  00000000  000110bf  2**0
                  CONTENTS, READONLY, DEBUGGING
 14 .debug_ranges 00000158  00000000  00000000  00011318  2**0
                  CONTENTS, READONLY, DEBUGGING

Disassembly of section .text:

00000000 <__vectors>:
       0:	0c 94 91 00 	jmp	0x122	; 0x122 <__ctors_end>
       4:	0c 94 ae 00 	jmp	0x15c	; 0x15c <__bad_interrupt>
       8:	0c 94 ae 00 	jmp	0x15c	; 0x15c <__bad_interrupt>
       c:	0c 94 ae 00 	jmp	0x15c	; 0x15c <__bad_interrupt>
      10:	0c 94 ae 00 	jmp	0x15c	; 0x15c <__bad_interrupt>
      14:	0c 94 ae 00 	jmp	0x15c	; 0x15c <__bad_interrupt>
      18:	0c 94 ae 00 	jmp	0x15c	; 0x15c <__bad_interrupt>
      1c:	0c 94 ae 00 	jmp	0x15c	; 0x15c <__bad_interrupt>
      20:	0c 94 ae 00 	jmp	0x15c	; 0x15c <__bad_interrupt>
      24:	0c 94 ae 00 	jmp	0x15c	; 0x15c <__bad_interrupt>
      28:	0c 94 ae 00 	jmp	0x15c	; 0x15c <__bad_interrupt>
      2c:	0c 94 ae 00 	jmp	0x15c	; 0x15c <__bad_interrupt>
      30:	0c 94 ae 00 	jmp	0x15c	; 0x15c <__bad_interrupt>
      34:	0c 94 ae 00 	jmp	0x15c	; 0x15c <__bad_interrupt>
      38:	0c 94 ae 00 	jmp	0x15c	; 0x15c <__bad_interrupt>
      3c:	0c 94 ae 00 	jmp	0x15c	; 0x15c <__bad_interrupt>
      40:	0c 94 ae 00 	jmp	0x15c	; 0x15c <__bad_interrupt>
      44:	0c 94 ae 00 	jmp	0x15c	; 0x15c <__bad_interrupt>
      48:	0c 94 ae 00 	jmp	0x15c	; 0x15c <__bad_interrupt>
      4c:	0c 94 ae 00 	jmp	0x15c	; 0x15c <__bad_interrupt>
      50:	0c 94 ae 00 	jmp	0x15c	; 0x15c <__bad_interrupt>
      54:	0c 94 ae 00 	jmp	0x15c	; 0x15c <__bad_interrupt>
      58:	0c 94 ae 00 	jmp	0x15c	; 0x15c <__bad_interrupt>
      5c:	0c 94 ae 00 	jmp	0x15c	; 0x15c <__bad_interrupt>
      60:	0c 94 ae 00 	jmp	0x15c	; 0x15c <__bad_interrupt>
      64:	0c 94 ae 00 	jmp	0x15c	; 0x15c <__bad_interrupt>

00000068 <font_5x8>:
      68:	00 00 00 00 00 3e 51 49 45 3e 00 42 7f 40 00 42     .....>QIE>.B.@.B
      78:	61 51 49 46 21 41 45 4b 31 18 14 12 7f 10 27 45     aQIF!AEK1.....'E
      88:	45 45 39 3c 4a 49 49 30 01 71 09 05 03 36 49 49     EE9<JII0.q...6II
      98:	49 36 06 49 49 29 1e 7c 12 11 12 7c 7f 49 49 49     I6.II).|...|.III
      a8:	36 3e 41 41 41 22 7f 41 41 22 1c 7f 49 49 49 41     6>AAA".AA"..IIIA
      b8:	7f 09 09 09 01 3e 41 49 49 7a 7f 08 08 08 7f 00     .....>AIIz......
      c8:	41 7f 41 00 20 40 41 3f 01 7f 08 14 22 41 7f 40     A.A. @A?...."A.@
      d8:	40 40 40 7f 02 0c 02 7f 7f 04 08 10 7f 3e 41 41     @@@..........>AA
      e8:	41 3e 7f 09 09 09 06 3e 41 51 21 5e 7f 09 19 29     A>.....>AQ!^...)
      f8:	46 46 49 49 49 31 01 01 7f 01 01 3f 40 40 40 3f     FFIII1.....?@@@?
     108:	1f 20 40 20 1f 3f 40 38 40 3f 63 14 08 14 63 07     . @ .?@8@?c...c.
     118:	08 70 08 07 61 51 49 45 43 00                       .p..aQIEC.

00000122 <__ctors_end>:
     122:	11 24       	eor	r1, r1
     124:	1f be       	out	0x3f, r1	; 63
     126:	cf ef       	ldi	r28, 0xFF	; 255
     128:	d8 e0       	ldi	r29, 0x08	; 8
     12a:	de bf       	out	0x3e, r29	; 62
     12c:	cd bf       	out	0x3d, r28	; 61

0000012e <__do_copy_data>:
     12e:	11 e0       	ldi	r17, 0x01	; 1
     130:	a0 e0       	ldi	r26, 0x00	; 0
     132:	b1 e0       	ldi	r27, 0x01	; 1
     134:	e8 ea       	ldi	r30, 0xA8	; 168
     136:	f3 e4       	ldi	r31, 0x43	; 67
     138:	02 c0       	rjmp	.+4      	; 0x13e <__do_copy_data+0x10>
     13a:	05 90       	lpm	r0, Z+
     13c:	0d 92       	st	X+, r0
     13e:	a2 35       	cpi	r26, 0x52	; 82
     140:	b1 07       	cpc	r27, r17
     142:	d9 f7       	brne	.-10     	; 0x13a <__do_copy_data+0xc>

00000144 <__do_clear_bss>:
     144:	13 e0       	ldi	r17, 0x03	; 3
     146:	a2 e5       	ldi	r26, 0x52	; 82
     148:	b1 e0       	ldi	r27, 0x01	; 1
     14a:	01 c0       	rjmp	.+2      	; 0x14e <.do_clear_bss_start>

0000014c <.do_clear_bss_loop>:
     14c:	1d 92       	st	X+, r1

0000014e <.do_clear_bss_start>:
     14e:	a7 35       	cpi	r26, 0x57	; 87
     150:	b1 07       	cpc	r27, r17
     152:	e1 f7       	brne	.-8      	; 0x14c <.do_clear_bss_loop>
     154:	0e 94 42 02 	call	0x484	; 0x484 <main>
     158:	0c 94 d2 21 	jmp	0x43a4	; 0x43a4 <_exit>

0000015c <__bad_interrupt>:
     15c:	0c 94 00 00 	jmp	0	; 0x0 <__vectors>

00000160 <sd_append>:
#include <stdio.h>
#include "display/i2c_config.h"
#include "display/ssd1306.h"

int sd_append( const char * filename, const char * text )
{
     160:	ef 92       	push	r14
     162:	ff 92       	push	r15
     164:	0f 93       	push	r16
     166:	1f 93       	push	r17
     168:	df 93       	push	r29
     16a:	cf 93       	push	r28
     16c:	cd b7       	in	r28, 0x3d	; 61
     16e:	de b7       	in	r29, 0x3e	; 62
     170:	c4 55       	subi	r28, 0x54	; 84
     172:	d4 40       	sbci	r29, 0x04	; 4
     174:	0f b6       	in	r0, 0x3f	; 63
     176:	f8 94       	cli
     178:	de bf       	out	0x3e, r29	; 62
     17a:	0f be       	out	0x3f, r0	; 63
     17c:	cd bf       	out	0x3d, r28	; 61
     17e:	8c 01       	movw	r16, r24
     180:	7b 01       	movw	r14, r22
    disk_initialize(0);
     182:	80 e0       	ldi	r24, 0x00	; 0
     184:	0e 94 70 05 	call	0xae0	; 0xae0 <disk_initialize>
    FATFS fs;
    f_mount(&fs, "", 1);
     188:	ce 01       	movw	r24, r28
     18a:	8b 5d       	subi	r24, 0xDB	; 219
     18c:	9d 4f       	sbci	r25, 0xFD	; 253
     18e:	60 e0       	ldi	r22, 0x00	; 0
     190:	71 e0       	ldi	r23, 0x01	; 1
     192:	41 e0       	ldi	r20, 0x01	; 1
     194:	0e 94 61 13 	call	0x26c2	; 0x26c2 <f_mount>
    FIL file;
    FRESULT res;
    UINT bytes_written;
    
    // Открываем файл для дозаписи (создаем если не существует)
    res = f_open( & file, filename, FA_WRITE | FA_OPEN_APPEND );
     198:	ce 01       	movw	r24, r28
     19a:	03 96       	adiw	r24, 0x03	; 3
     19c:	b8 01       	movw	r22, r16
     19e:	42 e3       	ldi	r20, 0x32	; 50
     1a0:	0e 94 aa 13 	call	0x2754	; 0x2754 <f_open>
    if ( res != FR_OK ) 
     1a4:	88 23       	and	r24, r24
     1a6:	31 f0       	breq	.+12     	; 0x1b4 <sd_append+0x54>
    {
        blink(2, 1);
     1a8:	82 e0       	ldi	r24, 0x02	; 2
     1aa:	90 e0       	ldi	r25, 0x00	; 0
     1ac:	61 e0       	ldi	r22, 0x01	; 1
     1ae:	70 e0       	ldi	r23, 0x00	; 0
     1b0:	0e 94 a9 02 	call	0x552	; 0x552 <blink>
    }
    
    // Перемещаем указатель в конец файла (на всякий случай)
    f_lseek( & file, f_size( & file ) );
     1b4:	8e 01       	movw	r16, r28
     1b6:	0d 5f       	subi	r16, 0xFD	; 253
     1b8:	1f 4f       	sbci	r17, 0xFF	; 255
     1ba:	4d 85       	ldd	r20, Y+13	; 0x0d
     1bc:	5e 85       	ldd	r21, Y+14	; 0x0e
     1be:	6f 85       	ldd	r22, Y+15	; 0x0f
     1c0:	78 89       	ldd	r23, Y+16	; 0x10
     1c2:	c8 01       	movw	r24, r16
     1c4:	0e 94 a7 19 	call	0x334e	; 0x334e <f_lseek>
    
    // Записываем данные
    res = f_write( & file, text, strlen( text ), & bytes_written );
     1c8:	d7 01       	movw	r26, r14
     1ca:	0d 90       	ld	r0, X+
     1cc:	00 20       	and	r0, r0
     1ce:	e9 f7       	brne	.-6      	; 0x1ca <sd_append+0x6a>
     1d0:	ad 01       	movw	r20, r26
     1d2:	41 50       	subi	r20, 0x01	; 1
     1d4:	50 40       	sbci	r21, 0x00	; 0
     1d6:	4e 19       	sub	r20, r14
     1d8:	5f 09       	sbc	r21, r15
     1da:	c8 01       	movw	r24, r16
     1dc:	b7 01       	movw	r22, r14
     1de:	9e 01       	movw	r18, r28
     1e0:	2f 5f       	subi	r18, 0xFF	; 255
     1e2:	3f 4f       	sbci	r19, 0xFF	; 255
     1e4:	0e 94 0c 17 	call	0x2e18	; 0x2e18 <f_write>
    if ( res != FR_OK || bytes_written != strlen(text) )
     1e8:	88 23       	and	r24, r24
     1ea:	61 f4       	brne	.+24     	; 0x204 <sd_append+0xa4>
     1ec:	f7 01       	movw	r30, r14
     1ee:	01 90       	ld	r0, Z+
     1f0:	00 20       	and	r0, r0
     1f2:	e9 f7       	brne	.-6      	; 0x1ee <sd_append+0x8e>
     1f4:	31 97       	sbiw	r30, 0x01	; 1
     1f6:	ee 19       	sub	r30, r14
     1f8:	ff 09       	sbc	r31, r15
     1fa:	89 81       	ldd	r24, Y+1	; 0x01
     1fc:	9a 81       	ldd	r25, Y+2	; 0x02
     1fe:	8e 17       	cp	r24, r30
     200:	9f 07       	cpc	r25, r31
     202:	51 f0       	breq	.+20     	; 0x218 <sd_append+0xb8>
    {
        f_close( & file );
     204:	ce 01       	movw	r24, r28
     206:	03 96       	adiw	r24, 0x03	; 3
     208:	0e 94 89 19 	call	0x3312	; 0x3312 <f_close>
        blink(2, 2);
     20c:	82 e0       	ldi	r24, 0x02	; 2
     20e:	90 e0       	ldi	r25, 0x00	; 0
     210:	62 e0       	ldi	r22, 0x02	; 2
     212:	70 e0       	ldi	r23, 0x00	; 0
     214:	0e 94 a9 02 	call	0x552	; 0x552 <blink>
    }
    
    // Закрываем файл
    f_close( &file );
     218:	ce 01       	movw	r24, r28
     21a:	03 96       	adiw	r24, 0x03	; 3
     21c:	0e 94 89 19 	call	0x3312	; 0x3312 <f_close>

    f_mount(0, "", 0);
     220:	80 e0       	ldi	r24, 0x00	; 0
     222:	90 e0       	ldi	r25, 0x00	; 0
     224:	60 e0       	ldi	r22, 0x00	; 0
     226:	71 e0       	ldi	r23, 0x01	; 1
     228:	40 e0       	ldi	r20, 0x00	; 0
     22a:	0e 94 61 13 	call	0x26c2	; 0x26c2 <f_mount>

    return 0;  // Успех
}
     22e:	80 e0       	ldi	r24, 0x00	; 0
     230:	90 e0       	ldi	r25, 0x00	; 0
     232:	cc 5a       	subi	r28, 0xAC	; 172
     234:	db 4f       	sbci	r29, 0xFB	; 251
     236:	0f b6       	in	r0, 0x3f	; 63
     238:	f8 94       	cli
     23a:	de bf       	out	0x3e, r29	; 62
     23c:	0f be       	out	0x3f, r0	; 63
     23e:	cd bf       	out	0x3d, r28	; 61
     240:	cf 91       	pop	r28
     242:	df 91       	pop	r29
     244:	1f 91       	pop	r17
     246:	0f 91       	pop	r16
     248:	ff 90       	pop	r15
     24a:	ef 90       	pop	r14
     24c:	08 95       	ret

0000024e <sd_read_line>:

// Функция для чтения конкретной строки из файла
int sd_read_line(const char *filename, char *result, int result_size, int line_number) {
     24e:	4f 92       	push	r4
     250:	5f 92       	push	r5
     252:	6f 92       	push	r6
     254:	7f 92       	push	r7
     256:	8f 92       	push	r8
     258:	9f 92       	push	r9
     25a:	af 92       	push	r10
     25c:	bf 92       	push	r11
     25e:	cf 92       	push	r12
     260:	df 92       	push	r13
     262:	ef 92       	push	r14
     264:	ff 92       	push	r15
     266:	0f 93       	push	r16
     268:	1f 93       	push	r17
     26a:	df 93       	push	r29
     26c:	cf 93       	push	r28
     26e:	cd b7       	in	r28, 0x3d	; 61
     270:	de b7       	in	r29, 0x3e	; 62
     272:	c5 55       	subi	r28, 0x55	; 85
     274:	d4 40       	sbci	r29, 0x04	; 4
     276:	0f b6       	in	r0, 0x3f	; 63
     278:	f8 94       	cli
     27a:	de bf       	out	0x3e, r29	; 62
     27c:	0f be       	out	0x3f, r0	; 63
     27e:	cd bf       	out	0x3d, r28	; 61
     280:	8c 01       	movw	r16, r24
     282:	2b 01       	movw	r4, r22
     284:	3a 01       	movw	r6, r20
     286:	49 01       	movw	r8, r18
    disk_initialize(0);
     288:	80 e0       	ldi	r24, 0x00	; 0
     28a:	0e 94 70 05 	call	0xae0	; 0xae0 <disk_initialize>
    FATFS fs;
    f_mount(&fs, "", 1);
     28e:	ce 01       	movw	r24, r28
     290:	8a 5d       	subi	r24, 0xDA	; 218
     292:	9d 4f       	sbci	r25, 0xFD	; 253
     294:	60 e0       	ldi	r22, 0x00	; 0
     296:	71 e0       	ldi	r23, 0x01	; 1
     298:	41 e0       	ldi	r20, 0x01	; 1
     29a:	0e 94 61 13 	call	0x26c2	; 0x26c2 <f_mount>
    int current_line = 0;
    int index = 0;
    char ch;
    
    // Открываем файл для чтения
    res = f_open(&file, filename, FA_READ);
     29e:	34 e0       	ldi	r19, 0x04	; 4
     2a0:	e3 2e       	mov	r14, r19
     2a2:	f1 2c       	mov	r15, r1
     2a4:	ec 0e       	add	r14, r28
     2a6:	fd 1e       	adc	r15, r29
     2a8:	c7 01       	movw	r24, r14
     2aa:	b8 01       	movw	r22, r16
     2ac:	41 e0       	ldi	r20, 0x01	; 1
     2ae:	0e 94 aa 13 	call	0x2754	; 0x2754 <f_open>
    if (res != FR_OK) {
     2b2:	88 23       	and	r24, r24
     2b4:	69 f4       	brne	.+26     	; 0x2d0 <sd_read_line+0x82>
     2b6:	00 e0       	ldi	r16, 0x00	; 0
     2b8:	10 e0       	ldi	r17, 0x00	; 0
        return 1;  // Ошибка открытия файла
    }
    
    // Ищем нужную строку
    while (current_line < line_number) {
        res = f_read(&file, &ch, 1, &bytes_read);
     2ba:	57 01       	movw	r10, r14
     2bc:	22 e0       	ldi	r18, 0x02	; 2
     2be:	c2 2e       	mov	r12, r18
     2c0:	d1 2c       	mov	r13, r1
     2c2:	cc 0e       	add	r12, r28
     2c4:	dd 1e       	adc	r13, r29
     2c6:	7e 01       	movw	r14, r28
     2c8:	08 94       	sec
     2ca:	e1 1c       	adc	r14, r1
     2cc:	f1 1c       	adc	r15, r1
     2ce:	2a c0       	rjmp	.+84     	; 0x324 <sd_read_line+0xd6>
    char ch;
    
    // Открываем файл для чтения
    res = f_open(&file, filename, FA_READ);
    if (res != FR_OK) {
        f_mount(0, "", 0);
     2d0:	80 e0       	ldi	r24, 0x00	; 0
     2d2:	90 e0       	ldi	r25, 0x00	; 0
     2d4:	60 e0       	ldi	r22, 0x00	; 0
     2d6:	71 e0       	ldi	r23, 0x01	; 1
     2d8:	40 e0       	ldi	r20, 0x00	; 0
     2da:	0e 94 61 13 	call	0x26c2	; 0x26c2 <f_mount>
        return 1;  // Ошибка открытия файла
     2de:	21 e0       	ldi	r18, 0x01	; 1
     2e0:	30 e0       	ldi	r19, 0x00	; 0
     2e2:	64 c0       	rjmp	.+200    	; 0x3ac <sd_read_line+0x15e>
    }
    
    // Ищем нужную строку
    while (current_line < line_number) {
        res = f_read(&file, &ch, 1, &bytes_read);
     2e4:	c5 01       	movw	r24, r10
     2e6:	b7 01       	movw	r22, r14
     2e8:	41 e0       	ldi	r20, 0x01	; 1
     2ea:	50 e0       	ldi	r21, 0x00	; 0
     2ec:	96 01       	movw	r18, r12
     2ee:	0e 94 7e 15 	call	0x2afc	; 0x2afc <f_read>
        if (res != FR_OK || bytes_read == 0) {
     2f2:	88 23       	and	r24, r24
     2f4:	21 f4       	brne	.+8      	; 0x2fe <sd_read_line+0xb0>
     2f6:	8a 81       	ldd	r24, Y+2	; 0x02
     2f8:	9b 81       	ldd	r25, Y+3	; 0x03
     2fa:	00 97       	sbiw	r24, 0x00	; 0
     2fc:	71 f4       	brne	.+28     	; 0x31a <sd_read_line+0xcc>
            f_close(&file);
     2fe:	ce 01       	movw	r24, r28
     300:	04 96       	adiw	r24, 0x04	; 4
     302:	0e 94 89 19 	call	0x3312	; 0x3312 <f_close>
            f_mount(0, "", 0);
     306:	80 e0       	ldi	r24, 0x00	; 0
     308:	90 e0       	ldi	r25, 0x00	; 0
     30a:	60 e0       	ldi	r22, 0x00	; 0
     30c:	71 e0       	ldi	r23, 0x01	; 1
     30e:	40 e0       	ldi	r20, 0x00	; 0
     310:	0e 94 61 13 	call	0x26c2	; 0x26c2 <f_mount>
            return 2;  // Файл закончился до достижения нужной строки
     314:	22 e0       	ldi	r18, 0x02	; 2
     316:	30 e0       	ldi	r19, 0x00	; 0
     318:	49 c0       	rjmp	.+146    	; 0x3ac <sd_read_line+0x15e>
        }
        
        if (ch == '\n') {
     31a:	89 81       	ldd	r24, Y+1	; 0x01
     31c:	8a 30       	cpi	r24, 0x0A	; 10
     31e:	11 f4       	brne	.+4      	; 0x324 <sd_read_line+0xd6>
            current_line++;
     320:	0f 5f       	subi	r16, 0xFF	; 255
     322:	1f 4f       	sbci	r17, 0xFF	; 255
        f_mount(0, "", 0);
        return 1;  // Ошибка открытия файла
    }
    
    // Ищем нужную строку
    while (current_line < line_number) {
     324:	08 15       	cp	r16, r8
     326:	19 05       	cpc	r17, r9
     328:	ec f2       	brlt	.-70     	; 0x2e4 <sd_read_line+0x96>
     32a:	72 01       	movw	r14, r4
     32c:	00 e0       	ldi	r16, 0x00	; 0
     32e:	10 e0       	ldi	r17, 0x00	; 0
            current_line++;
        }
    }
    
    // Читаем строку до конца строки или предела буфера
    while (index < result_size - 1) {
     330:	53 01       	movw	r10, r6
     332:	08 94       	sec
     334:	a1 08       	sbc	r10, r1
     336:	b1 08       	sbc	r11, r1
        res = f_read(&file, &ch, 1, &bytes_read);
     338:	94 e0       	ldi	r25, 0x04	; 4
     33a:	89 2e       	mov	r8, r25
     33c:	91 2c       	mov	r9, r1
     33e:	8c 0e       	add	r8, r28
     340:	9d 1e       	adc	r9, r29
     342:	82 e0       	ldi	r24, 0x02	; 2
     344:	68 2e       	mov	r6, r24
     346:	71 2c       	mov	r7, r1
     348:	6c 0e       	add	r6, r28
     34a:	7d 1e       	adc	r7, r29
     34c:	6e 01       	movw	r12, r28
     34e:	08 94       	sec
     350:	c1 1c       	adc	r12, r1
     352:	d1 1c       	adc	r13, r1
     354:	17 c0       	rjmp	.+46     	; 0x384 <sd_read_line+0x136>
     356:	c4 01       	movw	r24, r8
     358:	b6 01       	movw	r22, r12
     35a:	41 e0       	ldi	r20, 0x01	; 1
     35c:	50 e0       	ldi	r21, 0x00	; 0
     35e:	93 01       	movw	r18, r6
     360:	0e 94 7e 15 	call	0x2afc	; 0x2afc <f_read>
        if (res != FR_OK || bytes_read == 0) {
     364:	88 23       	and	r24, r24
     366:	89 f4       	brne	.+34     	; 0x38a <sd_read_line+0x13c>
     368:	8a 81       	ldd	r24, Y+2	; 0x02
     36a:	9b 81       	ldd	r25, Y+3	; 0x03
     36c:	00 97       	sbiw	r24, 0x00	; 0
     36e:	69 f0       	breq	.+26     	; 0x38a <sd_read_line+0x13c>
            break;  // Конец файла
        }
        
        if (ch == '\n' || ch == '\r') {
     370:	89 81       	ldd	r24, Y+1	; 0x01
     372:	8a 30       	cpi	r24, 0x0A	; 10
     374:	51 f0       	breq	.+20     	; 0x38a <sd_read_line+0x13c>
     376:	8d 30       	cpi	r24, 0x0D	; 13
     378:	41 f0       	breq	.+16     	; 0x38a <sd_read_line+0x13c>
            break;  // Конец строки
        }
        
        result[index++] = ch;
     37a:	f7 01       	movw	r30, r14
     37c:	81 93       	st	Z+, r24
     37e:	7f 01       	movw	r14, r30
     380:	0f 5f       	subi	r16, 0xFF	; 255
     382:	1f 4f       	sbci	r17, 0xFF	; 255
            current_line++;
        }
    }
    
    // Читаем строку до конца строки или предела буфера
    while (index < result_size - 1) {
     384:	0a 15       	cp	r16, r10
     386:	1b 05       	cpc	r17, r11
     388:	34 f3       	brlt	.-52     	; 0x356 <sd_read_line+0x108>
        
        result[index++] = ch;
    }
    
    // Завершаем строку
    result[index] = '\0';
     38a:	04 0d       	add	r16, r4
     38c:	15 1d       	adc	r17, r5
     38e:	f8 01       	movw	r30, r16
     390:	10 82       	st	Z, r1
    
    f_close(&file);
     392:	ce 01       	movw	r24, r28
     394:	04 96       	adiw	r24, 0x04	; 4
     396:	0e 94 89 19 	call	0x3312	; 0x3312 <f_close>
    f_mount(0, "", 0);
     39a:	80 e0       	ldi	r24, 0x00	; 0
     39c:	90 e0       	ldi	r25, 0x00	; 0
     39e:	60 e0       	ldi	r22, 0x00	; 0
     3a0:	71 e0       	ldi	r23, 0x01	; 1
     3a2:	40 e0       	ldi	r20, 0x00	; 0
     3a4:	0e 94 61 13 	call	0x26c2	; 0x26c2 <f_mount>
    return 0;  // Успех
     3a8:	20 e0       	ldi	r18, 0x00	; 0
     3aa:	30 e0       	ldi	r19, 0x00	; 0
}
     3ac:	c9 01       	movw	r24, r18
     3ae:	cb 5a       	subi	r28, 0xAB	; 171
     3b0:	db 4f       	sbci	r29, 0xFB	; 251
     3b2:	0f b6       	in	r0, 0x3f	; 63
     3b4:	f8 94       	cli
     3b6:	de bf       	out	0x3e, r29	; 62
     3b8:	0f be       	out	0x3f, r0	; 63
     3ba:	cd bf       	out	0x3d, r28	; 61
     3bc:	cf 91       	pop	r28
     3be:	df 91       	pop	r29
     3c0:	1f 91       	pop	r17
     3c2:	0f 91       	pop	r16
     3c4:	ff 90       	pop	r15
     3c6:	ef 90       	pop	r14
     3c8:	df 90       	pop	r13
     3ca:	cf 90       	pop	r12
     3cc:	bf 90       	pop	r11
     3ce:	af 90       	pop	r10
     3d0:	9f 90       	pop	r9
     3d2:	8f 90       	pop	r8
     3d4:	7f 90       	pop	r7
     3d6:	6f 90       	pop	r6
     3d8:	5f 90       	pop	r5
     3da:	4f 90       	pop	r4
     3dc:	08 95       	ret

000003de <display>:

void display ( char * string ) 
{
     3de:	cf 93       	push	r28
     3e0:	df 93       	push	r29
     3e2:	ec 01       	movw	r28, r24
    ssd1306_set_cursor(2, 10);
     3e4:	82 e0       	ldi	r24, 0x02	; 2
     3e6:	6a e0       	ldi	r22, 0x0A	; 10
     3e8:	0e 94 cf 03 	call	0x79e	; 0x79e <ssd1306_set_cursor>
    ssd1306_print_string(string);
     3ec:	ce 01       	movw	r24, r28
     3ee:	0e 94 3e 04 	call	0x87c	; 0x87c <ssd1306_print_string>
    return;
}
     3f2:	df 91       	pop	r29
     3f4:	cf 91       	pop	r28
     3f6:	08 95       	ret

000003f8 <init>:
	#else
		//round up by default
		__ticks_dc = (uint32_t)(ceil(fabs(__tmp)));
	#endif

	__builtin_avr_delay_cycles(__ticks_dc);
     3f8:	8f ef       	ldi	r24, 0xFF	; 255
     3fa:	91 ee       	ldi	r25, 0xE1	; 225
     3fc:	a4 e0       	ldi	r26, 0x04	; 4
     3fe:	81 50       	subi	r24, 0x01	; 1
     400:	90 40       	sbci	r25, 0x00	; 0
     402:	a0 40       	sbci	r26, 0x00	; 0
     404:	e1 f7       	brne	.-8      	; 0x3fe <init+0x6>
     406:	00 c0       	rjmp	.+0      	; 0x408 <init+0x10>
     408:	00 00       	nop

void init()
{
    _delay_ms(100);
    init_leds();
     40a:	0e 94 a2 02 	call	0x544	; 0x544 <init_leds>
     40e:	8f ef       	ldi	r24, 0xFF	; 255
     410:	99 ef       	ldi	r25, 0xF9	; 249
     412:	a0 e0       	ldi	r26, 0x00	; 0
     414:	81 50       	subi	r24, 0x01	; 1
     416:	90 40       	sbci	r25, 0x00	; 0
     418:	a0 40       	sbci	r26, 0x00	; 0
     41a:	e1 f7       	brne	.-8      	; 0x414 <init+0x1c>
     41c:	00 c0       	rjmp	.+0      	; 0x41e <init+0x26>
     41e:	00 00       	nop
    _delay_ms(20);
    i2c_init();
     420:	0e 94 0f 03 	call	0x61e	; 0x61e <i2c_init>
     424:	8f ef       	ldi	r24, 0xFF	; 255
     426:	99 ef       	ldi	r25, 0xF9	; 249
     428:	a0 e0       	ldi	r26, 0x00	; 0
     42a:	81 50       	subi	r24, 0x01	; 1
     42c:	90 40       	sbci	r25, 0x00	; 0
     42e:	a0 40       	sbci	r26, 0x00	; 0
     430:	e1 f7       	brne	.-8      	; 0x42a <init+0x32>
     432:	00 c0       	rjmp	.+0      	; 0x434 <init+0x3c>
     434:	00 00       	nop
    _delay_ms(20);
    ssd1306_init();
     436:	0e 94 5f 03 	call	0x6be	; 0x6be <ssd1306_init>
     43a:	8f ef       	ldi	r24, 0xFF	; 255
     43c:	99 ef       	ldi	r25, 0xF9	; 249
     43e:	a0 e0       	ldi	r26, 0x00	; 0
     440:	81 50       	subi	r24, 0x01	; 1
     442:	90 40       	sbci	r25, 0x00	; 0
     444:	a0 40       	sbci	r26, 0x00	; 0
     446:	e1 f7       	brne	.-8      	; 0x440 <init+0x48>
     448:	00 c0       	rjmp	.+0      	; 0x44a <init+0x52>
     44a:	00 00       	nop
    _delay_ms(20);
    ssd1306_clear();
     44c:	0e 94 e6 03 	call	0x7cc	; 0x7cc <ssd1306_clear>
     450:	8f ef       	ldi	r24, 0xFF	; 255
     452:	99 ef       	ldi	r25, 0xF9	; 249
     454:	a0 e0       	ldi	r26, 0x00	; 0
     456:	81 50       	subi	r24, 0x01	; 1
     458:	90 40       	sbci	r25, 0x00	; 0
     45a:	a0 40       	sbci	r26, 0x00	; 0
     45c:	e1 f7       	brne	.-8      	; 0x456 <init+0x5e>
     45e:	00 c0       	rjmp	.+0      	; 0x460 <init+0x68>
     460:	00 00       	nop
    _delay_ms(20);
    return;
}
     462:	08 95       	ret

00000464 <exit_all>:
     464:	8f ef       	ldi	r24, 0xFF	; 255
     466:	99 ef       	ldi	r25, 0xF9	; 249
     468:	a0 e0       	ldi	r26, 0x00	; 0
     46a:	81 50       	subi	r24, 0x01	; 1
     46c:	90 40       	sbci	r25, 0x00	; 0
     46e:	a0 40       	sbci	r26, 0x00	; 0
     470:	e1 f7       	brne	.-8      	; 0x46a <exit_all+0x6>
     472:	00 c0       	rjmp	.+0      	; 0x474 <exit_all+0x10>
     474:	00 00       	nop
void exit_all()
{
    _delay_ms(20);
    while(1) 
    {
        blink(0, 3);
     476:	80 e0       	ldi	r24, 0x00	; 0
     478:	90 e0       	ldi	r25, 0x00	; 0
     47a:	63 e0       	ldi	r22, 0x03	; 3
     47c:	70 e0       	ldi	r23, 0x00	; 0
     47e:	0e 94 a9 02 	call	0x552	; 0x552 <blink>
     482:	f9 cf       	rjmp	.-14     	; 0x476 <exit_all+0x12>

00000484 <main>:
    }
    return;
}

int main(void)
{
     484:	ef 92       	push	r14
     486:	ff 92       	push	r15
     488:	0f 93       	push	r16
     48a:	1f 93       	push	r17
     48c:	df 93       	push	r29
     48e:	cf 93       	push	r28
     490:	cd b7       	in	r28, 0x3d	; 61
     492:	de b7       	in	r29, 0x3e	; 62
     494:	c0 54       	subi	r28, 0x40	; 64
     496:	d0 40       	sbci	r29, 0x00	; 0
     498:	0f b6       	in	r0, 0x3f	; 63
     49a:	f8 94       	cli
     49c:	de bf       	out	0x3e, r29	; 62
     49e:	0f be       	out	0x3f, r0	; 63
     4a0:	cd bf       	out	0x3d, r28	; 61
    init();
     4a2:	0e 94 fc 01 	call	0x3f8	; 0x3f8 <init>
    //     sd_append("test1.txt", text);
    int line = 0; // Потом доработать с кнопками аля +1 -1;
    char result[64]; // 64 от головы взял
    char * filename = "test1.txt"; // если rtc то потом надо головой думать
    
    blink(1, 1);
     4a6:	81 e0       	ldi	r24, 0x01	; 1
     4a8:	90 e0       	ldi	r25, 0x00	; 0
     4aa:	61 e0       	ldi	r22, 0x01	; 1
     4ac:	70 e0       	ldi	r23, 0x00	; 0
     4ae:	0e 94 a9 02 	call	0x552	; 0x552 <blink>

int main(void)
{
    init();
    //     sd_append("test1.txt", text);
    int line = 0; // Потом доработать с кнопками аля +1 -1;
     4b2:	00 e0       	ldi	r16, 0x00	; 0
     4b4:	10 e0       	ldi	r17, 0x00	; 0
    char result[64]; // 64 от головы взял
    char * filename = "test1.txt"; // если rtc то потом надо головой думать
    
    blink(1, 1);
    while (sd_read_line(filename, result, 64, line) == 0)
     4b6:	7e 01       	movw	r14, r28
     4b8:	08 94       	sec
     4ba:	e1 1c       	adc	r14, r1
     4bc:	f1 1c       	adc	r15, r1
     4be:	13 c0       	rjmp	.+38     	; 0x4e6 <main+0x62>
    {
        if (result[0] =='\0')
     4c0:	89 81       	ldd	r24, Y+1	; 0x01
     4c2:	88 23       	and	r24, r24
     4c4:	d1 f0       	breq	.+52     	; 0x4fa <main+0x76>
            break;
        
        ssd1306_clear();
     4c6:	0e 94 e6 03 	call	0x7cc	; 0x7cc <ssd1306_clear>
        display(result);
     4ca:	c7 01       	movw	r24, r14
     4cc:	0e 94 ef 01 	call	0x3de	; 0x3de <display>
     4d0:	8f ef       	ldi	r24, 0xFF	; 255
     4d2:	93 ed       	ldi	r25, 0xD3	; 211
     4d4:	a0 e3       	ldi	r26, 0x30	; 48
     4d6:	81 50       	subi	r24, 0x01	; 1
     4d8:	90 40       	sbci	r25, 0x00	; 0
     4da:	a0 40       	sbci	r26, 0x00	; 0
     4dc:	e1 f7       	brne	.-8      	; 0x4d6 <main+0x52>
     4de:	00 c0       	rjmp	.+0      	; 0x4e0 <main+0x5c>
     4e0:	00 00       	nop
        _delay_ms(1000);
        line++;
     4e2:	0f 5f       	subi	r16, 0xFF	; 255
     4e4:	1f 4f       	sbci	r17, 0xFF	; 255
    int line = 0; // Потом доработать с кнопками аля +1 -1;
    char result[64]; // 64 от головы взял
    char * filename = "test1.txt"; // если rtc то потом надо головой думать
    
    blink(1, 1);
    while (sd_read_line(filename, result, 64, line) == 0)
     4e6:	81 e0       	ldi	r24, 0x01	; 1
     4e8:	91 e0       	ldi	r25, 0x01	; 1
     4ea:	b7 01       	movw	r22, r14
     4ec:	40 e4       	ldi	r20, 0x40	; 64
     4ee:	50 e0       	ldi	r21, 0x00	; 0
     4f0:	98 01       	movw	r18, r16
     4f2:	0e 94 27 01 	call	0x24e	; 0x24e <sd_read_line>
     4f6:	00 97       	sbiw	r24, 0x00	; 0
     4f8:	19 f3       	breq	.-58     	; 0x4c0 <main+0x3c>
        _delay_ms(1000);
        line++;
    }
    //int res = sd_read_line(filename, result, 64, 0);

    blink(1, 2);
     4fa:	81 e0       	ldi	r24, 0x01	; 1
     4fc:	90 e0       	ldi	r25, 0x00	; 0
     4fe:	62 e0       	ldi	r22, 0x02	; 2
     500:	70 e0       	ldi	r23, 0x00	; 0
     502:	0e 94 a9 02 	call	0x552	; 0x552 <blink>
     506:	8f ef       	ldi	r24, 0xFF	; 255
     508:	99 ef       	ldi	r25, 0xF9	; 249
     50a:	a0 e0       	ldi	r26, 0x00	; 0
     50c:	81 50       	subi	r24, 0x01	; 1
     50e:	90 40       	sbci	r25, 0x00	; 0
     510:	a0 40       	sbci	r26, 0x00	; 0
     512:	e1 f7       	brne	.-8      	; 0x50c <main+0x88>
     514:	00 c0       	rjmp	.+0      	; 0x516 <main+0x92>
     516:	00 00       	nop
    
    _delay_ms(20);
    display(result);
     518:	ce 01       	movw	r24, r28
     51a:	01 96       	adiw	r24, 0x01	; 1
     51c:	0e 94 ef 01 	call	0x3de	; 0x3de <display>


    exit_all();
     520:	0e 94 32 02 	call	0x464	; 0x464 <exit_all>
    return 0;
     524:	80 e0       	ldi	r24, 0x00	; 0
     526:	90 e0       	ldi	r25, 0x00	; 0
     528:	c0 5c       	subi	r28, 0xC0	; 192
     52a:	df 4f       	sbci	r29, 0xFF	; 255
     52c:	0f b6       	in	r0, 0x3f	; 63
     52e:	f8 94       	cli
     530:	de bf       	out	0x3e, r29	; 62
     532:	0f be       	out	0x3f, r0	; 63
     534:	cd bf       	out	0x3d, r28	; 61
     536:	cf 91       	pop	r28
     538:	df 91       	pop	r29
     53a:	1f 91       	pop	r17
     53c:	0f 91       	pop	r16
     53e:	ff 90       	pop	r15
     540:	ef 90       	pop	r14
     542:	08 95       	ret

00000544 <init_leds>:
#include <string.h>
#include "log.h"


void init_leds(void) {
    DDRD |= (1 << LED_Stat) | (1 << LED_Err) | (1 << LED_OK);
     544:	8a b1       	in	r24, 0x0a	; 10
     546:	80 6e       	ori	r24, 0xE0	; 224
     548:	8a b9       	out	0x0a, r24	; 10
    PORTD &= ~((1 << LED_Stat) | (1 << LED_Err) | (1 << LED_OK));
     54a:	8b b1       	in	r24, 0x0b	; 11
     54c:	8f 71       	andi	r24, 0x1F	; 31
     54e:	8b b9       	out	0x0b, r24	; 11
}
     550:	08 95       	ret

00000552 <blink>:

void blink(int type, int amount){
    switch (type)
     552:	81 30       	cpi	r24, 0x01	; 1
     554:	91 05       	cpc	r25, r1
     556:	49 f0       	breq	.+18     	; 0x56a <blink+0x18>
     558:	82 30       	cpi	r24, 0x02	; 2
     55a:	91 05       	cpc	r25, r1
     55c:	19 f0       	breq	.+6      	; 0x564 <blink+0x12>
     55e:	00 97       	sbiw	r24, 0x00	; 0
     560:	39 f0       	breq	.+14     	; 0x570 <blink+0x1e>
     562:	08 95       	ret
     564:	80 e0       	ldi	r24, 0x00	; 0
     566:	90 e0       	ldi	r25, 0x00	; 0
     568:	4d c0       	rjmp	.+154    	; 0x604 <blink+0xb2>
     56a:	80 e0       	ldi	r24, 0x00	; 0
     56c:	90 e0       	ldi	r25, 0x00	; 0
     56e:	31 c0       	rjmp	.+98     	; 0x5d2 <blink+0x80>
     570:	80 e0       	ldi	r24, 0x00	; 0
     572:	90 e0       	ldi	r25, 0x00	; 0
     574:	15 c0       	rjmp	.+42     	; 0x5a0 <blink+0x4e>
    {
    case 0: // OK
        for (int i = 0; i < amount; i++){
            PORTD |= (1 << LED_OK);
     576:	5e 9a       	sbi	0x0b, 6	; 11
     578:	2f ef       	ldi	r18, 0xFF	; 255
     57a:	33 ec       	ldi	r19, 0xC3	; 195
     57c:	49 e0       	ldi	r20, 0x09	; 9
     57e:	21 50       	subi	r18, 0x01	; 1
     580:	30 40       	sbci	r19, 0x00	; 0
     582:	40 40       	sbci	r20, 0x00	; 0
     584:	e1 f7       	brne	.-8      	; 0x57e <blink+0x2c>
     586:	00 c0       	rjmp	.+0      	; 0x588 <blink+0x36>
     588:	00 00       	nop
            _delay_ms(200);
            PORTD &= ~(1 << LED_OK);
     58a:	5e 98       	cbi	0x0b, 6	; 11
     58c:	2f ef       	ldi	r18, 0xFF	; 255
     58e:	33 ec       	ldi	r19, 0xC3	; 195
     590:	49 e0       	ldi	r20, 0x09	; 9
     592:	21 50       	subi	r18, 0x01	; 1
     594:	30 40       	sbci	r19, 0x00	; 0
     596:	40 40       	sbci	r20, 0x00	; 0
     598:	e1 f7       	brne	.-8      	; 0x592 <blink+0x40>
     59a:	00 c0       	rjmp	.+0      	; 0x59c <blink+0x4a>
     59c:	00 00       	nop

void blink(int type, int amount){
    switch (type)
    {
    case 0: // OK
        for (int i = 0; i < amount; i++){
     59e:	01 96       	adiw	r24, 0x01	; 1
     5a0:	86 17       	cp	r24, r22
     5a2:	97 07       	cpc	r25, r23
     5a4:	44 f3       	brlt	.-48     	; 0x576 <blink+0x24>
     5a6:	31 c0       	rjmp	.+98     	; 0x60a <blink+0xb8>
        }
        _delay_ms(1000);
        break;
    case 1: // STAT
        for (int i = 0; i < amount; i++){
            PORTD |= (1 << LED_Stat);
     5a8:	5f 9a       	sbi	0x0b, 7	; 11
     5aa:	2f ef       	ldi	r18, 0xFF	; 255
     5ac:	33 ec       	ldi	r19, 0xC3	; 195
     5ae:	49 e0       	ldi	r20, 0x09	; 9
     5b0:	21 50       	subi	r18, 0x01	; 1
     5b2:	30 40       	sbci	r19, 0x00	; 0
     5b4:	40 40       	sbci	r20, 0x00	; 0
     5b6:	e1 f7       	brne	.-8      	; 0x5b0 <blink+0x5e>
     5b8:	00 c0       	rjmp	.+0      	; 0x5ba <blink+0x68>
     5ba:	00 00       	nop
            _delay_ms(200);
            PORTD &= ~(1 << LED_Stat);
     5bc:	5f 98       	cbi	0x0b, 7	; 11
     5be:	2f ef       	ldi	r18, 0xFF	; 255
     5c0:	33 ec       	ldi	r19, 0xC3	; 195
     5c2:	49 e0       	ldi	r20, 0x09	; 9
     5c4:	21 50       	subi	r18, 0x01	; 1
     5c6:	30 40       	sbci	r19, 0x00	; 0
     5c8:	40 40       	sbci	r20, 0x00	; 0
     5ca:	e1 f7       	brne	.-8      	; 0x5c4 <blink+0x72>
     5cc:	00 c0       	rjmp	.+0      	; 0x5ce <blink+0x7c>
     5ce:	00 00       	nop
            _delay_ms(200);
        }
        _delay_ms(1000);
        break;
    case 1: // STAT
        for (int i = 0; i < amount; i++){
     5d0:	01 96       	adiw	r24, 0x01	; 1
     5d2:	86 17       	cp	r24, r22
     5d4:	97 07       	cpc	r25, r23
     5d6:	44 f3       	brlt	.-48     	; 0x5a8 <blink+0x56>
     5d8:	18 c0       	rjmp	.+48     	; 0x60a <blink+0xb8>
        }
        _delay_ms(1000);
        break;
    case 2: // ERROR
        for (int i = 0; i < amount; i++){
            PORTD |= (1 << LED_Err);
     5da:	5d 9a       	sbi	0x0b, 5	; 11
     5dc:	2f ef       	ldi	r18, 0xFF	; 255
     5de:	39 e6       	ldi	r19, 0x69	; 105
     5e0:	48 e1       	ldi	r20, 0x18	; 24
     5e2:	21 50       	subi	r18, 0x01	; 1
     5e4:	30 40       	sbci	r19, 0x00	; 0
     5e6:	40 40       	sbci	r20, 0x00	; 0
     5e8:	e1 f7       	brne	.-8      	; 0x5e2 <blink+0x90>
     5ea:	00 c0       	rjmp	.+0      	; 0x5ec <blink+0x9a>
     5ec:	00 00       	nop
            _delay_ms(500);
            PORTD &= ~(1 << LED_Err);
     5ee:	5d 98       	cbi	0x0b, 5	; 11
     5f0:	2f ef       	ldi	r18, 0xFF	; 255
     5f2:	39 e6       	ldi	r19, 0x69	; 105
     5f4:	48 e1       	ldi	r20, 0x18	; 24
     5f6:	21 50       	subi	r18, 0x01	; 1
     5f8:	30 40       	sbci	r19, 0x00	; 0
     5fa:	40 40       	sbci	r20, 0x00	; 0
     5fc:	e1 f7       	brne	.-8      	; 0x5f6 <blink+0xa4>
     5fe:	00 c0       	rjmp	.+0      	; 0x600 <blink+0xae>
     600:	00 00       	nop
            
        }
        _delay_ms(1000);
        break;
    case 2: // ERROR
        for (int i = 0; i < amount; i++){
     602:	01 96       	adiw	r24, 0x01	; 1
     604:	86 17       	cp	r24, r22
     606:	97 07       	cpc	r25, r23
     608:	44 f3       	brlt	.-48     	; 0x5da <blink+0x88>
     60a:	8f ef       	ldi	r24, 0xFF	; 255
     60c:	93 ed       	ldi	r25, 0xD3	; 211
     60e:	a0 e3       	ldi	r26, 0x30	; 48
     610:	81 50       	subi	r24, 0x01	; 1
     612:	90 40       	sbci	r25, 0x00	; 0
     614:	a0 40       	sbci	r26, 0x00	; 0
     616:	e1 f7       	brne	.-8      	; 0x610 <blink+0xbe>
     618:	00 c0       	rjmp	.+0      	; 0x61a <blink+0xc8>
     61a:	00 00       	nop
     61c:	08 95       	ret

0000061e <i2c_init>:
#include "i2c_config.h"
#include <util/delay.h>

void i2c_init(void) {
    TWSR = 0x00;
     61e:	10 92 b9 00 	sts	0x00B9, r1
    TWBR = 0x0C;
     622:	8c e0       	ldi	r24, 0x0C	; 12
     624:	80 93 b8 00 	sts	0x00B8, r24
    TWCR = (1 << TWEN);
     628:	84 e0       	ldi	r24, 0x04	; 4
     62a:	80 93 bc 00 	sts	0x00BC, r24
}
     62e:	08 95       	ret

00000630 <i2c_start>:

uint8_t i2c_start(uint8_t address) {
    TWCR = (1 << TWINT) | (1 << TWSTA) | (1 << TWEN);
     630:	94 ea       	ldi	r25, 0xA4	; 164
     632:	90 93 bc 00 	sts	0x00BC, r25
    while (!(TWCR & (1 << TWINT)));
     636:	90 91 bc 00 	lds	r25, 0x00BC
     63a:	97 ff       	sbrs	r25, 7
     63c:	fc cf       	rjmp	.-8      	; 0x636 <i2c_start+0x6>
    
    if ((TWSR & 0xF8) != TW_START) return 1;
     63e:	90 91 b9 00 	lds	r25, 0x00B9
     642:	98 7f       	andi	r25, 0xF8	; 248
     644:	98 30       	cpi	r25, 0x08	; 8
     646:	89 f4       	brne	.+34     	; 0x66a <i2c_start+0x3a>
    
    TWDR = address;
     648:	80 93 bb 00 	sts	0x00BB, r24
    TWCR = (1 << TWINT) | (1 << TWEN);
     64c:	84 e8       	ldi	r24, 0x84	; 132
     64e:	80 93 bc 00 	sts	0x00BC, r24
    while (!(TWCR & (1 << TWINT)));
     652:	80 91 bc 00 	lds	r24, 0x00BC
     656:	87 ff       	sbrs	r24, 7
     658:	fc cf       	rjmp	.-8      	; 0x652 <i2c_start+0x22>
    
    if ((TWSR & 0xF8) != TW_MT_SLA_ACK) return 1;
     65a:	90 91 b9 00 	lds	r25, 0x00B9
     65e:	98 7f       	andi	r25, 0xF8	; 248

uint8_t i2c_start(uint8_t address) {
    TWCR = (1 << TWINT) | (1 << TWSTA) | (1 << TWEN);
    while (!(TWCR & (1 << TWINT)));
    
    if ((TWSR & 0xF8) != TW_START) return 1;
     660:	81 e0       	ldi	r24, 0x01	; 1
     662:	98 31       	cpi	r25, 0x18	; 24
     664:	19 f4       	brne	.+6      	; 0x66c <i2c_start+0x3c>
     666:	80 e0       	ldi	r24, 0x00	; 0
     668:	08 95       	ret
     66a:	81 e0       	ldi	r24, 0x01	; 1
    while (!(TWCR & (1 << TWINT)));
    
    if ((TWSR & 0xF8) != TW_MT_SLA_ACK) return 1;
    
    return 0;
}
     66c:	08 95       	ret

0000066e <i2c_stop>:

void i2c_stop(void) {
    TWCR = (1 << TWINT) | (1 << TWSTO) | (1 << TWEN);
     66e:	84 e9       	ldi	r24, 0x94	; 148
     670:	80 93 bc 00 	sts	0x00BC, r24
    while (TWCR & (1 << TWSTO));
     674:	80 91 bc 00 	lds	r24, 0x00BC
     678:	84 fd       	sbrc	r24, 4
     67a:	fc cf       	rjmp	.-8      	; 0x674 <i2c_stop+0x6>
}
     67c:	08 95       	ret

0000067e <i2c_write>:

uint8_t i2c_write(uint8_t data) {
    TWDR = data;
     67e:	80 93 bb 00 	sts	0x00BB, r24
    TWCR = (1 << TWINT) | (1 << TWEN);
     682:	84 e8       	ldi	r24, 0x84	; 132
     684:	80 93 bc 00 	sts	0x00BC, r24
    while (!(TWCR & (1 << TWINT)));
     688:	80 91 bc 00 	lds	r24, 0x00BC
     68c:	87 ff       	sbrs	r24, 7
     68e:	fc cf       	rjmp	.-8      	; 0x688 <i2c_write+0xa>
    
    if ((TWSR & 0xF8) != TW_MT_DATA_ACK) return 1;
     690:	90 91 b9 00 	lds	r25, 0x00B9
     694:	98 7f       	andi	r25, 0xF8	; 248
     696:	81 e0       	ldi	r24, 0x01	; 1
     698:	98 32       	cpi	r25, 0x28	; 40
     69a:	09 f4       	brne	.+2      	; 0x69e <i2c_write+0x20>
     69c:	80 e0       	ldi	r24, 0x00	; 0
    
    return 0;
     69e:	08 95       	ret

000006a0 <ssd1306_cmd>:
    0x63, 0x14, 0x08, 0x14, 0x63, // X
    0x07, 0x08, 0x70, 0x08, 0x07, // Y
    0x61, 0x51, 0x49, 0x45, 0x43  // Z
};

void ssd1306_cmd(uint8_t cmd) {
     6a0:	1f 93       	push	r17
     6a2:	18 2f       	mov	r17, r24
    i2c_start(SSD1306_ADDRESS);
     6a4:	88 e7       	ldi	r24, 0x78	; 120
     6a6:	0e 94 18 03 	call	0x630	; 0x630 <i2c_start>
    i2c_write(0x00);
     6aa:	80 e0       	ldi	r24, 0x00	; 0
     6ac:	0e 94 3f 03 	call	0x67e	; 0x67e <i2c_write>
    i2c_write(cmd);
     6b0:	81 2f       	mov	r24, r17
     6b2:	0e 94 3f 03 	call	0x67e	; 0x67e <i2c_write>
    i2c_stop();
     6b6:	0e 94 37 03 	call	0x66e	; 0x66e <i2c_stop>
}
     6ba:	1f 91       	pop	r17
     6bc:	08 95       	ret

000006be <ssd1306_init>:
     6be:	8f ef       	ldi	r24, 0xFF	; 255
     6c0:	91 ee       	ldi	r25, 0xE1	; 225
     6c2:	a4 e0       	ldi	r26, 0x04	; 4
     6c4:	81 50       	subi	r24, 0x01	; 1
     6c6:	90 40       	sbci	r25, 0x00	; 0
     6c8:	a0 40       	sbci	r26, 0x00	; 0
     6ca:	e1 f7       	brne	.-8      	; 0x6c4 <ssd1306_init+0x6>
     6cc:	00 c0       	rjmp	.+0      	; 0x6ce <ssd1306_init+0x10>
     6ce:	00 00       	nop

void ssd1306_init(void) {
    _delay_ms(100);
    
    ssd1306_cmd(SSD1306_DISPLAYOFF);
     6d0:	8e ea       	ldi	r24, 0xAE	; 174
     6d2:	0e 94 50 03 	call	0x6a0	; 0x6a0 <ssd1306_cmd>
    
    ssd1306_cmd(0x20);
     6d6:	80 e2       	ldi	r24, 0x20	; 32
     6d8:	0e 94 50 03 	call	0x6a0	; 0x6a0 <ssd1306_cmd>
    ssd1306_cmd(0x00);
     6dc:	80 e0       	ldi	r24, 0x00	; 0
     6de:	0e 94 50 03 	call	0x6a0	; 0x6a0 <ssd1306_cmd>

    ssd1306_cmd(0x21);
     6e2:	81 e2       	ldi	r24, 0x21	; 33
     6e4:	0e 94 50 03 	call	0x6a0	; 0x6a0 <ssd1306_cmd>
    ssd1306_cmd(0x02);  // 4 часа делал они делают с запасом 2 пикселя, а I2C 
     6e8:	82 e0       	ldi	r24, 0x02	; 2
     6ea:	0e 94 50 03 	call	0x6a0	; 0x6a0 <ssd1306_cmd>
    ssd1306_cmd(0x81);  // фигачит подряд теперь получается с 2-129
     6ee:	81 e8       	ldi	r24, 0x81	; 129
     6f0:	0e 94 50 03 	call	0x6a0	; 0x6a0 <ssd1306_cmd>

    ssd1306_cmd(0x22);
     6f4:	82 e2       	ldi	r24, 0x22	; 34
     6f6:	0e 94 50 03 	call	0x6a0	; 0x6a0 <ssd1306_cmd>
    ssd1306_cmd(0x00);  // Начальная страница = 0
     6fa:	80 e0       	ldi	r24, 0x00	; 0
     6fc:	0e 94 50 03 	call	0x6a0	; 0x6a0 <ssd1306_cmd>
    ssd1306_cmd(0x07);  // Конечная страница = 7
     700:	87 e0       	ldi	r24, 0x07	; 7
     702:	0e 94 50 03 	call	0x6a0	; 0x6a0 <ssd1306_cmd>

    // Сбрасываем смещение
    ssd1306_cmd(0xD3);
     706:	83 ed       	ldi	r24, 0xD3	; 211
     708:	0e 94 50 03 	call	0x6a0	; 0x6a0 <ssd1306_cmd>
    ssd1306_cmd(0x00);  // NO offset
     70c:	80 e0       	ldi	r24, 0x00	; 0
     70e:	0e 94 50 03 	call	0x6a0	; 0x6a0 <ssd1306_cmd>

    // Начальная линия = 0
    ssd1306_cmd(0x40);
     712:	80 e4       	ldi	r24, 0x40	; 64
     714:	0e 94 50 03 	call	0x6a0	; 0x6a0 <ssd1306_cmd>
    ssd1306_cmd(0xA1);  // Segment re-map normal (колонка 0 -> SEG0)
     718:	81 ea       	ldi	r24, 0xA1	; 161
     71a:	0e 94 50 03 	call	0x6a0	; 0x6a0 <ssd1306_cmd>
    ssd1306_cmd(0xC8);  // COM output scan normal (страница 0 -> COM0)
     71e:	88 ec       	ldi	r24, 0xC8	; 200
     720:	0e 94 50 03 	call	0x6a0	; 0x6a0 <ssd1306_cmd>
    ssd1306_cmd(0xA8);
     724:	88 ea       	ldi	r24, 0xA8	; 168
     726:	0e 94 50 03 	call	0x6a0	; 0x6a0 <ssd1306_cmd>
    ssd1306_cmd(0x3F);
     72a:	8f e3       	ldi	r24, 0x3F	; 63
     72c:	0e 94 50 03 	call	0x6a0	; 0x6a0 <ssd1306_cmd>

    // COM pins configuration
    ssd1306_cmd(0xDA);
     730:	8a ed       	ldi	r24, 0xDA	; 218
     732:	0e 94 50 03 	call	0x6a0	; 0x6a0 <ssd1306_cmd>
    ssd1306_cmd(0x12);  // Alternative COM pin configuration, disable COM left/right remap
     736:	82 e1       	ldi	r24, 0x12	; 18
     738:	0e 94 50 03 	call	0x6a0	; 0x6a0 <ssd1306_cmd>

    // Контраст
    ssd1306_cmd(0x81);
     73c:	81 e8       	ldi	r24, 0x81	; 129
     73e:	0e 94 50 03 	call	0x6a0	; 0x6a0 <ssd1306_cmd>
    ssd1306_cmd(0x7F);
     742:	8f e7       	ldi	r24, 0x7F	; 127
     744:	0e 94 50 03 	call	0x6a0	; 0x6a0 <ssd1306_cmd>

    // Включаем отображение из RAM
    ssd1306_cmd(0xA4);
     748:	84 ea       	ldi	r24, 0xA4	; 164
     74a:	0e 94 50 03 	call	0x6a0	; 0x6a0 <ssd1306_cmd>
    
    // Нормальный (не инвертированный) дисплей
    ssd1306_cmd(0xA6);
     74e:	86 ea       	ldi	r24, 0xA6	; 166
     750:	0e 94 50 03 	call	0x6a0	; 0x6a0 <ssd1306_cmd>

    // Настройка тактовой частоты
    ssd1306_cmd(0xD5);
     754:	85 ed       	ldi	r24, 0xD5	; 213
     756:	0e 94 50 03 	call	0x6a0	; 0x6a0 <ssd1306_cmd>
    ssd1306_cmd(0x80);
     75a:	80 e8       	ldi	r24, 0x80	; 128
     75c:	0e 94 50 03 	call	0x6a0	; 0x6a0 <ssd1306_cmd>

    // Включаем charge pump
    ssd1306_cmd(0x8D);
     760:	8d e8       	ldi	r24, 0x8D	; 141
     762:	0e 94 50 03 	call	0x6a0	; 0x6a0 <ssd1306_cmd>
    ssd1306_cmd(0x14);
     766:	84 e1       	ldi	r24, 0x14	; 20
     768:	0e 94 50 03 	call	0x6a0	; 0x6a0 <ssd1306_cmd>

    // Pre-charge period
    ssd1306_cmd(0xD9);
     76c:	89 ed       	ldi	r24, 0xD9	; 217
     76e:	0e 94 50 03 	call	0x6a0	; 0x6a0 <ssd1306_cmd>
    ssd1306_cmd(0x22);
     772:	82 e2       	ldi	r24, 0x22	; 34
     774:	0e 94 50 03 	call	0x6a0	; 0x6a0 <ssd1306_cmd>

    // VCOMH deselect level
    ssd1306_cmd(0xDB);
     778:	8b ed       	ldi	r24, 0xDB	; 219
     77a:	0e 94 50 03 	call	0x6a0	; 0x6a0 <ssd1306_cmd>
    ssd1306_cmd(0x20);
     77e:	80 e2       	ldi	r24, 0x20	; 32
     780:	0e 94 50 03 	call	0x6a0	; 0x6a0 <ssd1306_cmd>
    ssd1306_cmd(SSD1306_DISPLAYON);
     784:	8f ea       	ldi	r24, 0xAF	; 175
     786:	0e 94 50 03 	call	0x6a0	; 0x6a0 <ssd1306_cmd>
     78a:	8f ef       	ldi	r24, 0xFF	; 255
     78c:	91 ee       	ldi	r25, 0xE1	; 225
     78e:	a4 e0       	ldi	r26, 0x04	; 4
     790:	81 50       	subi	r24, 0x01	; 1
     792:	90 40       	sbci	r25, 0x00	; 0
     794:	a0 40       	sbci	r26, 0x00	; 0
     796:	e1 f7       	brne	.-8      	; 0x790 <ssd1306_init+0xd2>
     798:	00 c0       	rjmp	.+0      	; 0x79a <ssd1306_init+0xdc>
     79a:	00 00       	nop
    _delay_ms(100);
}
     79c:	08 95       	ret

0000079e <ssd1306_set_cursor>:
        i2c_stop();
    }
    ssd1306_set_cursor(0, 0);
}

void ssd1306_set_cursor(uint8_t page, uint8_t column) {
     79e:	1f 93       	push	r17
    if (page > 7) page = 7;
    if (column > 127) column = 127;
     7a0:	88 30       	cpi	r24, 0x08	; 8
     7a2:	08 f0       	brcs	.+2      	; 0x7a6 <ssd1306_set_cursor+0x8>
     7a4:	87 e0       	ldi	r24, 0x07	; 7
     7a6:	67 fd       	sbrc	r22, 7
     7a8:	6f e7       	ldi	r22, 0x7F	; 127
    column += 2; // костыль
     7aa:	16 2f       	mov	r17, r22
     7ac:	1e 5f       	subi	r17, 0xFE	; 254
    ssd1306_cmd(0xB0 + page);
     7ae:	80 55       	subi	r24, 0x50	; 80
     7b0:	0e 94 50 03 	call	0x6a0	; 0x6a0 <ssd1306_cmd>
    ssd1306_cmd((column & 0x0F) | 0x00);
     7b4:	81 2f       	mov	r24, r17
     7b6:	8f 70       	andi	r24, 0x0F	; 15
     7b8:	0e 94 50 03 	call	0x6a0	; 0x6a0 <ssd1306_cmd>
    ssd1306_cmd((column >> 4) | 0x10);
     7bc:	81 2f       	mov	r24, r17
     7be:	82 95       	swap	r24
     7c0:	8f 70       	andi	r24, 0x0F	; 15
     7c2:	80 61       	ori	r24, 0x10	; 16
     7c4:	0e 94 50 03 	call	0x6a0	; 0x6a0 <ssd1306_cmd>
}
     7c8:	1f 91       	pop	r17
     7ca:	08 95       	ret

000007cc <ssd1306_clear>:
    ssd1306_cmd(0x20);
    ssd1306_cmd(SSD1306_DISPLAYON);
    _delay_ms(100);
}

void ssd1306_clear(void) {
     7cc:	0f 93       	push	r16
     7ce:	1f 93       	push	r17
    for (uint8_t page = 0; page < 8; page++) {
     7d0:	10 e0       	ldi	r17, 0x00	; 0
        ssd1306_set_cursor(page, 0);
     7d2:	81 2f       	mov	r24, r17
     7d4:	60 e0       	ldi	r22, 0x00	; 0
     7d6:	0e 94 cf 03 	call	0x79e	; 0x79e <ssd1306_set_cursor>
        
        i2c_start(SSD1306_ADDRESS);
     7da:	88 e7       	ldi	r24, 0x78	; 120
     7dc:	0e 94 18 03 	call	0x630	; 0x630 <i2c_start>
        i2c_write(0x40);
     7e0:	80 e4       	ldi	r24, 0x40	; 64
     7e2:	0e 94 3f 03 	call	0x67e	; 0x67e <i2c_write>
        for (uint8_t col = 0; col < 128; col++) {
     7e6:	00 e0       	ldi	r16, 0x00	; 0
            i2c_write(0x00);
     7e8:	80 e0       	ldi	r24, 0x00	; 0
     7ea:	0e 94 3f 03 	call	0x67e	; 0x67e <i2c_write>
    for (uint8_t page = 0; page < 8; page++) {
        ssd1306_set_cursor(page, 0);
        
        i2c_start(SSD1306_ADDRESS);
        i2c_write(0x40);
        for (uint8_t col = 0; col < 128; col++) {
     7ee:	0f 5f       	subi	r16, 0xFF	; 255
     7f0:	00 38       	cpi	r16, 0x80	; 128
     7f2:	d1 f7       	brne	.-12     	; 0x7e8 <ssd1306_clear+0x1c>
            i2c_write(0x00);
        }
        
        i2c_stop();
     7f4:	0e 94 37 03 	call	0x66e	; 0x66e <i2c_stop>
    ssd1306_cmd(SSD1306_DISPLAYON);
    _delay_ms(100);
}

void ssd1306_clear(void) {
    for (uint8_t page = 0; page < 8; page++) {
     7f8:	1f 5f       	subi	r17, 0xFF	; 255
     7fa:	18 30       	cpi	r17, 0x08	; 8
     7fc:	51 f7       	brne	.-44     	; 0x7d2 <ssd1306_clear+0x6>
            i2c_write(0x00);
        }
        
        i2c_stop();
    }
    ssd1306_set_cursor(0, 0);
     7fe:	80 e0       	ldi	r24, 0x00	; 0
     800:	60 e0       	ldi	r22, 0x00	; 0
     802:	0e 94 cf 03 	call	0x79e	; 0x79e <ssd1306_set_cursor>
}
     806:	1f 91       	pop	r17
     808:	0f 91       	pop	r16
     80a:	08 95       	ret

0000080c <ssd1306_print_char>:
    ssd1306_cmd(0xB0 + page);
    ssd1306_cmd((column & 0x0F) | 0x00);
    ssd1306_cmd((column >> 4) | 0x10);
}

void ssd1306_print_char(char c) {
     80c:	0f 93       	push	r16
     80e:	1f 93       	push	r17
     810:	cf 93       	push	r28
     812:	df 93       	push	r29
    uint8_t char_index;
    
    if (c >= '0' && c <= '9') {
     814:	98 2f       	mov	r25, r24
     816:	90 53       	subi	r25, 0x30	; 48
     818:	9a 30       	cpi	r25, 0x0A	; 10
     81a:	30 f4       	brcc	.+12     	; 0x828 <ssd1306_print_char+0x1c>
        char_index = (c - '0' + 1) * 5;
     81c:	08 2f       	mov	r16, r24
     81e:	00 0f       	add	r16, r16
     820:	00 0f       	add	r16, r16
     822:	08 0f       	add	r16, r24
     824:	0b 5e       	subi	r16, 0xEB	; 235
     826:	0b c0       	rjmp	.+22     	; 0x83e <ssd1306_print_char+0x32>
    } else if (c >= 'A' && c <= 'Z') {
     828:	98 2f       	mov	r25, r24
     82a:	91 54       	subi	r25, 0x41	; 65
     82c:	9a 31       	cpi	r25, 0x1A	; 26
     82e:	30 f4       	brcc	.+12     	; 0x83c <ssd1306_print_char+0x30>
        char_index = (c - 'A' + 11) * 5;
     830:	08 2f       	mov	r16, r24
     832:	00 0f       	add	r16, r16
     834:	00 0f       	add	r16, r16
     836:	08 0f       	add	r16, r24
     838:	0e 50       	subi	r16, 0x0E	; 14
     83a:	01 c0       	rjmp	.+2      	; 0x83e <ssd1306_print_char+0x32>
    } else {
        char_index = 0;
     83c:	00 e0       	ldi	r16, 0x00	; 0
    }
    
    i2c_start(SSD1306_ADDRESS);
     83e:	88 e7       	ldi	r24, 0x78	; 120
     840:	0e 94 18 03 	call	0x630	; 0x630 <i2c_start>
    i2c_write(0x40);
     844:	80 e4       	ldi	r24, 0x40	; 64
     846:	0e 94 3f 03 	call	0x67e	; 0x67e <i2c_write>
     84a:	c0 2f       	mov	r28, r16
     84c:	d0 e0       	ldi	r29, 0x00	; 0
    ssd1306_cmd(0xB0 + page);
    ssd1306_cmd((column & 0x0F) | 0x00);
    ssd1306_cmd((column >> 4) | 0x10);
}

void ssd1306_print_char(char c) {
     84e:	8e 01       	movw	r16, r28
     850:	0b 5f       	subi	r16, 0xFB	; 251
     852:	1f 4f       	sbci	r17, 0xFF	; 255
    
    i2c_start(SSD1306_ADDRESS);
    i2c_write(0x40);
    
    for (uint8_t i = 0; i < 5; i++) {
        i2c_write(pgm_read_byte(&font_5x8[char_index + i]));
     854:	fe 01       	movw	r30, r28
     856:	e8 59       	subi	r30, 0x98	; 152
     858:	ff 4f       	sbci	r31, 0xFF	; 255
     85a:	84 91       	lpm	r24, Z+
     85c:	0e 94 3f 03 	call	0x67e	; 0x67e <i2c_write>
     860:	21 96       	adiw	r28, 0x01	; 1
    }
    
    i2c_start(SSD1306_ADDRESS);
    i2c_write(0x40);
    
    for (uint8_t i = 0; i < 5; i++) {
     862:	c0 17       	cp	r28, r16
     864:	d1 07       	cpc	r29, r17
     866:	b1 f7       	brne	.-20     	; 0x854 <ssd1306_print_char+0x48>
        i2c_write(pgm_read_byte(&font_5x8[char_index + i]));
    }
    
    i2c_write(0x00);
     868:	80 e0       	ldi	r24, 0x00	; 0
     86a:	0e 94 3f 03 	call	0x67e	; 0x67e <i2c_write>
    i2c_stop();
     86e:	0e 94 37 03 	call	0x66e	; 0x66e <i2c_stop>
}
     872:	df 91       	pop	r29
     874:	cf 91       	pop	r28
     876:	1f 91       	pop	r17
     878:	0f 91       	pop	r16
     87a:	08 95       	ret

0000087c <ssd1306_print_string>:

void ssd1306_print_string(const char* str) {
     87c:	ef 92       	push	r14
     87e:	ff 92       	push	r15
     880:	cf 93       	push	r28
     882:	df 93       	push	r29
     884:	e8 2e       	mov	r14, r24
     886:	e7 01       	movw	r28, r14
     888:	7e 01       	movw	r14, r28
     88a:	f9 2e       	mov	r15, r25
     88c:	e7 01       	movw	r28, r14
    while (*str) {
     88e:	02 c0       	rjmp	.+4      	; 0x894 <ssd1306_print_string+0x18>
        ssd1306_print_char(*str++);
     890:	0e 94 06 04 	call	0x80c	; 0x80c <ssd1306_print_char>
    i2c_write(0x00);
    i2c_stop();
}

void ssd1306_print_string(const char* str) {
    while (*str) {
     894:	89 91       	ld	r24, Y+
     896:	88 23       	and	r24, r24
     898:	d9 f7       	brne	.-10     	; 0x890 <ssd1306_print_string+0x14>
        ssd1306_print_char(*str++);
    }
}
     89a:	df 91       	pop	r29
     89c:	cf 91       	pop	r28
     89e:	ff 90       	pop	r15
     8a0:	ef 90       	pop	r14
     8a2:	08 95       	ret

000008a4 <ssd1306_test_chars>:

void ssd1306_test_chars(void) {
    ssd1306_clear();
     8a4:	0e 94 e6 03 	call	0x7cc	; 0x7cc <ssd1306_clear>
    
    ssd1306_set_cursor(0, 0);
     8a8:	80 e0       	ldi	r24, 0x00	; 0
     8aa:	60 e0       	ldi	r22, 0x00	; 0
     8ac:	0e 94 cf 03 	call	0x79e	; 0x79e <ssd1306_set_cursor>
    ssd1306_print_string("0123456789");
     8b0:	8b e0       	ldi	r24, 0x0B	; 11
     8b2:	91 e0       	ldi	r25, 0x01	; 1
     8b4:	0e 94 3e 04 	call	0x87c	; 0x87c <ssd1306_print_string>
    
    ssd1306_set_cursor(2, 0);
     8b8:	82 e0       	ldi	r24, 0x02	; 2
     8ba:	60 e0       	ldi	r22, 0x00	; 0
     8bc:	0e 94 cf 03 	call	0x79e	; 0x79e <ssd1306_set_cursor>
    ssd1306_print_string("ABCDEFGHIJKLM");
     8c0:	86 e1       	ldi	r24, 0x16	; 22
     8c2:	91 e0       	ldi	r25, 0x01	; 1
     8c4:	0e 94 3e 04 	call	0x87c	; 0x87c <ssd1306_print_string>
    
    ssd1306_set_cursor(4, 0);
     8c8:	84 e0       	ldi	r24, 0x04	; 4
     8ca:	60 e0       	ldi	r22, 0x00	; 0
     8cc:	0e 94 cf 03 	call	0x79e	; 0x79e <ssd1306_set_cursor>
    ssd1306_print_string("NOPQRSTUVWXYZ");
     8d0:	84 e2       	ldi	r24, 0x24	; 36
     8d2:	91 e0       	ldi	r25, 0x01	; 1
     8d4:	0e 94 3e 04 	call	0x87c	; 0x87c <ssd1306_print_string>
    
    ssd1306_set_cursor(6, 0);
     8d8:	86 e0       	ldi	r24, 0x06	; 6
     8da:	60 e0       	ldi	r22, 0x00	; 0
     8dc:	0e 94 cf 03 	call	0x79e	; 0x79e <ssd1306_set_cursor>
    ssd1306_print_string("TEST WY");
     8e0:	82 e3       	ldi	r24, 0x32	; 50
     8e2:	91 e0       	ldi	r25, 0x01	; 1
     8e4:	0e 94 3e 04 	call	0x87c	; 0x87c <ssd1306_print_string>
     8e8:	08 95       	ret

000008ea <SPI_init>:
unsigned char SD_data[512];
uint8_t SD_type = SD_CARD_TYPE_ERR;

/* SPI Functions */
void SPI_init(void) {
    DDRB |= (1 << MOSI_PIN) | (1 << SCK_PIN) | (1 << CS_PIN);
     8ea:	84 b1       	in	r24, 0x04	; 4
     8ec:	8c 62       	ori	r24, 0x2C	; 44
     8ee:	84 b9       	out	0x04, r24	; 4
    DDRB &= ~(1 << MISO_PIN);
     8f0:	24 98       	cbi	0x04, 4	; 4
    SPCR = (1 << SPE) | (1 << MSTR) | (1 << SPR1) | (1 << SPR0);
     8f2:	83 e5       	ldi	r24, 0x53	; 83
     8f4:	8c bd       	out	0x2c, r24	; 44
}
     8f6:	08 95       	ret

000008f8 <SPI_put>:

uint8_t SPI_put(uint8_t data) {
    SPDR = data;
     8f8:	8e bd       	out	0x2e, r24	; 46
    while (!(SPSR & (1 << SPIF)));
     8fa:	0d b4       	in	r0, 0x2d	; 45
     8fc:	07 fe       	sbrs	r0, 7
     8fe:	fd cf       	rjmp	.-6      	; 0x8fa <SPI_put+0x2>
    return SPDR;
     900:	8e b5       	in	r24, 0x2e	; 46
}
     902:	08 95       	ret

00000904 <SD_command>:

/* SD Card Functions */
unsigned char SD_command(unsigned char cmd, unsigned long arg) {
     904:	df 92       	push	r13
     906:	ef 92       	push	r14
     908:	ff 92       	push	r15
     90a:	0f 93       	push	r16
     90c:	1f 93       	push	r17
     90e:	cf 93       	push	r28
     910:	df 93       	push	r29
     912:	d8 2e       	mov	r13, r24
     914:	7a 01       	movw	r14, r20
     916:	8b 01       	movw	r16, r22
    int i = 0;
    unsigned char status;
    unsigned char crc = 0xFF;

    CS_LOW;
     918:	2a 98       	cbi	0x05, 2	; 5
     91a:	cf ef       	ldi	r28, 0xFF	; 255
     91c:	df e0       	ldi	r29, 0x0F	; 15

    while (i < SD_TIMEOUT_CNT) { 
        status = SPI_put(0xFF); 
     91e:	8f ef       	ldi	r24, 0xFF	; 255
     920:	0e 94 7c 04 	call	0x8f8	; 0x8f8 <SPI_put>
        if (status == 0xFF) break; 
     924:	8f 3f       	cpi	r24, 0xFF	; 255
     926:	19 f0       	breq	.+6      	; 0x92e <SD_command+0x2a>
     928:	21 97       	sbiw	r28, 0x01	; 1
    unsigned char status;
    unsigned char crc = 0xFF;

    CS_LOW;

    while (i < SD_TIMEOUT_CNT) { 
     92a:	c9 f7       	brne	.-14     	; 0x91e <SD_command+0x1a>
     92c:	34 c0       	rjmp	.+104    	; 0x996 <SD_command+0x92>
    if (i >= SD_TIMEOUT_CNT) { 
        CS_HIGH; 
        return 0xFF; 
    }

    SPI_put(cmd | 0x40);
     92e:	8d 2d       	mov	r24, r13
     930:	80 64       	ori	r24, 0x40	; 64
     932:	0e 94 7c 04 	call	0x8f8	; 0x8f8 <SPI_put>
    for (i = 24; i >= 0; i -= 8) SPI_put(arg >> i);
     936:	c8 e1       	ldi	r28, 0x18	; 24
     938:	d0 e0       	ldi	r29, 0x00	; 0
     93a:	d8 01       	movw	r26, r16
     93c:	c7 01       	movw	r24, r14
     93e:	0c 2e       	mov	r0, r28
     940:	04 c0       	rjmp	.+8      	; 0x94a <SD_command+0x46>
     942:	b6 95       	lsr	r27
     944:	a7 95       	ror	r26
     946:	97 95       	ror	r25
     948:	87 95       	ror	r24
     94a:	0a 94       	dec	r0
     94c:	d2 f7       	brpl	.-12     	; 0x942 <SD_command+0x3e>
     94e:	0e 94 7c 04 	call	0x8f8	; 0x8f8 <SPI_put>
     952:	28 97       	sbiw	r28, 0x08	; 8
     954:	3f ef       	ldi	r19, 0xFF	; 255
     956:	c8 3f       	cpi	r28, 0xF8	; 248
     958:	d3 07       	cpc	r29, r19
     95a:	79 f7       	brne	.-34     	; 0x93a <SD_command+0x36>

    if (cmd == SD_CMD0) crc = 0x95;
     95c:	dd 20       	and	r13, r13
     95e:	29 f0       	breq	.+10     	; 0x96a <SD_command+0x66>
    if (cmd == SD_CMD8) crc = 0x87;
     960:	8d 2d       	mov	r24, r13
     962:	88 30       	cpi	r24, 0x08	; 8
     964:	21 f0       	breq	.+8      	; 0x96e <SD_command+0x6a>

/* SD Card Functions */
unsigned char SD_command(unsigned char cmd, unsigned long arg) {
    int i = 0;
    unsigned char status;
    unsigned char crc = 0xFF;
     966:	8f ef       	ldi	r24, 0xFF	; 255
     968:	03 c0       	rjmp	.+6      	; 0x970 <SD_command+0x6c>
    }

    SPI_put(cmd | 0x40);
    for (i = 24; i >= 0; i -= 8) SPI_put(arg >> i);

    if (cmd == SD_CMD0) crc = 0x95;
     96a:	85 e9       	ldi	r24, 0x95	; 149
     96c:	01 c0       	rjmp	.+2      	; 0x970 <SD_command+0x6c>
    if (cmd == SD_CMD8) crc = 0x87;
     96e:	87 e8       	ldi	r24, 0x87	; 135
    SPI_put(crc);
     970:	0e 94 7c 04 	call	0x8f8	; 0x8f8 <SPI_put>

    for (i = 0; ((status = SPI_put(0xFF)) & 0x80) && i != 0xFF; i++);
     974:	c0 e0       	ldi	r28, 0x00	; 0
     976:	d1 e0       	ldi	r29, 0x01	; 1
     978:	8f ef       	ldi	r24, 0xFF	; 255
     97a:	0e 94 7c 04 	call	0x8f8	; 0x8f8 <SPI_put>
     97e:	87 ff       	sbrs	r24, 7
     980:	02 c0       	rjmp	.+4      	; 0x986 <SD_command+0x82>
     982:	21 97       	sbiw	r28, 0x01	; 1
     984:	c9 f7       	brne	.-14     	; 0x978 <SD_command+0x74>
    return status;
}
     986:	df 91       	pop	r29
     988:	cf 91       	pop	r28
     98a:	1f 91       	pop	r17
     98c:	0f 91       	pop	r16
     98e:	ff 90       	pop	r15
     990:	ef 90       	pop	r14
     992:	df 90       	pop	r13
     994:	08 95       	ret
        if (status == 0xFF) break; 
        i++; 
    }

    if (i >= SD_TIMEOUT_CNT) { 
        CS_HIGH; 
     996:	2a 9a       	sbi	0x05, 2	; 5
        return 0xFF; 
     998:	8f ef       	ldi	r24, 0xFF	; 255
     99a:	f5 cf       	rjmp	.-22     	; 0x986 <SD_command+0x82>

0000099c <SD_acmd>:

    for (i = 0; ((status = SPI_put(0xFF)) & 0x80) && i != 0xFF; i++);
    return status;
}

uint8_t SD_acmd(uint8_t cmd, uint32_t arg) {
     99c:	df 92       	push	r13
     99e:	ef 92       	push	r14
     9a0:	ff 92       	push	r15
     9a2:	0f 93       	push	r16
     9a4:	1f 93       	push	r17
     9a6:	d8 2e       	mov	r13, r24
     9a8:	7a 01       	movw	r14, r20
     9aa:	8b 01       	movw	r16, r22
    SD_command(SD_CMD55, 0);
     9ac:	87 e3       	ldi	r24, 0x37	; 55
     9ae:	40 e0       	ldi	r20, 0x00	; 0
     9b0:	50 e0       	ldi	r21, 0x00	; 0
     9b2:	ba 01       	movw	r22, r20
     9b4:	0e 94 82 04 	call	0x904	; 0x904 <SD_command>
    return SD_command(cmd, arg);
     9b8:	8d 2d       	mov	r24, r13
     9ba:	b8 01       	movw	r22, r16
     9bc:	a7 01       	movw	r20, r14
     9be:	0e 94 82 04 	call	0x904	; 0x904 <SD_command>
}
     9c2:	1f 91       	pop	r17
     9c4:	0f 91       	pop	r16
     9c6:	ff 90       	pop	r15
     9c8:	ef 90       	pop	r14
     9ca:	df 90       	pop	r13
     9cc:	08 95       	ret

000009ce <SD_read>:

char SD_read(unsigned long lba) {
     9ce:	cf 93       	push	r28
     9d0:	df 93       	push	r29
     9d2:	ab 01       	movw	r20, r22
     9d4:	bc 01       	movw	r22, r24
    int i = 0;
    unsigned char status;
    unsigned long address = (SD_type == SD_CARD_TYPE_SDHC) ? lba : lba * 512;
     9d6:	80 91 52 01 	lds	r24, 0x0152
     9da:	83 30       	cpi	r24, 0x03	; 3
     9dc:	39 f0       	breq	.+14     	; 0x9ec <SD_read+0x1e>
     9de:	89 e0       	ldi	r24, 0x09	; 9
     9e0:	44 0f       	add	r20, r20
     9e2:	55 1f       	adc	r21, r21
     9e4:	66 1f       	adc	r22, r22
     9e6:	77 1f       	adc	r23, r23
     9e8:	8a 95       	dec	r24
     9ea:	d1 f7       	brne	.-12     	; 0x9e0 <SD_read+0x12>

    if (SD_command(SD_CMD17, address)) {
     9ec:	81 e1       	ldi	r24, 0x11	; 17
     9ee:	0e 94 82 04 	call	0x904	; 0x904 <SD_command>
     9f2:	88 23       	and	r24, r24
     9f4:	79 f4       	brne	.+30     	; 0xa14 <SD_read+0x46>
     9f6:	c0 e0       	ldi	r28, 0x00	; 0
     9f8:	d0 e0       	ldi	r29, 0x00	; 0
     9fa:	05 c0       	rjmp	.+10     	; 0xa06 <SD_read+0x38>
        CS_HIGH; 
        return 1;
    }

    while ((status = SPI_put(0xFF)) == 0xFF) {
        if (i++ > SD_TIMEOUT_CNT) {
     9fc:	80 e1       	ldi	r24, 0x10	; 16
     9fe:	c0 30       	cpi	r28, 0x00	; 0
     a00:	d8 07       	cpc	r29, r24
     a02:	41 f0       	breq	.+16     	; 0xa14 <SD_read+0x46>
     a04:	21 96       	adiw	r28, 0x01	; 1
    if (SD_command(SD_CMD17, address)) {
        CS_HIGH; 
        return 1;
    }

    while ((status = SPI_put(0xFF)) == 0xFF) {
     a06:	8f ef       	ldi	r24, 0xFF	; 255
     a08:	0e 94 7c 04 	call	0x8f8	; 0x8f8 <SPI_put>
     a0c:	8f 3f       	cpi	r24, 0xFF	; 255
     a0e:	b1 f3       	breq	.-20     	; 0x9fc <SD_read+0x2e>
            CS_HIGH; 
            return 1;
        }
    }

    if (status != 0xFE) {
     a10:	8e 3f       	cpi	r24, 0xFE	; 254
     a12:	19 f0       	breq	.+6      	; 0xa1a <SD_read+0x4c>
        CS_HIGH; 
     a14:	2a 9a       	sbi	0x05, 2	; 5
        return 1;
     a16:	81 e0       	ldi	r24, 0x01	; 1
     a18:	0c c0       	rjmp	.+24     	; 0xa32 <SD_read+0x64>
     a1a:	c7 e5       	ldi	r28, 0x57	; 87
     a1c:	d1 e0       	ldi	r29, 0x01	; 1
    }

    for (i = 0; i < 512; i++) {
        SD_data[i] = SPI_put(0xFF);
     a1e:	8f ef       	ldi	r24, 0xFF	; 255
     a20:	0e 94 7c 04 	call	0x8f8	; 0x8f8 <SPI_put>
     a24:	89 93       	st	Y+, r24
    if (status != 0xFE) {
        CS_HIGH; 
        return 1;
    }

    for (i = 0; i < 512; i++) {
     a26:	83 e0       	ldi	r24, 0x03	; 3
     a28:	c7 35       	cpi	r28, 0x57	; 87
     a2a:	d8 07       	cpc	r29, r24
     a2c:	c1 f7       	brne	.-16     	; 0xa1e <SD_read+0x50>
        SD_data[i] = SPI_put(0xFF);
    }

    CS_HIGH;
     a2e:	2a 9a       	sbi	0x05, 2	; 5
    return 0;
     a30:	80 e0       	ldi	r24, 0x00	; 0
}
     a32:	df 91       	pop	r29
     a34:	cf 91       	pop	r28
     a36:	08 95       	ret

00000a38 <SD_write>:

char SD_write(unsigned long lba) {
     a38:	cf 93       	push	r28
     a3a:	df 93       	push	r29
     a3c:	ab 01       	movw	r20, r22
     a3e:	bc 01       	movw	r22, r24
    int i = 0;
    unsigned char status;
    unsigned long address = (SD_type == SD_CARD_TYPE_SDHC) ? lba : lba * 512;
     a40:	80 91 52 01 	lds	r24, 0x0152
     a44:	83 30       	cpi	r24, 0x03	; 3
     a46:	39 f0       	breq	.+14     	; 0xa56 <SD_write+0x1e>
     a48:	99 e0       	ldi	r25, 0x09	; 9
     a4a:	44 0f       	add	r20, r20
     a4c:	55 1f       	adc	r21, r21
     a4e:	66 1f       	adc	r22, r22
     a50:	77 1f       	adc	r23, r23
     a52:	9a 95       	dec	r25
     a54:	d1 f7       	brne	.-12     	; 0xa4a <SD_write+0x12>

    if (SD_command(SD_CMD24, address)) {
     a56:	88 e1       	ldi	r24, 0x18	; 24
     a58:	0e 94 82 04 	call	0x904	; 0x904 <SD_command>
     a5c:	88 23       	and	r24, r24
     a5e:	91 f5       	brne	.+100    	; 0xac4 <SD_write+0x8c>
        CS_HIGH; 
        return 1;
    }

    SPI_put(0xFE);
     a60:	8e ef       	ldi	r24, 0xFE	; 254
     a62:	0e 94 7c 04 	call	0x8f8	; 0x8f8 <SPI_put>
     a66:	c7 e5       	ldi	r28, 0x57	; 87
     a68:	d1 e0       	ldi	r29, 0x01	; 1
    for (i = 0; i < 512; i++) {
        SPI_put(SD_data[i]);
     a6a:	89 91       	ld	r24, Y+
     a6c:	0e 94 7c 04 	call	0x8f8	; 0x8f8 <SPI_put>
        CS_HIGH; 
        return 1;
    }

    SPI_put(0xFE);
    for (i = 0; i < 512; i++) {
     a70:	83 e0       	ldi	r24, 0x03	; 3
     a72:	c7 35       	cpi	r28, 0x57	; 87
     a74:	d8 07       	cpc	r29, r24
     a76:	c9 f7       	brne	.-14     	; 0xa6a <SD_write+0x32>
        SPI_put(SD_data[i]);
    }
    SPI_put(0xFF);
     a78:	8f ef       	ldi	r24, 0xFF	; 255
     a7a:	0e 94 7c 04 	call	0x8f8	; 0x8f8 <SPI_put>
    SPI_put(0xFF);
     a7e:	8f ef       	ldi	r24, 0xFF	; 255
     a80:	0e 94 7c 04 	call	0x8f8	; 0x8f8 <SPI_put>

    status = SPI_put(0xFF);
     a84:	8f ef       	ldi	r24, 0xFF	; 255
     a86:	0e 94 7c 04 	call	0x8f8	; 0x8f8 <SPI_put>
    if ((status & 0x1F) != 0x05) {
     a8a:	8f 71       	andi	r24, 0x1F	; 31
     a8c:	85 30       	cpi	r24, 0x05	; 5
     a8e:	d1 f4       	brne	.+52     	; 0xac4 <SD_write+0x8c>
     a90:	c0 e0       	ldi	r28, 0x00	; 0
     a92:	d2 e0       	ldi	r29, 0x02	; 2
     a94:	05 c0       	rjmp	.+10     	; 0xaa0 <SD_write+0x68>
        CS_HIGH; 
        return 1;
    }

    while ((status = SPI_put(0xFF)) == 0xFF) {
        if (i++ > SD_TIMEOUT_CNT) {
     a96:	80 e1       	ldi	r24, 0x10	; 16
     a98:	c0 30       	cpi	r28, 0x00	; 0
     a9a:	d8 07       	cpc	r29, r24
     a9c:	99 f0       	breq	.+38     	; 0xac4 <SD_write+0x8c>
     a9e:	21 96       	adiw	r28, 0x01	; 1
    if ((status & 0x1F) != 0x05) {
        CS_HIGH; 
        return 1;
    }

    while ((status = SPI_put(0xFF)) == 0xFF) {
     aa0:	8f ef       	ldi	r24, 0xFF	; 255
     aa2:	0e 94 7c 04 	call	0x8f8	; 0x8f8 <SPI_put>
     aa6:	8f 3f       	cpi	r24, 0xFF	; 255
     aa8:	b1 f3       	breq	.-20     	; 0xa96 <SD_write+0x5e>
            CS_HIGH; 
            return 1;
        }
    }

    if (SD_command(SD_CMD13, 0) || SPI_put(0xFF)) {
     aaa:	8d e0       	ldi	r24, 0x0D	; 13
     aac:	40 e0       	ldi	r20, 0x00	; 0
     aae:	50 e0       	ldi	r21, 0x00	; 0
     ab0:	ba 01       	movw	r22, r20
     ab2:	0e 94 82 04 	call	0x904	; 0x904 <SD_command>
     ab6:	88 23       	and	r24, r24
     ab8:	29 f4       	brne	.+10     	; 0xac4 <SD_write+0x8c>
     aba:	8f ef       	ldi	r24, 0xFF	; 255
     abc:	0e 94 7c 04 	call	0x8f8	; 0x8f8 <SPI_put>
     ac0:	88 23       	and	r24, r24
     ac2:	19 f0       	breq	.+6      	; 0xaca <SD_write+0x92>
        CS_HIGH; 
     ac4:	2a 9a       	sbi	0x05, 2	; 5
        return 1;
     ac6:	81 e0       	ldi	r24, 0x01	; 1
     ac8:	02 c0       	rjmp	.+4      	; 0xace <SD_write+0x96>
    }

    CS_HIGH;
     aca:	2a 9a       	sbi	0x05, 2	; 5
    return 0;
     acc:	80 e0       	ldi	r24, 0x00	; 0
}
     ace:	df 91       	pop	r29
     ad0:	cf 91       	pop	r28
     ad2:	08 95       	ret

00000ad4 <disk_status>:

DSTATUS disk_status (
	BYTE pdrv		/* Physical drive number to identify the drive */
)
{
	if (pdrv != DEV_MMC) return STA_NOINIT;
     ad4:	91 e0       	ldi	r25, 0x01	; 1
     ad6:	88 23       	and	r24, r24
     ad8:	09 f4       	brne	.+2      	; 0xadc <disk_status+0x8>
     ada:	90 e0       	ldi	r25, 0x00	; 0
	
	// Simple status check - you can enhance this
	return 0; // Assume drive is ready
}
     adc:	89 2f       	mov	r24, r25
     ade:	08 95       	ret

00000ae0 <disk_initialize>:
/*-----------------------------------------------------------------------*/
/* Initialize a Drive                                                    */
/*-----------------------------------------------------------------------*/

DSTATUS disk_initialize (BYTE pdrv)
{
     ae0:	ef 92       	push	r14
     ae2:	ff 92       	push	r15
     ae4:	0f 93       	push	r16
     ae6:	1f 93       	push	r17
     ae8:	cf 93       	push	r28
     aea:	df 93       	push	r29
    uint8_t i, status;
    uint32_t arg;
    uint16_t timeout;

    if (pdrv != 0) return STA_NOINIT;
     aec:	88 23       	and	r24, r24
     aee:	09 f0       	breq	.+2      	; 0xaf2 <disk_initialize+0x12>
     af0:	86 c0       	rjmp	.+268    	; 0xbfe <disk_initialize+0x11e>

    // 1. Инициализация SPI
    SPI_init();
     af2:	0e 94 75 04 	call	0x8ea	; 0x8ea <SPI_init>
    CS_HIGH;
     af6:	2a 9a       	sbi	0x05, 2	; 5
    
    // 2. Подаем 80+ тактов для инициализации
    for (i = 0; i < 20; i++) SPI_put(0xFF);
     af8:	10 e0       	ldi	r17, 0x00	; 0
     afa:	8f ef       	ldi	r24, 0xFF	; 255
     afc:	0e 94 7c 04 	call	0x8f8	; 0x8f8 <SPI_put>
     b00:	1f 5f       	subi	r17, 0xFF	; 255
     b02:	14 31       	cpi	r17, 0x14	; 20
     b04:	d1 f7       	brne	.-12     	; 0xafa <disk_initialize+0x1a>
     b06:	8f e3       	ldi	r24, 0x3F	; 63
     b08:	9c e9       	ldi	r25, 0x9C	; 156
     b0a:	01 97       	sbiw	r24, 0x01	; 1
     b0c:	f1 f7       	brne	.-4      	; 0xb0a <disk_initialize+0x2a>
     b0e:	00 c0       	rjmp	.+0      	; 0xb10 <disk_initialize+0x30>
     b10:	00 00       	nop
    _delay_ms(10);  // Даем время на стабилизацию

    // 3. Активируем устройство
    CS_LOW;
     b12:	2a 98       	cbi	0x05, 2	; 5
    
    // 4. Ждем ответа от карты (должен быть 0xFF)
    timeout = 0;
     b14:	c0 e0       	ldi	r28, 0x00	; 0
     b16:	d0 e0       	ldi	r29, 0x00	; 0
    while ((status = SPI_put(0xFF)) != 0xFF) {
     b18:	06 c0       	rjmp	.+12     	; 0xb26 <disk_initialize+0x46>
        if (timeout++ > 10000) {
     b1a:	97 e2       	ldi	r25, 0x27	; 39
     b1c:	c1 31       	cpi	r28, 0x11	; 17
     b1e:	d9 07       	cpc	r29, r25
     b20:	09 f4       	brne	.+2      	; 0xb24 <disk_initialize+0x44>
     b22:	3f c0       	rjmp	.+126    	; 0xba2 <disk_initialize+0xc2>
     b24:	21 96       	adiw	r28, 0x01	; 1
    // 3. Активируем устройство
    CS_LOW;
    
    // 4. Ждем ответа от карты (должен быть 0xFF)
    timeout = 0;
    while ((status = SPI_put(0xFF)) != 0xFF) {
     b26:	8f ef       	ldi	r24, 0xFF	; 255
     b28:	0e 94 7c 04 	call	0x8f8	; 0x8f8 <SPI_put>
     b2c:	8f 3f       	cpi	r24, 0xFF	; 255
     b2e:	a9 f7       	brne	.-22     	; 0xb1a <disk_initialize+0x3a>
            return STA_NOINIT;  // Карта не отвечает
        }
    }

    // 5. Отправляем CMD0 (reset)
    status = SD_command(SD_CMD0, 0);
     b30:	80 e0       	ldi	r24, 0x00	; 0
     b32:	40 e0       	ldi	r20, 0x00	; 0
     b34:	50 e0       	ldi	r21, 0x00	; 0
     b36:	ba 01       	movw	r22, r20
     b38:	0e 94 82 04 	call	0x904	; 0x904 <SD_command>
     b3c:	18 2f       	mov	r17, r24
    if (status != R1_IDLE_STATE) {
     b3e:	81 30       	cpi	r24, 0x01	; 1
     b40:	81 f5       	brne	.+96     	; 0xba2 <disk_initialize+0xc2>
        CS_HIGH;
        return STA_NOINIT;  // CMD0 не сработал
    }

    // 6. Отправляем CMD8 (check voltage)
    status = SD_command(SD_CMD8, 0x1AA);
     b42:	88 e0       	ldi	r24, 0x08	; 8
     b44:	4a ea       	ldi	r20, 0xAA	; 170
     b46:	51 e0       	ldi	r21, 0x01	; 1
     b48:	60 e0       	ldi	r22, 0x00	; 0
     b4a:	70 e0       	ldi	r23, 0x00	; 0
     b4c:	0e 94 82 04 	call	0x904	; 0x904 <SD_command>
    if (status & R1_ILLEGAL_COMMAND) {
     b50:	82 ff       	sbrs	r24, 2
     b52:	03 c0       	rjmp	.+6      	; 0xb5a <disk_initialize+0x7a>
        SD_type = SD_CARD_TYPE_SD1;
     b54:	10 93 52 01 	sts	0x0152, r17
     b58:	0b c0       	rjmp	.+22     	; 0xb70 <disk_initialize+0x90>
        return STA_NOINIT;  // CMD0 не сработал
    }

    // 6. Отправляем CMD8 (check voltage)
    status = SD_command(SD_CMD8, 0x1AA);
    if (status & R1_ILLEGAL_COMMAND) {
     b5a:	14 e0       	ldi	r17, 0x04	; 4
        SD_type = SD_CARD_TYPE_SD1;
    } else {
        // Читаем ответ CMD8
        for (i = 0; i < 4; i++) status = SPI_put(0xFF);
     b5c:	8f ef       	ldi	r24, 0xFF	; 255
     b5e:	0e 94 7c 04 	call	0x8f8	; 0x8f8 <SPI_put>
     b62:	11 50       	subi	r17, 0x01	; 1
     b64:	d9 f7       	brne	.-10     	; 0xb5c <disk_initialize+0x7c>
        if (status != 0xAA) {
     b66:	8a 3a       	cpi	r24, 0xAA	; 170
     b68:	e1 f4       	brne	.+56     	; 0xba2 <disk_initialize+0xc2>
            CS_HIGH;
            return STA_NOINIT;
        }
        SD_type = SD_CARD_TYPE_SD2;
     b6a:	82 e0       	ldi	r24, 0x02	; 2
     b6c:	80 93 52 01 	sts	0x0152, r24
    }

    // 7. Инициализация ACMD41
    arg = (SD_type == SD_CARD_TYPE_SD2) ? 0x40000000UL : 0;
     b70:	80 91 52 01 	lds	r24, 0x0152
     b74:	82 30       	cpi	r24, 0x02	; 2
     b76:	31 f4       	brne	.+12     	; 0xb84 <disk_initialize+0xa4>
     b78:	e1 2c       	mov	r14, r1
     b7a:	f1 2c       	mov	r15, r1
     b7c:	01 2d       	mov	r16, r1
     b7e:	20 e4       	ldi	r18, 0x40	; 64
     b80:	12 2f       	mov	r17, r18
     b82:	03 c0       	rjmp	.+6      	; 0xb8a <disk_initialize+0xaa>
     b84:	ee 24       	eor	r14, r14
     b86:	ff 24       	eor	r15, r15
     b88:	87 01       	movw	r16, r14
    timeout = 0;
     b8a:	c0 e0       	ldi	r28, 0x00	; 0
     b8c:	d0 e0       	ldi	r29, 0x00	; 0
    do {
        status = SD_acmd(0x29, arg);  // ACMD41
     b8e:	89 e2       	ldi	r24, 0x29	; 41
     b90:	b8 01       	movw	r22, r16
     b92:	a7 01       	movw	r20, r14
     b94:	0e 94 ce 04 	call	0x99c	; 0x99c <SD_acmd>
        if (timeout++ > 500) {  // Увеличим таймаут
     b98:	21 96       	adiw	r28, 0x01	; 1
     b9a:	e1 e0       	ldi	r30, 0x01	; 1
     b9c:	c6 3f       	cpi	r28, 0xF6	; 246
     b9e:	de 07       	cpc	r29, r30
     ba0:	11 f4       	brne	.+4      	; 0xba6 <disk_initialize+0xc6>
            CS_HIGH;
     ba2:	2a 9a       	sbi	0x05, 2	; 5
     ba4:	2c c0       	rjmp	.+88     	; 0xbfe <disk_initialize+0x11e>
     ba6:	ef e3       	ldi	r30, 0x3F	; 63
     ba8:	fc e9       	ldi	r31, 0x9C	; 156
     baa:	31 97       	sbiw	r30, 0x01	; 1
     bac:	f1 f7       	brne	.-4      	; 0xbaa <disk_initialize+0xca>
     bae:	00 c0       	rjmp	.+0      	; 0xbb0 <disk_initialize+0xd0>
     bb0:	00 00       	nop
            return STA_NOINIT;
        }
        _delay_ms(10);
    } while (status != R1_READY_STATE);
     bb2:	88 23       	and	r24, r24
     bb4:	61 f7       	brne	.-40     	; 0xb8e <disk_initialize+0xae>

    // 8. Для SD2 проверяем SDHC
    if (SD_type == SD_CARD_TYPE_SD2) {
     bb6:	80 91 52 01 	lds	r24, 0x0152
     bba:	82 30       	cpi	r24, 0x02	; 2
     bbc:	d1 f4       	brne	.+52     	; 0xbf2 <disk_initialize+0x112>
        if (SD_command(SD_CMD58, 0) == 0) {
     bbe:	8a e3       	ldi	r24, 0x3A	; 58
     bc0:	40 e0       	ldi	r20, 0x00	; 0
     bc2:	50 e0       	ldi	r21, 0x00	; 0
     bc4:	ba 01       	movw	r22, r20
     bc6:	0e 94 82 04 	call	0x904	; 0x904 <SD_command>
     bca:	88 23       	and	r24, r24
     bcc:	91 f4       	brne	.+36     	; 0xbf2 <disk_initialize+0x112>
            status = SPI_put(0xFF);
     bce:	8f ef       	ldi	r24, 0xFF	; 255
     bd0:	0e 94 7c 04 	call	0x8f8	; 0x8f8 <SPI_put>
            if ((status & 0xC0) == 0xC0) {
     bd4:	80 7c       	andi	r24, 0xC0	; 192
     bd6:	80 3c       	cpi	r24, 0xC0	; 192
     bd8:	19 f4       	brne	.+6      	; 0xbe0 <disk_initialize+0x100>
                SD_type = SD_CARD_TYPE_SDHC;
     bda:	83 e0       	ldi	r24, 0x03	; 3
     bdc:	80 93 52 01 	sts	0x0152, r24
            }
            for (i = 0; i < 3; i++) SPI_put(0xFF);
     be0:	8f ef       	ldi	r24, 0xFF	; 255
     be2:	0e 94 7c 04 	call	0x8f8	; 0x8f8 <SPI_put>
     be6:	8f ef       	ldi	r24, 0xFF	; 255
     be8:	0e 94 7c 04 	call	0x8f8	; 0x8f8 <SPI_put>
     bec:	8f ef       	ldi	r24, 0xFF	; 255
     bee:	0e 94 7c 04 	call	0x8f8	; 0x8f8 <SPI_put>
        }
    }

    CS_HIGH;
     bf2:	2a 9a       	sbi	0x05, 2	; 5
    SPI_put(0xFF);
     bf4:	8f ef       	ldi	r24, 0xFF	; 255
     bf6:	0e 94 7c 04 	call	0x8f8	; 0x8f8 <SPI_put>
    
    return 0;  // Успех
     bfa:	80 e0       	ldi	r24, 0x00	; 0
     bfc:	01 c0       	rjmp	.+2      	; 0xc00 <disk_initialize+0x120>
{
    uint8_t i, status;
    uint32_t arg;
    uint16_t timeout;

    if (pdrv != 0) return STA_NOINIT;
     bfe:	81 e0       	ldi	r24, 0x01	; 1

    CS_HIGH;
    SPI_put(0xFF);
    
    return 0;  // Успех
}
     c00:	df 91       	pop	r29
     c02:	cf 91       	pop	r28
     c04:	1f 91       	pop	r17
     c06:	0f 91       	pop	r16
     c08:	ff 90       	pop	r15
     c0a:	ef 90       	pop	r14
     c0c:	08 95       	ret

00000c0e <disk_read>:
	BYTE pdrv,		/* Physical drive number to identify the drive */
	BYTE *buff,		/* Data buffer to store read data */
	LBA_t sector,	/* Start sector in LBA */
	UINT count		/* Number of sectors to read */
)
{
     c0e:	8f 92       	push	r8
     c10:	9f 92       	push	r9
     c12:	af 92       	push	r10
     c14:	bf 92       	push	r11
     c16:	cf 92       	push	r12
     c18:	df 92       	push	r13
     c1a:	ef 92       	push	r14
     c1c:	ff 92       	push	r15
     c1e:	0f 93       	push	r16
     c20:	1f 93       	push	r17
     c22:	cf 93       	push	r28
     c24:	df 93       	push	r29
     c26:	59 01       	movw	r10, r18
     c28:	6a 01       	movw	r12, r20
     c2a:	48 01       	movw	r8, r16
	UINT i;
	
	if (pdrv != DEV_MMC) return RES_PARERR;
     c2c:	88 23       	and	r24, r24
     c2e:	29 f5       	brne	.+74     	; 0xc7a <disk_read+0x6c>
	if (!buff) return RES_PARERR;
     c30:	61 15       	cp	r22, r1
     c32:	71 05       	cpc	r23, r1
     c34:	11 f1       	breq	.+68     	; 0xc7a <disk_read+0x6c>
     c36:	eb 01       	movw	r28, r22
     c38:	79 01       	movw	r14, r18
     c3a:	8a 01       	movw	r16, r20
     c3c:	16 c0       	rjmp	.+44     	; 0xc6a <disk_read+0x5c>

	for (i = 0; i < count; i++) {
		if (SD_read(sector + i) != 0) {
     c3e:	c8 01       	movw	r24, r16
     c40:	b7 01       	movw	r22, r14
     c42:	0e 94 e7 04 	call	0x9ce	; 0x9ce <SD_read>
     c46:	08 94       	sec
     c48:	e1 1c       	adc	r14, r1
     c4a:	f1 1c       	adc	r15, r1
     c4c:	01 1d       	adc	r16, r1
     c4e:	11 1d       	adc	r17, r1
     c50:	88 23       	and	r24, r24
     c52:	a9 f4       	brne	.+42     	; 0xc7e <disk_read+0x70>
			return RES_ERROR;
		}
		// Copy data from SD_data to buffer
		memcpy(buff + (i * 512), SD_data, 512);
     c54:	de 01       	movw	r26, r28
     c56:	e7 e5       	ldi	r30, 0x57	; 87
     c58:	f1 e0       	ldi	r31, 0x01	; 1
     c5a:	80 e0       	ldi	r24, 0x00	; 0
     c5c:	92 e0       	ldi	r25, 0x02	; 2
     c5e:	01 90       	ld	r0, Z+
     c60:	0d 92       	st	X+, r0
     c62:	01 97       	sbiw	r24, 0x01	; 1
     c64:	e1 f7       	brne	.-8      	; 0xc5e <disk_read+0x50>
     c66:	c0 50       	subi	r28, 0x00	; 0
     c68:	de 4f       	sbci	r29, 0xFE	; 254
	UINT i;
	
	if (pdrv != DEV_MMC) return RES_PARERR;
	if (!buff) return RES_PARERR;

	for (i = 0; i < count; i++) {
     c6a:	c7 01       	movw	r24, r14
     c6c:	8a 19       	sub	r24, r10
     c6e:	9b 09       	sbc	r25, r11
     c70:	88 15       	cp	r24, r8
     c72:	99 05       	cpc	r25, r9
     c74:	20 f3       	brcs	.-56     	; 0xc3e <disk_read+0x30>
		}
		// Copy data from SD_data to buffer
		memcpy(buff + (i * 512), SD_data, 512);
	}

	return RES_OK;
     c76:	80 e0       	ldi	r24, 0x00	; 0
     c78:	03 c0       	rjmp	.+6      	; 0xc80 <disk_read+0x72>
)
{
	UINT i;
	
	if (pdrv != DEV_MMC) return RES_PARERR;
	if (!buff) return RES_PARERR;
     c7a:	84 e0       	ldi	r24, 0x04	; 4
     c7c:	01 c0       	rjmp	.+2      	; 0xc80 <disk_read+0x72>

	for (i = 0; i < count; i++) {
		if (SD_read(sector + i) != 0) {
			return RES_ERROR;
     c7e:	81 e0       	ldi	r24, 0x01	; 1
		// Copy data from SD_data to buffer
		memcpy(buff + (i * 512), SD_data, 512);
	}

	return RES_OK;
}
     c80:	df 91       	pop	r29
     c82:	cf 91       	pop	r28
     c84:	1f 91       	pop	r17
     c86:	0f 91       	pop	r16
     c88:	ff 90       	pop	r15
     c8a:	ef 90       	pop	r14
     c8c:	df 90       	pop	r13
     c8e:	cf 90       	pop	r12
     c90:	bf 90       	pop	r11
     c92:	af 90       	pop	r10
     c94:	9f 90       	pop	r9
     c96:	8f 90       	pop	r8
     c98:	08 95       	ret

00000c9a <disk_write>:
	BYTE pdrv,			/* Physical drive number to identify the drive */
	const BYTE *buff,	/* Data to be written */
	LBA_t sector,		/* Start sector in LBA */
	UINT count			/* Number of sectors to write */
)
{
     c9a:	8f 92       	push	r8
     c9c:	9f 92       	push	r9
     c9e:	af 92       	push	r10
     ca0:	bf 92       	push	r11
     ca2:	cf 92       	push	r12
     ca4:	df 92       	push	r13
     ca6:	ef 92       	push	r14
     ca8:	ff 92       	push	r15
     caa:	0f 93       	push	r16
     cac:	1f 93       	push	r17
     cae:	cf 93       	push	r28
     cb0:	df 93       	push	r29
     cb2:	59 01       	movw	r10, r18
     cb4:	6a 01       	movw	r12, r20
     cb6:	48 01       	movw	r8, r16
	UINT i;
	
	if (pdrv != DEV_MMC) return RES_PARERR;
     cb8:	88 23       	and	r24, r24
     cba:	29 f5       	brne	.+74     	; 0xd06 <disk_write+0x6c>
	if (!buff) return RES_PARERR;
     cbc:	61 15       	cp	r22, r1
     cbe:	71 05       	cpc	r23, r1
     cc0:	11 f1       	breq	.+68     	; 0xd06 <disk_write+0x6c>
     cc2:	eb 01       	movw	r28, r22
     cc4:	79 01       	movw	r14, r18
     cc6:	8a 01       	movw	r16, r20
     cc8:	16 c0       	rjmp	.+44     	; 0xcf6 <disk_write+0x5c>

	for (i = 0; i < count; i++) {
		// Copy data to SD_data
		memcpy(SD_data, buff + (i * 512), 512);
     cca:	a7 e5       	ldi	r26, 0x57	; 87
     ccc:	b1 e0       	ldi	r27, 0x01	; 1
     cce:	fe 01       	movw	r30, r28
     cd0:	80 e0       	ldi	r24, 0x00	; 0
     cd2:	92 e0       	ldi	r25, 0x02	; 2
     cd4:	01 90       	ld	r0, Z+
     cd6:	0d 92       	st	X+, r0
     cd8:	01 97       	sbiw	r24, 0x01	; 1
     cda:	e1 f7       	brne	.-8      	; 0xcd4 <disk_write+0x3a>
		if (SD_write(sector + i) != 0) {
     cdc:	c8 01       	movw	r24, r16
     cde:	b7 01       	movw	r22, r14
     ce0:	0e 94 1c 05 	call	0xa38	; 0xa38 <SD_write>
     ce4:	c0 50       	subi	r28, 0x00	; 0
     ce6:	de 4f       	sbci	r29, 0xFE	; 254
     ce8:	08 94       	sec
     cea:	e1 1c       	adc	r14, r1
     cec:	f1 1c       	adc	r15, r1
     cee:	01 1d       	adc	r16, r1
     cf0:	11 1d       	adc	r17, r1
     cf2:	88 23       	and	r24, r24
     cf4:	51 f4       	brne	.+20     	; 0xd0a <disk_write+0x70>
	UINT i;
	
	if (pdrv != DEV_MMC) return RES_PARERR;
	if (!buff) return RES_PARERR;

	for (i = 0; i < count; i++) {
     cf6:	c7 01       	movw	r24, r14
     cf8:	8a 19       	sub	r24, r10
     cfa:	9b 09       	sbc	r25, r11
     cfc:	88 15       	cp	r24, r8
     cfe:	99 05       	cpc	r25, r9
     d00:	20 f3       	brcs	.-56     	; 0xcca <disk_write+0x30>
		if (SD_write(sector + i) != 0) {
			return RES_ERROR;
		}
	}

	return RES_OK;
     d02:	80 e0       	ldi	r24, 0x00	; 0
     d04:	03 c0       	rjmp	.+6      	; 0xd0c <disk_write+0x72>
)
{
	UINT i;
	
	if (pdrv != DEV_MMC) return RES_PARERR;
	if (!buff) return RES_PARERR;
     d06:	84 e0       	ldi	r24, 0x04	; 4
     d08:	01 c0       	rjmp	.+2      	; 0xd0c <disk_write+0x72>

	for (i = 0; i < count; i++) {
		// Copy data to SD_data
		memcpy(SD_data, buff + (i * 512), 512);
		if (SD_write(sector + i) != 0) {
			return RES_ERROR;
     d0a:	81 e0       	ldi	r24, 0x01	; 1
		}
	}

	return RES_OK;
}
     d0c:	df 91       	pop	r29
     d0e:	cf 91       	pop	r28
     d10:	1f 91       	pop	r17
     d12:	0f 91       	pop	r16
     d14:	ff 90       	pop	r15
     d16:	ef 90       	pop	r14
     d18:	df 90       	pop	r13
     d1a:	cf 90       	pop	r12
     d1c:	bf 90       	pop	r11
     d1e:	af 90       	pop	r10
     d20:	9f 90       	pop	r9
     d22:	8f 90       	pop	r8
     d24:	08 95       	ret

00000d26 <disk_ioctl>:
DRESULT disk_ioctl (
	BYTE pdrv,		/* Physical drive number (0..) */
	BYTE cmd,		/* Control code */
	void *buff		/* Buffer to send/receive control data */
)
{
     d26:	fa 01       	movw	r30, r20
	if (pdrv != DEV_MMC) return RES_PARERR;
     d28:	88 23       	and	r24, r24
     d2a:	e9 f4       	brne	.+58     	; 0xd66 <disk_ioctl+0x40>

	switch (cmd) {
     d2c:	61 30       	cpi	r22, 0x01	; 1
     d2e:	39 f0       	breq	.+14     	; 0xd3e <disk_ioctl+0x18>
     d30:	61 30       	cpi	r22, 0x01	; 1
     d32:	b8 f0       	brcs	.+46     	; 0xd62 <disk_ioctl+0x3c>
     d34:	62 30       	cpi	r22, 0x02	; 2
     d36:	41 f0       	breq	.+16     	; 0xd48 <disk_ioctl+0x22>
     d38:	63 30       	cpi	r22, 0x03	; 3
     d3a:	b9 f4       	brne	.+46     	; 0xd6a <disk_ioctl+0x44>
     d3c:	0a c0       	rjmp	.+20     	; 0xd52 <disk_ioctl+0x2c>
			// Make sure that no pending write process
			return RES_OK;
			
		case GET_SECTOR_COUNT:
			// Return maximum sector number - you may want to implement proper detection
			*(LBA_t*)buff = 1000000; // Example value
     d3e:	80 e4       	ldi	r24, 0x40	; 64
     d40:	92 e4       	ldi	r25, 0x42	; 66
     d42:	af e0       	ldi	r26, 0x0F	; 15
     d44:	b0 e0       	ldi	r27, 0x00	; 0
     d46:	09 c0       	rjmp	.+18     	; 0xd5a <disk_ioctl+0x34>
			return RES_OK;
			
		case GET_SECTOR_SIZE:
			// Return sector size
			*(WORD*)buff = 512;
     d48:	80 e0       	ldi	r24, 0x00	; 0
     d4a:	92 e0       	ldi	r25, 0x02	; 2
     d4c:	91 83       	std	Z+1, r25	; 0x01
     d4e:	80 83       	st	Z, r24
     d50:	08 c0       	rjmp	.+16     	; 0xd62 <disk_ioctl+0x3c>
			return RES_OK;
			
		case GET_BLOCK_SIZE:
			// Return erase block size
			*(DWORD*)buff = 1;
     d52:	81 e0       	ldi	r24, 0x01	; 1
     d54:	90 e0       	ldi	r25, 0x00	; 0
     d56:	a0 e0       	ldi	r26, 0x00	; 0
     d58:	b0 e0       	ldi	r27, 0x00	; 0
     d5a:	80 83       	st	Z, r24
     d5c:	91 83       	std	Z+1, r25	; 0x01
     d5e:	a2 83       	std	Z+2, r26	; 0x02
     d60:	b3 83       	std	Z+3, r27	; 0x03
			return RES_OK;
     d62:	80 e0       	ldi	r24, 0x00	; 0
     d64:	08 95       	ret
	BYTE pdrv,		/* Physical drive number (0..) */
	BYTE cmd,		/* Control code */
	void *buff		/* Buffer to send/receive control data */
)
{
	if (pdrv != DEV_MMC) return RES_PARERR;
     d66:	84 e0       	ldi	r24, 0x04	; 4
     d68:	08 95       	ret
			// Return erase block size
			*(DWORD*)buff = 1;
			return RES_OK;
			
		default:
			return RES_PARERR;
     d6a:	84 e0       	ldi	r24, 0x04	; 4
	}
}
     d6c:	08 95       	ret

00000d6e <get_fattime>:
         | ((DWORD)9 << 21)              /* Month September */
         | ((DWORD)30 << 16)             /* Day 30 */
         | ((DWORD)0 << 11)              /* Hour 0 */
         | ((DWORD)0 << 5)               /* Minute 0 */
         | ((DWORD)0 >> 1);              /* Second 0 */
     d6e:	60 e0       	ldi	r22, 0x00	; 0
     d70:	70 e0       	ldi	r23, 0x00	; 0
     d72:	8e e3       	ldi	r24, 0x3E	; 62
     d74:	9b e5       	ldi	r25, 0x5B	; 91
     d76:	08 95       	ret

00000d78 <ld_16>:
/*-----------------------------------------------------------------------*/
/* Load/Store multi-byte word in the FAT structure                       */
/*-----------------------------------------------------------------------*/

static WORD ld_16 (const BYTE* ptr)	/*	 Load a 2-byte little-endian word */
{
     d78:	fc 01       	movw	r30, r24
	WORD rv;

	rv = ptr[1];
	rv = rv << 8 | ptr[0];
     d7a:	51 81       	ldd	r21, Z+1	; 0x01
     d7c:	40 e0       	ldi	r20, 0x00	; 0
     d7e:	20 81       	ld	r18, Z
     d80:	30 e0       	ldi	r19, 0x00	; 0
     d82:	24 2b       	or	r18, r20
     d84:	35 2b       	or	r19, r21
	return rv;
}
     d86:	c9 01       	movw	r24, r18
     d88:	08 95       	ret

00000d8a <ld_32>:

static DWORD ld_32 (const BYTE* ptr)	/* Load a 4-byte little-endian word */
{
     d8a:	fc 01       	movw	r30, r24
	DWORD rv;

	rv = ptr[3];
     d8c:	23 81       	ldd	r18, Z+3	; 0x03
     d8e:	30 e0       	ldi	r19, 0x00	; 0
     d90:	40 e0       	ldi	r20, 0x00	; 0
     d92:	50 e0       	ldi	r21, 0x00	; 0
	rv = rv << 8 | ptr[2];
     d94:	54 2f       	mov	r21, r20
     d96:	43 2f       	mov	r20, r19
     d98:	32 2f       	mov	r19, r18
     d9a:	22 27       	eor	r18, r18
     d9c:	82 81       	ldd	r24, Z+2	; 0x02
     d9e:	90 e0       	ldi	r25, 0x00	; 0
     da0:	a0 e0       	ldi	r26, 0x00	; 0
     da2:	b0 e0       	ldi	r27, 0x00	; 0
     da4:	28 2b       	or	r18, r24
     da6:	39 2b       	or	r19, r25
     da8:	4a 2b       	or	r20, r26
     daa:	5b 2b       	or	r21, r27
	rv = rv << 8 | ptr[1];
     dac:	54 2f       	mov	r21, r20
     dae:	43 2f       	mov	r20, r19
     db0:	32 2f       	mov	r19, r18
     db2:	22 27       	eor	r18, r18
     db4:	81 81       	ldd	r24, Z+1	; 0x01
     db6:	90 e0       	ldi	r25, 0x00	; 0
     db8:	a0 e0       	ldi	r26, 0x00	; 0
     dba:	b0 e0       	ldi	r27, 0x00	; 0
     dbc:	28 2b       	or	r18, r24
     dbe:	39 2b       	or	r19, r25
     dc0:	4a 2b       	or	r20, r26
     dc2:	5b 2b       	or	r21, r27
	rv = rv << 8 | ptr[0];
     dc4:	54 2f       	mov	r21, r20
     dc6:	43 2f       	mov	r20, r19
     dc8:	32 2f       	mov	r19, r18
     dca:	22 27       	eor	r18, r18
     dcc:	80 81       	ld	r24, Z
     dce:	90 e0       	ldi	r25, 0x00	; 0
     dd0:	a0 e0       	ldi	r26, 0x00	; 0
     dd2:	b0 e0       	ldi	r27, 0x00	; 0
     dd4:	28 2b       	or	r18, r24
     dd6:	39 2b       	or	r19, r25
     dd8:	4a 2b       	or	r20, r26
     dda:	5b 2b       	or	r21, r27
	return rv;
}
     ddc:	b9 01       	movw	r22, r18
     dde:	ca 01       	movw	r24, r20
     de0:	08 95       	ret

00000de2 <st_32>:
	*ptr++ = (BYTE)val;
}

static void st_32 (BYTE* ptr, DWORD val)	/* Store a 4-byte word in little-endian */
{
	*ptr++ = (BYTE)val; val >>= 8;
     de2:	fc 01       	movw	r30, r24
     de4:	41 93       	st	Z+, r20
	*ptr++ = (BYTE)val; val >>= 8;
     de6:	dc 01       	movw	r26, r24
     de8:	11 96       	adiw	r26, 0x01	; 1
     dea:	5c 93       	st	X, r21
     dec:	11 97       	sbiw	r26, 0x01	; 1
	*ptr++ = (BYTE)val; val >>= 8;
     dee:	61 83       	std	Z+1, r22	; 0x01
	*ptr++ = (BYTE)val;
     df0:	72 83       	std	Z+2, r23	; 0x02
}
     df2:	08 95       	ret

00000df4 <clst2sect>:

static LBA_t clst2sect (	/* !=0:Sector number, 0:Failed (invalid cluster#) */
	FATFS* fs,		/* Filesystem object */
	DWORD clst		/* Cluster# to be converted */
)
{
     df4:	cf 93       	push	r28
     df6:	df 93       	push	r29
     df8:	ec 01       	movw	r28, r24
     dfa:	cb 01       	movw	r24, r22
     dfc:	ba 01       	movw	r22, r20
	clst -= 2;		/* Cluster number is origin from 2 */
     dfe:	62 50       	subi	r22, 0x02	; 2
     e00:	70 40       	sbci	r23, 0x00	; 0
     e02:	80 40       	sbci	r24, 0x00	; 0
     e04:	90 40       	sbci	r25, 0x00	; 0
	if (clst >= fs->n_fatent - 2) return 0;		/* Is it invalid cluster number? */
     e06:	2c 89       	ldd	r18, Y+20	; 0x14
     e08:	3d 89       	ldd	r19, Y+21	; 0x15
     e0a:	4e 89       	ldd	r20, Y+22	; 0x16
     e0c:	5f 89       	ldd	r21, Y+23	; 0x17
     e0e:	22 50       	subi	r18, 0x02	; 2
     e10:	30 40       	sbci	r19, 0x00	; 0
     e12:	40 40       	sbci	r20, 0x00	; 0
     e14:	50 40       	sbci	r21, 0x00	; 0
     e16:	62 17       	cp	r22, r18
     e18:	73 07       	cpc	r23, r19
     e1a:	84 07       	cpc	r24, r20
     e1c:	95 07       	cpc	r25, r21
     e1e:	88 f4       	brcc	.+34     	; 0xe42 <clst2sect+0x4e>
	return fs->database + (LBA_t)fs->csize * clst;	/* Start sector number of the cluster */
     e20:	2a 85       	ldd	r18, Y+10	; 0x0a
     e22:	3b 85       	ldd	r19, Y+11	; 0x0b
     e24:	40 e0       	ldi	r20, 0x00	; 0
     e26:	50 e0       	ldi	r21, 0x00	; 0
     e28:	0e 94 69 21 	call	0x42d2	; 0x42d2 <__mulsi3>
     e2c:	9b 01       	movw	r18, r22
     e2e:	ac 01       	movw	r20, r24
     e30:	8c a5       	ldd	r24, Y+44	; 0x2c
     e32:	9d a5       	ldd	r25, Y+45	; 0x2d
     e34:	ae a5       	ldd	r26, Y+46	; 0x2e
     e36:	bf a5       	ldd	r27, Y+47	; 0x2f
     e38:	28 0f       	add	r18, r24
     e3a:	39 1f       	adc	r19, r25
     e3c:	4a 1f       	adc	r20, r26
     e3e:	5b 1f       	adc	r21, r27
     e40:	03 c0       	rjmp	.+6      	; 0xe48 <clst2sect+0x54>
	FATFS* fs,		/* Filesystem object */
	DWORD clst		/* Cluster# to be converted */
)
{
	clst -= 2;		/* Cluster number is origin from 2 */
	if (clst >= fs->n_fatent - 2) return 0;		/* Is it invalid cluster number? */
     e42:	20 e0       	ldi	r18, 0x00	; 0
     e44:	30 e0       	ldi	r19, 0x00	; 0
     e46:	a9 01       	movw	r20, r18
	return fs->database + (LBA_t)fs->csize * clst;	/* Start sector number of the cluster */
}
     e48:	b9 01       	movw	r22, r18
     e4a:	ca 01       	movw	r24, r20
     e4c:	df 91       	pop	r29
     e4e:	cf 91       	pop	r28
     e50:	08 95       	ret

00000e52 <get_ldnumber>:
/*-----------------------------------------------------------------------*/

static int get_ldnumber (	/* Returns logical drive number (-1:invalid drive number or null pointer) */
	const TCHAR** path		/* Pointer to pointer to the path name */
)
{
     e52:	cf 93       	push	r28
     e54:	df 93       	push	r29
     e56:	ec 01       	movw	r28, r24
#if FF_STR_VOLUME_ID		/* Find string volume ID */
	const char *vsp;
	char vchr;
#endif

	tt = tp = *path;
     e58:	e8 81       	ld	r30, Y
     e5a:	f9 81       	ldd	r31, Y+1	; 0x01
	if (!tp) return -1;		/* Invalid path name? */
     e5c:	30 97       	sbiw	r30, 0x00	; 0
     e5e:	91 f0       	breq	.+36     	; 0xe84 <get_ldnumber+0x32>
     e60:	df 01       	movw	r26, r30
	do {					/* Find a colon in the path */
		chr = *tt++;
     e62:	8d 91       	ld	r24, X+
	} while (!IsTerminator(chr) && chr != ':');
     e64:	81 32       	cpi	r24, 0x21	; 33
     e66:	58 f0       	brcs	.+22     	; 0xe7e <get_ldnumber+0x2c>
     e68:	8a 33       	cpi	r24, 0x3A	; 58
     e6a:	d9 f7       	brne	.-10     	; 0xe62 <get_ldnumber+0x10>
     e6c:	11 c0       	rjmp	.+34     	; 0xe90 <get_ldnumber+0x3e>

	if (chr == ':') {	/* Is there a DOS/Windows style volume ID? */
		i = FF_VOLUMES;
		if (IsDigit(*tp) && tp + 2 == tt) {	/* Is it a numeric volume ID + colon? */
     e6e:	32 96       	adiw	r30, 0x02	; 2
     e70:	ea 17       	cp	r30, r26
     e72:	fb 07       	cpc	r31, r27
     e74:	39 f4       	brne	.+14     	; 0xe84 <get_ldnumber+0x32>
					if (IsLower(chr)) chr -= 0x20;
				} while (vchr && (TCHAR)vchr == chr);
			} while ((vchr || tp != tt) && ++i < FF_VOLUMES);	/* Repeat for each id until pattern match */
		}
#endif
		if (i >= FF_VOLUMES) return -1;	/* Not found or invalid volume ID */
     e76:	80 33       	cpi	r24, 0x30	; 48
     e78:	29 f4       	brne	.+10     	; 0xe84 <get_ldnumber+0x32>
		*path = tt;		/* Snip the drive prefix off */
     e7a:	b9 83       	std	Y+1, r27	; 0x01
     e7c:	a8 83       	st	Y, r26
#endif
	/* No drive prefix */
#if FF_FS_RPATH
	return (int)CurrVol;	/* Default drive is current drive */
#else
	return 0;				/* Default drive is 0 */
     e7e:	20 e0       	ldi	r18, 0x00	; 0
     e80:	30 e0       	ldi	r19, 0x00	; 0
     e82:	02 c0       	rjmp	.+4      	; 0xe88 <get_ldnumber+0x36>
					if (IsLower(chr)) chr -= 0x20;
				} while (vchr && (TCHAR)vchr == chr);
			} while ((vchr || tp != tt) && ++i < FF_VOLUMES);	/* Repeat for each id until pattern match */
		}
#endif
		if (i >= FF_VOLUMES) return -1;	/* Not found or invalid volume ID */
     e84:	2f ef       	ldi	r18, 0xFF	; 255
     e86:	3f ef       	ldi	r19, 0xFF	; 255
#if FF_FS_RPATH
	return (int)CurrVol;	/* Default drive is current drive */
#else
	return 0;				/* Default drive is 0 */
#endif
}
     e88:	c9 01       	movw	r24, r18
     e8a:	df 91       	pop	r29
     e8c:	cf 91       	pop	r28
     e8e:	08 95       	ret
		chr = *tt++;
	} while (!IsTerminator(chr) && chr != ':');

	if (chr == ':') {	/* Is there a DOS/Windows style volume ID? */
		i = FF_VOLUMES;
		if (IsDigit(*tp) && tp + 2 == tt) {	/* Is it a numeric volume ID + colon? */
     e90:	80 81       	ld	r24, Z
     e92:	98 2f       	mov	r25, r24
     e94:	90 53       	subi	r25, 0x30	; 48
     e96:	9a 30       	cpi	r25, 0x0A	; 10
     e98:	50 f3       	brcs	.-44     	; 0xe6e <get_ldnumber+0x1c>
     e9a:	f4 cf       	rjmp	.-24     	; 0xe84 <get_ldnumber+0x32>

00000e9c <validate>:

static FRESULT validate (	/* Returns FR_OK or FR_INVALID_OBJECT */
	FFOBJID* obj,			/* Pointer to the FFOBJID, the 1st member in the FIL/DIR structure, to check validity */
	FATFS** rfs				/* Pointer to pointer to the owner filesystem object to return */
)
{
     e9c:	0f 93       	push	r16
     e9e:	1f 93       	push	r17
     ea0:	cf 93       	push	r28
     ea2:	df 93       	push	r29
     ea4:	ec 01       	movw	r28, r24
     ea6:	8b 01       	movw	r16, r22
	FRESULT res = FR_INVALID_OBJECT;


	if (obj && obj->fs && obj->fs->fs_type && obj->id == obj->fs->id) {	/* Test if the object is valid */
     ea8:	00 97       	sbiw	r24, 0x00	; 0
     eaa:	99 f0       	breq	.+38     	; 0xed2 <validate+0x36>
     eac:	e8 81       	ld	r30, Y
     eae:	f9 81       	ldd	r31, Y+1	; 0x01
     eb0:	30 97       	sbiw	r30, 0x00	; 0
     eb2:	79 f0       	breq	.+30     	; 0xed2 <validate+0x36>
     eb4:	80 81       	ld	r24, Z
     eb6:	88 23       	and	r24, r24
     eb8:	61 f0       	breq	.+24     	; 0xed2 <validate+0x36>
     eba:	2a 81       	ldd	r18, Y+2	; 0x02
     ebc:	3b 81       	ldd	r19, Y+3	; 0x03
     ebe:	86 81       	ldd	r24, Z+6	; 0x06
     ec0:	97 81       	ldd	r25, Z+7	; 0x07
     ec2:	28 17       	cp	r18, r24
     ec4:	39 07       	cpc	r19, r25
     ec6:	29 f4       	brne	.+10     	; 0xed2 <validate+0x36>
			}
		} else {	/* Could not take */
			res = FR_TIMEOUT;
		}
#else
		if (!(disk_status(obj->fs->pdrv) & STA_NOINIT)) { /* Test if the hosting physical drive is kept initialized */
     ec8:	81 81       	ldd	r24, Z+1	; 0x01
     eca:	0e 94 6a 05 	call	0xad4	; 0xad4 <disk_status>
     ece:	80 ff       	sbrs	r24, 0
     ed0:	0b c0       	rjmp	.+22     	; 0xee8 <validate+0x4c>
			res = FR_OK;
     ed2:	89 e0       	ldi	r24, 0x09	; 9
		}
#endif
	}
	*rfs = (res == FR_OK) ? obj->fs : 0;	/* Return corresponding filesystem object if it is valid */
     ed4:	20 e0       	ldi	r18, 0x00	; 0
     ed6:	30 e0       	ldi	r19, 0x00	; 0
     ed8:	f8 01       	movw	r30, r16
     eda:	31 83       	std	Z+1, r19	; 0x01
     edc:	20 83       	st	Z, r18
	return res;
}
     ede:	df 91       	pop	r29
     ee0:	cf 91       	pop	r28
     ee2:	1f 91       	pop	r17
     ee4:	0f 91       	pop	r16
     ee6:	08 95       	ret
		if (!(disk_status(obj->fs->pdrv) & STA_NOINIT)) { /* Test if the hosting physical drive is kept initialized */
			res = FR_OK;
		}
#endif
	}
	*rfs = (res == FR_OK) ? obj->fs : 0;	/* Return corresponding filesystem object if it is valid */
     ee8:	28 81       	ld	r18, Y
     eea:	39 81       	ldd	r19, Y+1	; 0x01
		} else {	/* Could not take */
			res = FR_TIMEOUT;
		}
#else
		if (!(disk_status(obj->fs->pdrv) & STA_NOINIT)) { /* Test if the hosting physical drive is kept initialized */
			res = FR_OK;
     eec:	80 e0       	ldi	r24, 0x00	; 0
     eee:	f4 cf       	rjmp	.-24     	; 0xed8 <validate+0x3c>

00000ef0 <sync_window>:
/*-----------------------------------------------------------------------*/
#if !FF_FS_READONLY
static FRESULT sync_window (	/* Returns FR_OK or FR_DISK_ERR */
	FATFS* fs			/* Filesystem object */
)
{
     ef0:	8f 92       	push	r8
     ef2:	9f 92       	push	r9
     ef4:	af 92       	push	r10
     ef6:	bf 92       	push	r11
     ef8:	cf 92       	push	r12
     efa:	df 92       	push	r13
     efc:	ef 92       	push	r14
     efe:	ff 92       	push	r15
     f00:	0f 93       	push	r16
     f02:	1f 93       	push	r17
     f04:	cf 93       	push	r28
     f06:	df 93       	push	r29
     f08:	ec 01       	movw	r28, r24
	FRESULT res = FR_OK;


	if (fs->wflag) {	/* Is the disk access window dirty? */
     f0a:	8c 81       	ldd	r24, Y+4	; 0x04
     f0c:	88 23       	and	r24, r24
     f0e:	c9 f1       	breq	.+114    	; 0xf82 <sync_window+0x92>
		if (disk_write(fs->pdrv, fs->win, fs->winsect, 1) == RES_OK) {	/* Write it back into the volume */
     f10:	70 e3       	ldi	r23, 0x30	; 48
     f12:	c7 2e       	mov	r12, r23
     f14:	d1 2c       	mov	r13, r1
     f16:	cc 0e       	add	r12, r28
     f18:	dd 1e       	adc	r13, r29
     f1a:	2c 8d       	ldd	r18, Y+28	; 0x1c
     f1c:	3d 8d       	ldd	r19, Y+29	; 0x1d
     f1e:	4e 8d       	ldd	r20, Y+30	; 0x1e
     f20:	5f 8d       	ldd	r21, Y+31	; 0x1f
     f22:	89 81       	ldd	r24, Y+1	; 0x01
     f24:	b6 01       	movw	r22, r12
     f26:	01 e0       	ldi	r16, 0x01	; 1
     f28:	10 e0       	ldi	r17, 0x00	; 0
     f2a:	0e 94 4d 06 	call	0xc9a	; 0xc9a <disk_write>
     f2e:	88 23       	and	r24, r24
     f30:	31 f5       	brne	.+76     	; 0xf7e <sync_window+0x8e>
			fs->wflag = 0;	/* Clear window dirty flag */
     f32:	1c 82       	std	Y+4, r1	; 0x04
			if (fs->winsect - fs->fatbase < fs->fsize) {	/* Is it in the 1st FAT? */
     f34:	ec 8c       	ldd	r14, Y+28	; 0x1c
     f36:	fd 8c       	ldd	r15, Y+29	; 0x1d
     f38:	0e 8d       	ldd	r16, Y+30	; 0x1e
     f3a:	1f 8d       	ldd	r17, Y+31	; 0x1f
     f3c:	28 8d       	ldd	r18, Y+24	; 0x18
     f3e:	39 8d       	ldd	r19, Y+25	; 0x19
     f40:	4a 8d       	ldd	r20, Y+26	; 0x1a
     f42:	5b 8d       	ldd	r21, Y+27	; 0x1b
     f44:	8c a1       	ldd	r24, Y+36	; 0x24
     f46:	9d a1       	ldd	r25, Y+37	; 0x25
     f48:	ae a1       	ldd	r26, Y+38	; 0x26
     f4a:	bf a1       	ldd	r27, Y+39	; 0x27
     f4c:	47 01       	movw	r8, r14
     f4e:	58 01       	movw	r10, r16
     f50:	88 1a       	sub	r8, r24
     f52:	99 0a       	sbc	r9, r25
     f54:	aa 0a       	sbc	r10, r26
     f56:	bb 0a       	sbc	r11, r27
     f58:	82 16       	cp	r8, r18
     f5a:	93 06       	cpc	r9, r19
     f5c:	a4 06       	cpc	r10, r20
     f5e:	b5 06       	cpc	r11, r21
     f60:	80 f4       	brcc	.+32     	; 0xf82 <sync_window+0x92>
				if (fs->n_fats == 2) disk_write(fs->pdrv, fs->win, fs->winsect + fs->fsize, 1);	/* Reflect it to 2nd FAT if needed */
     f62:	8b 81       	ldd	r24, Y+3	; 0x03
     f64:	82 30       	cpi	r24, 0x02	; 2
     f66:	69 f4       	brne	.+26     	; 0xf82 <sync_window+0x92>
     f68:	2e 0d       	add	r18, r14
     f6a:	3f 1d       	adc	r19, r15
     f6c:	40 1f       	adc	r20, r16
     f6e:	51 1f       	adc	r21, r17
     f70:	89 81       	ldd	r24, Y+1	; 0x01
     f72:	b6 01       	movw	r22, r12
     f74:	01 e0       	ldi	r16, 0x01	; 1
     f76:	10 e0       	ldi	r17, 0x00	; 0
     f78:	0e 94 4d 06 	call	0xc9a	; 0xc9a <disk_write>
     f7c:	02 c0       	rjmp	.+4      	; 0xf82 <sync_window+0x92>
			}
		} else {
			res = FR_DISK_ERR;
     f7e:	81 e0       	ldi	r24, 0x01	; 1
     f80:	01 c0       	rjmp	.+2      	; 0xf84 <sync_window+0x94>
#if !FF_FS_READONLY
static FRESULT sync_window (	/* Returns FR_OK or FR_DISK_ERR */
	FATFS* fs			/* Filesystem object */
)
{
	FRESULT res = FR_OK;
     f82:	80 e0       	ldi	r24, 0x00	; 0
		} else {
			res = FR_DISK_ERR;
		}
	}
	return res;
}
     f84:	df 91       	pop	r29
     f86:	cf 91       	pop	r28
     f88:	1f 91       	pop	r17
     f8a:	0f 91       	pop	r16
     f8c:	ff 90       	pop	r15
     f8e:	ef 90       	pop	r14
     f90:	df 90       	pop	r13
     f92:	cf 90       	pop	r12
     f94:	bf 90       	pop	r11
     f96:	af 90       	pop	r10
     f98:	9f 90       	pop	r9
     f9a:	8f 90       	pop	r8
     f9c:	08 95       	ret

00000f9e <dir_clear>:
#if !FF_FS_READONLY
static FRESULT dir_clear (	/* Returns FR_OK or FR_DISK_ERR */
	FATFS *fs,		/* Filesystem object */
	DWORD clst		/* Directory table to clear */
)
{
     f9e:	8f 92       	push	r8
     fa0:	9f 92       	push	r9
     fa2:	af 92       	push	r10
     fa4:	bf 92       	push	r11
     fa6:	cf 92       	push	r12
     fa8:	df 92       	push	r13
     faa:	ef 92       	push	r14
     fac:	ff 92       	push	r15
     fae:	0f 93       	push	r16
     fb0:	1f 93       	push	r17
     fb2:	cf 93       	push	r28
     fb4:	df 93       	push	r29
     fb6:	ec 01       	movw	r28, r24
     fb8:	7a 01       	movw	r14, r20
     fba:	8b 01       	movw	r16, r22
	LBA_t sect;
	UINT n, szb;
	BYTE *ibuf;


	if (sync_window(fs) != FR_OK) return FR_DISK_ERR;	/* Flush disk access window */
     fbc:	0e 94 78 07 	call	0xef0	; 0xef0 <sync_window>
     fc0:	88 23       	and	r24, r24
     fc2:	d1 f5       	brne	.+116    	; 0x1038 <dir_clear+0x9a>
	sect = clst2sect(fs, clst);		/* Top of the cluster */
     fc4:	ce 01       	movw	r24, r28
     fc6:	b8 01       	movw	r22, r16
     fc8:	a7 01       	movw	r20, r14
     fca:	0e 94 fa 06 	call	0xdf4	; 0xdf4 <clst2sect>
     fce:	5b 01       	movw	r10, r22
     fd0:	6c 01       	movw	r12, r24
	fs->winsect = sect;				/* Set window to top of the cluster */
     fd2:	6c 8f       	std	Y+28, r22	; 0x1c
     fd4:	7d 8f       	std	Y+29, r23	; 0x1d
     fd6:	8e 8f       	std	Y+30, r24	; 0x1e
     fd8:	9f 8f       	std	Y+31, r25	; 0x1f
	memset(fs->win, 0, sizeof fs->win);	/* Clear window buffer */
     fda:	e0 e3       	ldi	r30, 0x30	; 48
     fdc:	8e 2e       	mov	r8, r30
     fde:	91 2c       	mov	r9, r1
     fe0:	8c 0e       	add	r8, r28
     fe2:	9d 1e       	adc	r9, r29
     fe4:	80 e0       	ldi	r24, 0x00	; 0
     fe6:	92 e0       	ldi	r25, 0x02	; 2
     fe8:	d4 01       	movw	r26, r8
     fea:	9c 01       	movw	r18, r24
     fec:	1d 92       	st	X+, r1
     fee:	21 50       	subi	r18, 0x01	; 1
     ff0:	30 40       	sbci	r19, 0x00	; 0
     ff2:	e1 f7       	brne	.-8      	; 0xfec <dir_clear+0x4e>
		ff_memfree(ibuf);
	} else
#endif
	{
		ibuf = fs->win; szb = 1;	/* Use window buffer (many single-sector writes may take a time) */
		for (n = 0; n < fs->csize && disk_write(fs->pdrv, ibuf, sect + n, szb) == RES_OK; n += szb) ;	/* Fill the cluster with 0 */
     ff4:	ee 24       	eor	r14, r14
     ff6:	ff 24       	eor	r15, r15
     ff8:	03 c0       	rjmp	.+6      	; 0x1000 <dir_clear+0x62>
     ffa:	08 94       	sec
     ffc:	e1 1c       	adc	r14, r1
     ffe:	f1 1c       	adc	r15, r1
    1000:	8a 85       	ldd	r24, Y+10	; 0x0a
    1002:	9b 85       	ldd	r25, Y+11	; 0x0b
    1004:	e8 16       	cp	r14, r24
    1006:	f9 06       	cpc	r15, r25
    1008:	78 f4       	brcc	.+30     	; 0x1028 <dir_clear+0x8a>
    100a:	97 01       	movw	r18, r14
    100c:	40 e0       	ldi	r20, 0x00	; 0
    100e:	50 e0       	ldi	r21, 0x00	; 0
    1010:	2a 0d       	add	r18, r10
    1012:	3b 1d       	adc	r19, r11
    1014:	4c 1d       	adc	r20, r12
    1016:	5d 1d       	adc	r21, r13
    1018:	89 81       	ldd	r24, Y+1	; 0x01
    101a:	b4 01       	movw	r22, r8
    101c:	01 e0       	ldi	r16, 0x01	; 1
    101e:	10 e0       	ldi	r17, 0x00	; 0
    1020:	0e 94 4d 06 	call	0xc9a	; 0xc9a <disk_write>
    1024:	88 23       	and	r24, r24
    1026:	49 f3       	breq	.-46     	; 0xffa <dir_clear+0x5c>
	}
	return (n == fs->csize) ? FR_OK : FR_DISK_ERR;
    1028:	81 e0       	ldi	r24, 0x01	; 1
    102a:	2a 85       	ldd	r18, Y+10	; 0x0a
    102c:	3b 85       	ldd	r19, Y+11	; 0x0b
    102e:	e2 16       	cp	r14, r18
    1030:	f3 06       	cpc	r15, r19
    1032:	19 f4       	brne	.+6      	; 0x103a <dir_clear+0x9c>
    1034:	80 e0       	ldi	r24, 0x00	; 0
    1036:	01 c0       	rjmp	.+2      	; 0x103a <dir_clear+0x9c>
	LBA_t sect;
	UINT n, szb;
	BYTE *ibuf;


	if (sync_window(fs) != FR_OK) return FR_DISK_ERR;	/* Flush disk access window */
    1038:	81 e0       	ldi	r24, 0x01	; 1
	{
		ibuf = fs->win; szb = 1;	/* Use window buffer (many single-sector writes may take a time) */
		for (n = 0; n < fs->csize && disk_write(fs->pdrv, ibuf, sect + n, szb) == RES_OK; n += szb) ;	/* Fill the cluster with 0 */
	}
	return (n == fs->csize) ? FR_OK : FR_DISK_ERR;
}
    103a:	df 91       	pop	r29
    103c:	cf 91       	pop	r28
    103e:	1f 91       	pop	r17
    1040:	0f 91       	pop	r16
    1042:	ff 90       	pop	r15
    1044:	ef 90       	pop	r14
    1046:	df 90       	pop	r13
    1048:	cf 90       	pop	r12
    104a:	bf 90       	pop	r11
    104c:	af 90       	pop	r10
    104e:	9f 90       	pop	r9
    1050:	8f 90       	pop	r8
    1052:	08 95       	ret

00001054 <move_window>:

static FRESULT move_window (	/* Returns FR_OK or FR_DISK_ERR */
	FATFS* fs,		/* Filesystem object */
	LBA_t sect		/* Sector LBA to make appearance in the fs->win[] */
)
{
    1054:	af 92       	push	r10
    1056:	bf 92       	push	r11
    1058:	cf 92       	push	r12
    105a:	df 92       	push	r13
    105c:	ef 92       	push	r14
    105e:	ff 92       	push	r15
    1060:	0f 93       	push	r16
    1062:	1f 93       	push	r17
    1064:	df 93       	push	r29
    1066:	cf 93       	push	r28
    1068:	0f 92       	push	r0
    106a:	cd b7       	in	r28, 0x3d	; 61
    106c:	de b7       	in	r29, 0x3e	; 62
    106e:	5c 01       	movw	r10, r24
    1070:	6a 01       	movw	r12, r20
    1072:	7b 01       	movw	r14, r22
	FRESULT res = FR_OK;


	if (sect != fs->winsect) {	/* Window offset changed? */
    1074:	fc 01       	movw	r30, r24
    1076:	84 8d       	ldd	r24, Z+28	; 0x1c
    1078:	95 8d       	ldd	r25, Z+29	; 0x1d
    107a:	a6 8d       	ldd	r26, Z+30	; 0x1e
    107c:	b7 8d       	ldd	r27, Z+31	; 0x1f
    107e:	48 17       	cp	r20, r24
    1080:	59 07       	cpc	r21, r25
    1082:	6a 07       	cpc	r22, r26
    1084:	7b 07       	cpc	r23, r27
    1086:	01 f1       	breq	.+64     	; 0x10c8 <move_window+0x74>
#if !FF_FS_READONLY
		res = sync_window(fs);		/* Flush the window */
    1088:	c5 01       	movw	r24, r10
    108a:	0e 94 78 07 	call	0xef0	; 0xef0 <sync_window>
    108e:	98 2f       	mov	r25, r24
#endif
		if (res == FR_OK) {			/* Fill sector window with new data */
    1090:	88 23       	and	r24, r24
    1092:	d9 f4       	brne	.+54     	; 0x10ca <move_window+0x76>
			if (disk_read(fs->pdrv, fs->win, sect, 1) != RES_OK) {
    1094:	b5 01       	movw	r22, r10
    1096:	60 5d       	subi	r22, 0xD0	; 208
    1098:	7f 4f       	sbci	r23, 0xFF	; 255
    109a:	f5 01       	movw	r30, r10
    109c:	81 81       	ldd	r24, Z+1	; 0x01
    109e:	a7 01       	movw	r20, r14
    10a0:	96 01       	movw	r18, r12
    10a2:	01 e0       	ldi	r16, 0x01	; 1
    10a4:	10 e0       	ldi	r17, 0x00	; 0
    10a6:	99 83       	std	Y+1, r25	; 0x01
    10a8:	0e 94 07 06 	call	0xc0e	; 0xc0e <disk_read>
    10ac:	99 81       	ldd	r25, Y+1	; 0x01
    10ae:	88 23       	and	r24, r24
    10b0:	29 f0       	breq	.+10     	; 0x10bc <move_window+0x68>
				sect = (LBA_t)0 - 1;	/* Invalidate window if read data is not valid */
				res = FR_DISK_ERR;
    10b2:	91 e0       	ldi	r25, 0x01	; 1
#if !FF_FS_READONLY
		res = sync_window(fs);		/* Flush the window */
#endif
		if (res == FR_OK) {			/* Fill sector window with new data */
			if (disk_read(fs->pdrv, fs->win, sect, 1) != RES_OK) {
				sect = (LBA_t)0 - 1;	/* Invalidate window if read data is not valid */
    10b4:	cc 24       	eor	r12, r12
    10b6:	ca 94       	dec	r12
    10b8:	dc 2c       	mov	r13, r12
    10ba:	76 01       	movw	r14, r12
				res = FR_DISK_ERR;
			}
			fs->winsect = sect;
    10bc:	f5 01       	movw	r30, r10
    10be:	c4 8e       	std	Z+28, r12	; 0x1c
    10c0:	d5 8e       	std	Z+29, r13	; 0x1d
    10c2:	e6 8e       	std	Z+30, r14	; 0x1e
    10c4:	f7 8e       	std	Z+31, r15	; 0x1f
    10c6:	01 c0       	rjmp	.+2      	; 0x10ca <move_window+0x76>
static FRESULT move_window (	/* Returns FR_OK or FR_DISK_ERR */
	FATFS* fs,		/* Filesystem object */
	LBA_t sect		/* Sector LBA to make appearance in the fs->win[] */
)
{
	FRESULT res = FR_OK;
    10c8:	90 e0       	ldi	r25, 0x00	; 0
			}
			fs->winsect = sect;
		}
	}
	return res;
}
    10ca:	89 2f       	mov	r24, r25
    10cc:	0f 90       	pop	r0
    10ce:	cf 91       	pop	r28
    10d0:	df 91       	pop	r29
    10d2:	1f 91       	pop	r17
    10d4:	0f 91       	pop	r16
    10d6:	ff 90       	pop	r15
    10d8:	ef 90       	pop	r14
    10da:	df 90       	pop	r13
    10dc:	cf 90       	pop	r12
    10de:	bf 90       	pop	r11
    10e0:	af 90       	pop	r10
    10e2:	08 95       	ret

000010e4 <check_fs>:

static UINT check_fs (	/* 0:FAT/FAT32 VBR, 1:exFAT VBR, 2:Not FAT and valid BS, 3:Not FAT and invalid BS, 4:Disk error */
	FATFS* fs,			/* Filesystem object */
	LBA_t sect			/* Sector to load and check if it is an FAT-VBR or not */
)
{
    10e4:	0f 93       	push	r16
    10e6:	1f 93       	push	r17
    10e8:	cf 93       	push	r28
    10ea:	df 93       	push	r29
    10ec:	ec 01       	movw	r28, r24
	WORD w, sign;
	BYTE b;


	fs->wflag = 0; fs->winsect = (LBA_t)0 - 1;		/* Invaidate window */
    10ee:	1c 82       	std	Y+4, r1	; 0x04
    10f0:	8f ef       	ldi	r24, 0xFF	; 255
    10f2:	9f ef       	ldi	r25, 0xFF	; 255
    10f4:	dc 01       	movw	r26, r24
    10f6:	8c 8f       	std	Y+28, r24	; 0x1c
    10f8:	9d 8f       	std	Y+29, r25	; 0x1d
    10fa:	ae 8f       	std	Y+30, r26	; 0x1e
    10fc:	bf 8f       	std	Y+31, r27	; 0x1f
	if (move_window(fs, sect) != FR_OK) return 4;	/* Load the boot sector */
    10fe:	ce 01       	movw	r24, r28
    1100:	0e 94 2a 08 	call	0x1054	; 0x1054 <move_window>
    1104:	88 23       	and	r24, r24
    1106:	09 f0       	breq	.+2      	; 0x110a <check_fs+0x26>
    1108:	78 c0       	rjmp	.+240    	; 0x11fa <check_fs+0x116>
	sign = ld_16(fs->win + BS_55AA);
    110a:	ce 01       	movw	r24, r28
    110c:	82 5d       	subi	r24, 0xD2	; 210
    110e:	9d 4f       	sbci	r25, 0xFD	; 253
    1110:	0e 94 bc 06 	call	0xd78	; 0xd78 <ld_16>
    1114:	8c 01       	movw	r16, r24
#if FF_FS_EXFAT
	if (sign == 0xAA55 && !memcmp(fs->win + BS_JmpBoot, "\xEB\x76\x90" "EXFAT   ", 11)) return 1;	/* It is an exFAT VBR */
#endif
	b = fs->win[BS_JmpBoot];
    1116:	88 a9       	ldd	r24, Y+48	; 0x30
	if (b == 0xEB || b == 0xE9 || b == 0xE8) {	/* Valid JumpBoot code? (short jump, near jump or near call) */
    1118:	8b 3e       	cpi	r24, 0xEB	; 235
    111a:	29 f0       	breq	.+10     	; 0x1126 <check_fs+0x42>
    111c:	89 3e       	cpi	r24, 0xE9	; 233
    111e:	19 f0       	breq	.+6      	; 0x1126 <check_fs+0x42>
    1120:	88 3e       	cpi	r24, 0xE8	; 232
    1122:	09 f0       	breq	.+2      	; 0x1126 <check_fs+0x42>
    1124:	63 c0       	rjmp	.+198    	; 0x11ec <check_fs+0x108>
		if (sign == 0xAA55 && !memcmp(fs->win + BS_FilSysType32, "FAT32   ", 8)) {
    1126:	2a ea       	ldi	r18, 0xAA	; 170
    1128:	05 35       	cpi	r16, 0x55	; 85
    112a:	12 07       	cpc	r17, r18
    112c:	61 f4       	brne	.+24     	; 0x1146 <check_fs+0x62>
    112e:	ce 01       	movw	r24, r28
    1130:	8e 57       	subi	r24, 0x7E	; 126
    1132:	9f 4f       	sbci	r25, 0xFF	; 255
    1134:	6a e3       	ldi	r22, 0x3A	; 58
    1136:	71 e0       	ldi	r23, 0x01	; 1
    1138:	48 e0       	ldi	r20, 0x08	; 8
    113a:	50 e0       	ldi	r21, 0x00	; 0
    113c:	0e 94 aa 21 	call	0x4354	; 0x4354 <memcmp>
    1140:	00 97       	sbiw	r24, 0x00	; 0
    1142:	09 f4       	brne	.+2      	; 0x1146 <check_fs+0x62>
    1144:	5d c0       	rjmp	.+186    	; 0x1200 <check_fs+0x11c>
			return 0;	/* It is an FAT32 VBR */
		}
		/* FAT volumes created in the early MS-DOS era lack BS_55AA and BS_FilSysType, so FAT VBR needs to be identified without them. */
		w = ld_16(fs->win + BPB_BytsPerSec);
    1146:	ce 01       	movw	r24, r28
    1148:	cb 96       	adiw	r24, 0x3b	; 59
    114a:	0e 94 bc 06 	call	0xd78	; 0xd78 <ld_16>
		b = fs->win[BPB_SecPerClus];
    114e:	4d ad       	ldd	r20, Y+61	; 0x3d
		if ((w & (w - 1)) == 0 && w >= FF_MIN_SS && w <= FF_MAX_SS	/* Properness of sector size (512-4096 and 2^n) */
    1150:	9c 01       	movw	r18, r24
    1152:	21 50       	subi	r18, 0x01	; 1
    1154:	30 40       	sbci	r19, 0x00	; 0
    1156:	28 23       	and	r18, r24
    1158:	39 23       	and	r19, r25
    115a:	21 15       	cp	r18, r1
    115c:	31 05       	cpc	r19, r1
    115e:	09 f0       	breq	.+2      	; 0x1162 <check_fs+0x7e>
    1160:	45 c0       	rjmp	.+138    	; 0x11ec <check_fs+0x108>
    1162:	22 e0       	ldi	r18, 0x02	; 2
    1164:	80 30       	cpi	r24, 0x00	; 0
    1166:	92 07       	cpc	r25, r18
    1168:	08 f4       	brcc	.+2      	; 0x116c <check_fs+0x88>
    116a:	40 c0       	rjmp	.+128    	; 0x11ec <check_fs+0x108>
    116c:	22 e0       	ldi	r18, 0x02	; 2
    116e:	80 30       	cpi	r24, 0x00	; 0
    1170:	92 07       	cpc	r25, r18
    1172:	e1 f5       	brne	.+120    	; 0x11ec <check_fs+0x108>
			&& b != 0 && (b & (b - 1)) == 0				/* Properness of cluster size (2^n) */
    1174:	44 23       	and	r20, r20
    1176:	d1 f1       	breq	.+116    	; 0x11ec <check_fs+0x108>
    1178:	24 2f       	mov	r18, r20
    117a:	30 e0       	ldi	r19, 0x00	; 0
    117c:	c9 01       	movw	r24, r18
    117e:	01 97       	sbiw	r24, 0x01	; 1
    1180:	82 23       	and	r24, r18
    1182:	93 23       	and	r25, r19
    1184:	00 97       	sbiw	r24, 0x00	; 0
    1186:	91 f5       	brne	.+100    	; 0x11ec <check_fs+0x108>
			&& ld_16(fs->win + BPB_RsvdSecCnt) != 0		/* Properness of number of reserved sectors (MNBZ) */
    1188:	ce 01       	movw	r24, r28
    118a:	ce 96       	adiw	r24, 0x3e	; 62
    118c:	0e 94 bc 06 	call	0xd78	; 0xd78 <ld_16>
    1190:	00 97       	sbiw	r24, 0x00	; 0
    1192:	61 f1       	breq	.+88     	; 0x11ec <check_fs+0x108>
			&& (UINT)fs->win[BPB_NumFATs] - 1 <= 1		/* Properness of number of FATs (1 or 2) */
    1194:	fe 01       	movw	r30, r28
    1196:	e0 5c       	subi	r30, 0xC0	; 192
    1198:	ff 4f       	sbci	r31, 0xFF	; 255
    119a:	80 81       	ld	r24, Z
    119c:	90 e0       	ldi	r25, 0x00	; 0
    119e:	01 97       	sbiw	r24, 0x01	; 1
    11a0:	82 30       	cpi	r24, 0x02	; 2
    11a2:	91 05       	cpc	r25, r1
    11a4:	18 f5       	brcc	.+70     	; 0x11ec <check_fs+0x108>
			&& ld_16(fs->win + BPB_RootEntCnt) != 0		/* Properness of root dir size (MNBZ) */
    11a6:	ce 01       	movw	r24, r28
    11a8:	8f 5b       	subi	r24, 0xBF	; 191
    11aa:	9f 4f       	sbci	r25, 0xFF	; 255
    11ac:	0e 94 bc 06 	call	0xd78	; 0xd78 <ld_16>
    11b0:	00 97       	sbiw	r24, 0x00	; 0
    11b2:	e1 f0       	breq	.+56     	; 0x11ec <check_fs+0x108>
			&& (ld_16(fs->win + BPB_TotSec16) >= 128 || ld_32(fs->win + BPB_TotSec32) >= 0x10000)	/* Properness of volume size (>=128) */
    11b4:	ce 01       	movw	r24, r28
    11b6:	8d 5b       	subi	r24, 0xBD	; 189
    11b8:	9f 4f       	sbci	r25, 0xFF	; 255
    11ba:	0e 94 bc 06 	call	0xd78	; 0xd78 <ld_16>
    11be:	80 38       	cpi	r24, 0x80	; 128
    11c0:	91 05       	cpc	r25, r1
    11c2:	68 f4       	brcc	.+26     	; 0x11de <check_fs+0xfa>
    11c4:	ce 01       	movw	r24, r28
    11c6:	80 5b       	subi	r24, 0xB0	; 176
    11c8:	9f 4f       	sbci	r25, 0xFF	; 255
    11ca:	0e 94 c5 06 	call	0xd8a	; 0xd8a <ld_32>
    11ce:	60 30       	cpi	r22, 0x00	; 0
    11d0:	20 e0       	ldi	r18, 0x00	; 0
    11d2:	72 07       	cpc	r23, r18
    11d4:	21 e0       	ldi	r18, 0x01	; 1
    11d6:	82 07       	cpc	r24, r18
    11d8:	20 e0       	ldi	r18, 0x00	; 0
    11da:	92 07       	cpc	r25, r18
    11dc:	38 f0       	brcs	.+14     	; 0x11ec <check_fs+0x108>
			&& ld_16(fs->win + BPB_FATSz16) != 0) {		/* Properness of FAT size (MNBZ) */
    11de:	ce 01       	movw	r24, r28
    11e0:	8a 5b       	subi	r24, 0xBA	; 186
    11e2:	9f 4f       	sbci	r25, 0xFF	; 255
    11e4:	0e 94 bc 06 	call	0xd78	; 0xd78 <ld_16>
    11e8:	00 97       	sbiw	r24, 0x00	; 0
    11ea:	51 f4       	brne	.+20     	; 0x1200 <check_fs+0x11c>
				return 0;	/* It can be presumed an FAT VBR */
		}
	}
	return sign == 0xAA55 ? 2 : 3;	/* Not an FAT VBR (with valid or invalid BS) */
    11ec:	8a ea       	ldi	r24, 0xAA	; 170
    11ee:	05 35       	cpi	r16, 0x55	; 85
    11f0:	18 07       	cpc	r17, r24
    11f2:	49 f4       	brne	.+18     	; 0x1206 <check_fs+0x122>
    11f4:	22 e0       	ldi	r18, 0x02	; 2
    11f6:	30 e0       	ldi	r19, 0x00	; 0
    11f8:	08 c0       	rjmp	.+16     	; 0x120a <check_fs+0x126>
	WORD w, sign;
	BYTE b;


	fs->wflag = 0; fs->winsect = (LBA_t)0 - 1;		/* Invaidate window */
	if (move_window(fs, sect) != FR_OK) return 4;	/* Load the boot sector */
    11fa:	24 e0       	ldi	r18, 0x04	; 4
    11fc:	30 e0       	ldi	r19, 0x00	; 0
    11fe:	05 c0       	rjmp	.+10     	; 0x120a <check_fs+0x126>
			&& ld_16(fs->win + BPB_RsvdSecCnt) != 0		/* Properness of number of reserved sectors (MNBZ) */
			&& (UINT)fs->win[BPB_NumFATs] - 1 <= 1		/* Properness of number of FATs (1 or 2) */
			&& ld_16(fs->win + BPB_RootEntCnt) != 0		/* Properness of root dir size (MNBZ) */
			&& (ld_16(fs->win + BPB_TotSec16) >= 128 || ld_32(fs->win + BPB_TotSec32) >= 0x10000)	/* Properness of volume size (>=128) */
			&& ld_16(fs->win + BPB_FATSz16) != 0) {		/* Properness of FAT size (MNBZ) */
				return 0;	/* It can be presumed an FAT VBR */
    1200:	20 e0       	ldi	r18, 0x00	; 0
    1202:	30 e0       	ldi	r19, 0x00	; 0
    1204:	02 c0       	rjmp	.+4      	; 0x120a <check_fs+0x126>
		}
	}
	return sign == 0xAA55 ? 2 : 3;	/* Not an FAT VBR (with valid or invalid BS) */
    1206:	23 e0       	ldi	r18, 0x03	; 3
    1208:	30 e0       	ldi	r19, 0x00	; 0
}
    120a:	c9 01       	movw	r24, r18
    120c:	df 91       	pop	r29
    120e:	cf 91       	pop	r28
    1210:	1f 91       	pop	r17
    1212:	0f 91       	pop	r16
    1214:	08 95       	ret

00001216 <mount_volume>:
static FRESULT mount_volume (	/* FR_OK(0): successful, !=0: an error occurred */
	const TCHAR** path,			/* Pointer to pointer to the path name (drive number) */
	FATFS** rfs,				/* Pointer to pointer to the found filesystem object */
	BYTE mode					/* Desiered access mode to check write protection */
)
{
    1216:	4f 92       	push	r4
    1218:	5f 92       	push	r5
    121a:	6f 92       	push	r6
    121c:	7f 92       	push	r7
    121e:	8f 92       	push	r8
    1220:	9f 92       	push	r9
    1222:	af 92       	push	r10
    1224:	bf 92       	push	r11
    1226:	cf 92       	push	r12
    1228:	df 92       	push	r13
    122a:	ef 92       	push	r14
    122c:	ff 92       	push	r15
    122e:	0f 93       	push	r16
    1230:	1f 93       	push	r17
    1232:	df 93       	push	r29
    1234:	cf 93       	push	r28
    1236:	cd b7       	in	r28, 0x3d	; 61
    1238:	de b7       	in	r29, 0x3e	; 62
    123a:	a1 97       	sbiw	r28, 0x21	; 33
    123c:	0f b6       	in	r0, 0x3f	; 63
    123e:	f8 94       	cli
    1240:	de bf       	out	0x3e, r29	; 62
    1242:	0f be       	out	0x3f, r0	; 63
    1244:	cd bf       	out	0x3d, r28	; 61
    1246:	6b 01       	movw	r12, r22
	LBA_t bsect;
	UINT fmt;


	/* Get logical drive number */
	*rfs = 0;
    1248:	db 01       	movw	r26, r22
    124a:	1d 92       	st	X+, r1
    124c:	1c 92       	st	X, r1
	vol = get_ldnumber(path);
    124e:	49 a3       	std	Y+33, r20	; 0x21
    1250:	0e 94 29 07 	call	0xe52	; 0xe52 <get_ldnumber>
	if (vol < 0) return FR_INVALID_DRIVE;
    1254:	49 a1       	ldd	r20, Y+33	; 0x21
    1256:	97 fd       	sbrc	r25, 7
    1258:	71 c2       	rjmp	.+1250   	; 0x173c <mount_volume+0x526>

	/* Check if the filesystem object is valid or not */
	fs = FatFs[vol];					/* Get pointer to the filesystem object */
    125a:	fc 01       	movw	r30, r24
    125c:	ee 0f       	add	r30, r30
    125e:	ff 1f       	adc	r31, r31
    1260:	ed 5a       	subi	r30, 0xAD	; 173
    1262:	fe 4f       	sbci	r31, 0xFE	; 254
    1264:	00 81       	ld	r16, Z
    1266:	11 81       	ldd	r17, Z+1	; 0x01
	if (!fs) return FR_NOT_ENABLED;		/* Is the filesystem object available? */
    1268:	01 15       	cp	r16, r1
    126a:	11 05       	cpc	r17, r1
    126c:	09 f4       	brne	.+2      	; 0x1270 <mount_volume+0x5a>
    126e:	68 c2       	rjmp	.+1232   	; 0x1740 <mount_volume+0x52a>
#if FF_FS_REENTRANT
	if (!lock_volume(fs, 1)) return FR_TIMEOUT;	/* Lock the volume, and system if needed */
#endif
	*rfs = fs;							/* Return pointer to the filesystem object */
    1270:	f6 01       	movw	r30, r12
    1272:	11 83       	std	Z+1, r17	; 0x01
    1274:	00 83       	st	Z, r16

	mode &= (BYTE)~FA_READ;				/* Desired access mode, write access or not */
    1276:	8e ef       	ldi	r24, 0xFE	; 254
    1278:	c8 2e       	mov	r12, r24
    127a:	c4 22       	and	r12, r20
	if (fs->fs_type != 0) {				/* If the volume has been mounted */
    127c:	d8 01       	movw	r26, r16
    127e:	8c 91       	ld	r24, X
    1280:	88 23       	and	r24, r24
    1282:	61 f0       	breq	.+24     	; 0x129c <mount_volume+0x86>
		stat = disk_status(fs->pdrv);
    1284:	11 96       	adiw	r26, 0x01	; 1
    1286:	8c 91       	ld	r24, X
    1288:	0e 94 6a 05 	call	0xad4	; 0xad4 <disk_status>
		if (!(stat & STA_NOINIT)) {		/* and the physical drive is kept initialized */
    128c:	80 fd       	sbrc	r24, 0
    128e:	06 c0       	rjmp	.+12     	; 0x129c <mount_volume+0x86>
			if (!FF_FS_READONLY && mode && (stat & STA_PROTECT)) {	/* Check write protection if needed */
    1290:	cc 20       	and	r12, r12
    1292:	09 f4       	brne	.+2      	; 0x1296 <mount_volume+0x80>
    1294:	57 c2       	rjmp	.+1198   	; 0x1744 <mount_volume+0x52e>
    1296:	82 ff       	sbrs	r24, 2
    1298:	55 c2       	rjmp	.+1194   	; 0x1744 <mount_volume+0x52e>
    129a:	58 c2       	rjmp	.+1200   	; 0x174c <mount_volume+0x536>
	}

	/* The filesystem object is not valid. */
	/* Following code attempts to mount the volume. (find an FAT volume, analyze the BPB and initialize the filesystem object) */

	fs->fs_type = 0;					/* Invalidate the filesystem object */
    129c:	f8 01       	movw	r30, r16
    129e:	10 82       	st	Z, r1
	stat = disk_initialize(fs->pdrv);	/* Initialize the volume hosting physical drive */
    12a0:	81 81       	ldd	r24, Z+1	; 0x01
    12a2:	0e 94 70 05 	call	0xae0	; 0xae0 <disk_initialize>
	if (stat & STA_NOINIT) { 			/* Check if the initialization succeeded */
    12a6:	80 fd       	sbrc	r24, 0
    12a8:	4f c2       	rjmp	.+1182   	; 0x1748 <mount_volume+0x532>
		return FR_NOT_READY;			/* Failed to initialize due to no medium or hard error */
	}
	if (!FF_FS_READONLY && mode && (stat & STA_PROTECT)) { /* Check disk write protection if needed */
    12aa:	cc 20       	and	r12, r12
    12ac:	11 f0       	breq	.+4      	; 0x12b2 <mount_volume+0x9c>
    12ae:	82 fd       	sbrc	r24, 2
    12b0:	4d c2       	rjmp	.+1178   	; 0x174c <mount_volume+0x536>
{
	UINT fmt, i;
	DWORD mbr_pt[4];


	fmt = check_fs(fs, 0);				/* Load sector 0 and check if it is an FAT VBR as SFD format */
    12b2:	c8 01       	movw	r24, r16
    12b4:	40 e0       	ldi	r20, 0x00	; 0
    12b6:	50 e0       	ldi	r21, 0x00	; 0
    12b8:	ba 01       	movw	r22, r20
    12ba:	0e 94 72 08 	call	0x10e4	; 0x10e4 <check_fs>
	if (fmt != 2 && (fmt >= 3 || part == 0)) return fmt;	/* Returns if it is an FAT VBR as auto scan, not a BS or disk error */
    12be:	82 30       	cpi	r24, 0x02	; 2
    12c0:	91 05       	cpc	r25, r1
    12c2:	d1 f5       	brne	.+116    	; 0x1338 <mount_volume+0x122>
    12c4:	6e 01       	movw	r12, r28
    12c6:	08 94       	sec
    12c8:	c1 1c       	adc	r12, r1
    12ca:	d1 1c       	adc	r13, r1
    12cc:	56 01       	movw	r10, r12
    12ce:	26 ec       	ldi	r18, 0xC6	; 198
    12d0:	31 e0       	ldi	r19, 0x01	; 1
    12d2:	36 01       	movw	r6, r12
    12d4:	68 01       	movw	r12, r16
    12d6:	89 01       	movw	r16, r18
		return 3;	/* Not found */
	}
#endif
	if (FF_MULTI_PARTITION && part > 4) return 3;	/* MBR has four primary partitions max (FatFs does not support logical partition) */
	for (i = 0; i < 4; i++) {		/* Load partition offset in the MBR */
		mbr_pt[i] = ld_32(fs->win + MBR_Table + i * SZ_PTE + PTE_StLba);
    12d8:	c8 01       	movw	r24, r16
    12da:	c0 96       	adiw	r24, 0x30	; 48
    12dc:	8c 0d       	add	r24, r12
    12de:	9d 1d       	adc	r25, r13
    12e0:	0e 94 c5 06 	call	0xd8a	; 0xd8a <ld_32>
    12e4:	d5 01       	movw	r26, r10
    12e6:	6d 93       	st	X+, r22
    12e8:	7d 93       	st	X+, r23
    12ea:	8d 93       	st	X+, r24
    12ec:	9d 93       	st	X+, r25
    12ee:	5d 01       	movw	r10, r26
    12f0:	00 5f       	subi	r16, 0xF0	; 240
    12f2:	1f 4f       	sbci	r17, 0xFF	; 255
		}
		return 3;	/* Not found */
	}
#endif
	if (FF_MULTI_PARTITION && part > 4) return 3;	/* MBR has four primary partitions max (FatFs does not support logical partition) */
	for (i = 0; i < 4; i++) {		/* Load partition offset in the MBR */
    12f4:	b2 e0       	ldi	r27, 0x02	; 2
    12f6:	06 30       	cpi	r16, 0x06	; 6
    12f8:	1b 07       	cpc	r17, r27
    12fa:	71 f7       	brne	.-36     	; 0x12d8 <mount_volume+0xc2>
    12fc:	86 01       	movw	r16, r12
    12fe:	63 01       	movw	r12, r6

/*-----------------------------------------------------------------------*/
/* Determine logical drive number and mount the volume if needed         */
/*-----------------------------------------------------------------------*/

static FRESULT mount_volume (	/* FR_OK(0): successful, !=0: an error occurred */
    1300:	b1 e1       	ldi	r27, 0x11	; 17
    1302:	ab 2e       	mov	r10, r27
    1304:	b1 2c       	mov	r11, r1
    1306:	ac 0e       	add	r10, r28
    1308:	bd 1e       	adc	r11, r29
	for (i = 0; i < 4; i++) {		/* Load partition offset in the MBR */
		mbr_pt[i] = ld_32(fs->win + MBR_Table + i * SZ_PTE + PTE_StLba);
	}
	i = part ? part - 1 : 0;		/* Table index to find first */
	do {							/* Find an FAT volume */
		fmt = mbr_pt[i] ? check_fs(fs, mbr_pt[i]) : 3;	/* Check if the partition is FAT */
    130a:	f6 01       	movw	r30, r12
    130c:	41 91       	ld	r20, Z+
    130e:	51 91       	ld	r21, Z+
    1310:	61 91       	ld	r22, Z+
    1312:	71 91       	ld	r23, Z+
    1314:	6f 01       	movw	r12, r30
    1316:	41 15       	cp	r20, r1
    1318:	51 05       	cpc	r21, r1
    131a:	61 05       	cpc	r22, r1
    131c:	71 05       	cpc	r23, r1
    131e:	39 f0       	breq	.+14     	; 0x132e <mount_volume+0x118>
    1320:	c8 01       	movw	r24, r16
    1322:	0e 94 72 08 	call	0x10e4	; 0x10e4 <check_fs>
	} while (part == 0 && fmt >= 2 && ++i < 4);
    1326:	82 30       	cpi	r24, 0x02	; 2
    1328:	91 05       	cpc	r25, r1
    132a:	18 f4       	brcc	.+6      	; 0x1332 <mount_volume+0x11c>
    132c:	0d c0       	rjmp	.+26     	; 0x1348 <mount_volume+0x132>
	for (i = 0; i < 4; i++) {		/* Load partition offset in the MBR */
		mbr_pt[i] = ld_32(fs->win + MBR_Table + i * SZ_PTE + PTE_StLba);
	}
	i = part ? part - 1 : 0;		/* Table index to find first */
	do {							/* Find an FAT volume */
		fmt = mbr_pt[i] ? check_fs(fs, mbr_pt[i]) : 3;	/* Check if the partition is FAT */
    132e:	83 e0       	ldi	r24, 0x03	; 3
    1330:	90 e0       	ldi	r25, 0x00	; 0
	} while (part == 0 && fmt >= 2 && ++i < 4);
    1332:	ca 14       	cp	r12, r10
    1334:	db 04       	cpc	r13, r11
    1336:	49 f7       	brne	.-46     	; 0x130a <mount_volume+0xf4>
	if (SS(fs) > FF_MAX_SS || SS(fs) < FF_MIN_SS || (SS(fs) & (SS(fs) - 1))) return FR_DISK_ERR;
#endif

	/* Find an FAT volume on the hosting drive */
	fmt = find_volume(fs, LD2PT(vol));
	if (fmt == 4) return FR_DISK_ERR;		/* An error occurred in the disk I/O layer */
    1338:	84 30       	cpi	r24, 0x04	; 4
    133a:	91 05       	cpc	r25, r1
    133c:	09 f4       	brne	.+2      	; 0x1340 <mount_volume+0x12a>
    133e:	08 c2       	rjmp	.+1040   	; 0x1750 <mount_volume+0x53a>
	if (fmt >= 2) return FR_NO_FILESYSTEM;	/* No FAT volume is found */
    1340:	82 30       	cpi	r24, 0x02	; 2
    1342:	91 05       	cpc	r25, r1
    1344:	08 f0       	brcs	.+2      	; 0x1348 <mount_volume+0x132>
    1346:	06 c2       	rjmp	.+1036   	; 0x1754 <mount_volume+0x53e>
	bsect = fs->winsect;					/* Volume offset in the hosting physical drive */
    1348:	d8 01       	movw	r26, r16
    134a:	5c 96       	adiw	r26, 0x1c	; 28
    134c:	2d 91       	ld	r18, X+
    134e:	3d 91       	ld	r19, X+
    1350:	4d 91       	ld	r20, X+
    1352:	5c 91       	ld	r21, X
    1354:	5f 97       	sbiw	r26, 0x1f	; 31
    1356:	2d 8b       	std	Y+21, r18	; 0x15
    1358:	3e 8b       	std	Y+22, r19	; 0x16
    135a:	4f 8b       	std	Y+23, r20	; 0x17
    135c:	58 8f       	std	Y+24, r21	; 0x18
#endif	/* FF_FS_EXFAT */
	{
		DWORD tsect, sysect, fasize, nclst, szbfat;
		WORD nrsv;

		if (ld_16(fs->win + BPB_BytsPerSec) != SS(fs)) return FR_NO_FILESYSTEM;	/* (BPB_BytsPerSec must be equal to the physical sector size) */
    135e:	c8 01       	movw	r24, r16
    1360:	cb 96       	adiw	r24, 0x3b	; 59
    1362:	0e 94 bc 06 	call	0xd78	; 0xd78 <ld_16>
    1366:	b2 e0       	ldi	r27, 0x02	; 2
    1368:	80 30       	cpi	r24, 0x00	; 0
    136a:	9b 07       	cpc	r25, r27
    136c:	09 f0       	breq	.+2      	; 0x1370 <mount_volume+0x15a>
    136e:	f2 c1       	rjmp	.+996    	; 0x1754 <mount_volume+0x53e>

		fasize = ld_16(fs->win + BPB_FATSz16);		/* Number of sectors per FAT */
    1370:	c8 01       	movw	r24, r16
    1372:	8a 5b       	subi	r24, 0xBA	; 186
    1374:	9f 4f       	sbci	r25, 0xFF	; 255
    1376:	0e 94 bc 06 	call	0xd78	; 0xd78 <ld_16>
    137a:	9c 01       	movw	r18, r24
    137c:	40 e0       	ldi	r20, 0x00	; 0
    137e:	50 e0       	ldi	r21, 0x00	; 0
    1380:	29 8b       	std	Y+17, r18	; 0x11
    1382:	3a 8b       	std	Y+18, r19	; 0x12
    1384:	4b 8b       	std	Y+19, r20	; 0x13
    1386:	5c 8b       	std	Y+20, r21	; 0x14
		if (fasize == 0) fasize = ld_32(fs->win + BPB_FATSz32);
    1388:	21 15       	cp	r18, r1
    138a:	31 05       	cpc	r19, r1
    138c:	41 05       	cpc	r20, r1
    138e:	51 05       	cpc	r21, r1
    1390:	49 f4       	brne	.+18     	; 0x13a4 <mount_volume+0x18e>
    1392:	c8 01       	movw	r24, r16
    1394:	8c 5a       	subi	r24, 0xAC	; 172
    1396:	9f 4f       	sbci	r25, 0xFF	; 255
    1398:	0e 94 c5 06 	call	0xd8a	; 0xd8a <ld_32>
    139c:	69 8b       	std	Y+17, r22	; 0x11
    139e:	7a 8b       	std	Y+18, r23	; 0x12
    13a0:	8b 8b       	std	Y+19, r24	; 0x13
    13a2:	9c 8b       	std	Y+20, r25	; 0x14
		fs->fsize = fasize;
    13a4:	89 89       	ldd	r24, Y+17	; 0x11
    13a6:	9a 89       	ldd	r25, Y+18	; 0x12
    13a8:	ab 89       	ldd	r26, Y+19	; 0x13
    13aa:	bc 89       	ldd	r27, Y+20	; 0x14
    13ac:	f8 01       	movw	r30, r16
    13ae:	80 8f       	std	Z+24, r24	; 0x18
    13b0:	91 8f       	std	Z+25, r25	; 0x19
    13b2:	a2 8f       	std	Z+26, r26	; 0x1a
    13b4:	b3 8f       	std	Z+27, r27	; 0x1b

		fs->n_fats = fs->win[BPB_NumFATs];				/* Number of FATs */
    13b6:	e0 5c       	subi	r30, 0xC0	; 192
    13b8:	ff 4f       	sbci	r31, 0xFF	; 255
    13ba:	90 80       	ld	r9, Z
    13bc:	d8 01       	movw	r26, r16
    13be:	13 96       	adiw	r26, 0x03	; 3
    13c0:	9c 92       	st	X, r9
    13c2:	13 97       	sbiw	r26, 0x03	; 3
		if (fs->n_fats != 1 && fs->n_fats != 2) return FR_NO_FILESYSTEM;	/* (Must be 1 or 2) */
    13c4:	89 2d       	mov	r24, r9
    13c6:	81 50       	subi	r24, 0x01	; 1
    13c8:	82 30       	cpi	r24, 0x02	; 2
    13ca:	08 f0       	brcs	.+2      	; 0x13ce <mount_volume+0x1b8>
    13cc:	c3 c1       	rjmp	.+902    	; 0x1754 <mount_volume+0x53e>
		fasize *= fs->n_fats;							/* Number of sectors for FAT area */

		fs->csize = fs->win[BPB_SecPerClus];			/* Cluster size */
    13ce:	dd 96       	adiw	r26, 0x3d	; 61
    13d0:	ac 90       	ld	r10, X
    13d2:	dd 97       	sbiw	r26, 0x3d	; 61
    13d4:	bb 24       	eor	r11, r11
    13d6:	1b 96       	adiw	r26, 0x0b	; 11
    13d8:	bc 92       	st	X, r11
    13da:	ae 92       	st	-X, r10
    13dc:	1a 97       	sbiw	r26, 0x0a	; 10
		if (fs->csize == 0 || (fs->csize & (fs->csize - 1))) return FR_NO_FILESYSTEM;	/* (Must be power of 2) */
    13de:	a1 14       	cp	r10, r1
    13e0:	b1 04       	cpc	r11, r1
    13e2:	09 f4       	brne	.+2      	; 0x13e6 <mount_volume+0x1d0>
    13e4:	b7 c1       	rjmp	.+878    	; 0x1754 <mount_volume+0x53e>
    13e6:	c5 01       	movw	r24, r10
    13e8:	01 97       	sbiw	r24, 0x01	; 1
    13ea:	8a 21       	and	r24, r10
    13ec:	9b 21       	and	r25, r11
    13ee:	00 97       	sbiw	r24, 0x00	; 0
    13f0:	09 f0       	breq	.+2      	; 0x13f4 <mount_volume+0x1de>
    13f2:	b0 c1       	rjmp	.+864    	; 0x1754 <mount_volume+0x53e>

		fs->n_rootdir = ld_16(fs->win + BPB_RootEntCnt);	/* Number of root directory entries */
    13f4:	c8 01       	movw	r24, r16
    13f6:	8f 5b       	subi	r24, 0xBF	; 191
    13f8:	9f 4f       	sbci	r25, 0xFF	; 255
    13fa:	0e 94 bc 06 	call	0xd78	; 0xd78 <ld_16>
    13fe:	2c 01       	movw	r4, r24
    1400:	f8 01       	movw	r30, r16
    1402:	91 87       	std	Z+9, r25	; 0x09
    1404:	80 87       	std	Z+8, r24	; 0x08
		if (fs->n_rootdir % (SS(fs) / SZDIRE)) return FR_NO_FILESYSTEM;	/* (Must be sector aligned) */
    1406:	8f 70       	andi	r24, 0x0F	; 15
    1408:	90 70       	andi	r25, 0x00	; 0
    140a:	00 97       	sbiw	r24, 0x00	; 0
    140c:	09 f0       	breq	.+2      	; 0x1410 <mount_volume+0x1fa>
    140e:	a2 c1       	rjmp	.+836    	; 0x1754 <mount_volume+0x53e>

		tsect = ld_16(fs->win + BPB_TotSec16);			/* Number of sectors on the volume */
    1410:	c8 01       	movw	r24, r16
    1412:	8d 5b       	subi	r24, 0xBD	; 189
    1414:	9f 4f       	sbci	r25, 0xFF	; 255
    1416:	0e 94 bc 06 	call	0xd78	; 0xd78 <ld_16>
    141a:	6c 01       	movw	r12, r24
    141c:	ee 24       	eor	r14, r14
    141e:	ff 24       	eor	r15, r15
		if (tsect == 0) tsect = ld_32(fs->win + BPB_TotSec32);
    1420:	c1 14       	cp	r12, r1
    1422:	d1 04       	cpc	r13, r1
    1424:	e1 04       	cpc	r14, r1
    1426:	f1 04       	cpc	r15, r1
    1428:	39 f4       	brne	.+14     	; 0x1438 <mount_volume+0x222>
    142a:	c8 01       	movw	r24, r16
    142c:	80 5b       	subi	r24, 0xB0	; 176
    142e:	9f 4f       	sbci	r25, 0xFF	; 255
    1430:	0e 94 c5 06 	call	0xd8a	; 0xd8a <ld_32>
    1434:	6b 01       	movw	r12, r22
    1436:	7c 01       	movw	r14, r24

		nrsv = ld_16(fs->win + BPB_RsvdSecCnt);			/* Number of reserved sectors */
    1438:	c8 01       	movw	r24, r16
    143a:	ce 96       	adiw	r24, 0x3e	; 62
    143c:	0e 94 bc 06 	call	0xd78	; 0xd78 <ld_16>
    1440:	3c 01       	movw	r6, r24
		if (nrsv == 0) return FR_NO_FILESYSTEM;			/* (Must not be 0) */
    1442:	00 97       	sbiw	r24, 0x00	; 0
    1444:	09 f4       	brne	.+2      	; 0x1448 <mount_volume+0x232>
    1446:	86 c1       	rjmp	.+780    	; 0x1754 <mount_volume+0x53e>
		if (fasize == 0) fasize = ld_32(fs->win + BPB_FATSz32);
		fs->fsize = fasize;

		fs->n_fats = fs->win[BPB_NumFATs];				/* Number of FATs */
		if (fs->n_fats != 1 && fs->n_fats != 2) return FR_NO_FILESYSTEM;	/* (Must be 1 or 2) */
		fasize *= fs->n_fats;							/* Number of sectors for FAT area */
    1448:	29 2d       	mov	r18, r9
    144a:	30 e0       	ldi	r19, 0x00	; 0
    144c:	40 e0       	ldi	r20, 0x00	; 0
    144e:	50 e0       	ldi	r21, 0x00	; 0
    1450:	69 89       	ldd	r22, Y+17	; 0x11
    1452:	7a 89       	ldd	r23, Y+18	; 0x12
    1454:	8b 89       	ldd	r24, Y+19	; 0x13
    1456:	9c 89       	ldd	r25, Y+20	; 0x14
    1458:	0e 94 69 21 	call	0x42d2	; 0x42d2 <__mulsi3>
    145c:	69 8f       	std	Y+25, r22	; 0x19
    145e:	7a 8f       	std	Y+26, r23	; 0x1a
    1460:	8b 8f       	std	Y+27, r24	; 0x1b
    1462:	9c 8f       	std	Y+28, r25	; 0x1c

		nrsv = ld_16(fs->win + BPB_RsvdSecCnt);			/* Number of reserved sectors */
		if (nrsv == 0) return FR_NO_FILESYSTEM;			/* (Must not be 0) */

		/* Determine the FAT sub type */
		sysect = nrsv + fasize + fs->n_rootdir / (SS(fs) / SZDIRE);	/* RSV + FAT + DIR */
    1464:	93 01       	movw	r18, r6
    1466:	40 e0       	ldi	r20, 0x00	; 0
    1468:	50 e0       	ldi	r21, 0x00	; 0
    146a:	2d 8f       	std	Y+29, r18	; 0x1d
    146c:	3e 8f       	std	Y+30, r19	; 0x1e
    146e:	4f 8f       	std	Y+31, r20	; 0x1f
    1470:	58 a3       	std	Y+32, r21	; 0x20
    1472:	32 01       	movw	r6, r4
    1474:	a4 e0       	ldi	r26, 0x04	; 4
    1476:	76 94       	lsr	r7
    1478:	67 94       	ror	r6
    147a:	aa 95       	dec	r26
    147c:	e1 f7       	brne	.-8      	; 0x1476 <mount_volume+0x260>
    147e:	88 24       	eor	r8, r8
    1480:	99 24       	eor	r9, r9
    1482:	66 0e       	add	r6, r22
    1484:	77 1e       	adc	r7, r23
    1486:	88 1e       	adc	r8, r24
    1488:	99 1e       	adc	r9, r25
    148a:	62 0e       	add	r6, r18
    148c:	73 1e       	adc	r7, r19
    148e:	84 1e       	adc	r8, r20
    1490:	95 1e       	adc	r9, r21
		if (tsect < sysect) return FR_NO_FILESYSTEM;	/* (Invalid volume size) */
    1492:	c6 14       	cp	r12, r6
    1494:	d7 04       	cpc	r13, r7
    1496:	e8 04       	cpc	r14, r8
    1498:	f9 04       	cpc	r15, r9
    149a:	08 f4       	brcc	.+2      	; 0x149e <mount_volume+0x288>
    149c:	5b c1       	rjmp	.+694    	; 0x1754 <mount_volume+0x53e>
		nclst = (tsect - sysect) / fs->csize;			/* Number of clusters */
    149e:	c7 01       	movw	r24, r14
    14a0:	b6 01       	movw	r22, r12
    14a2:	66 19       	sub	r22, r6
    14a4:	77 09       	sbc	r23, r7
    14a6:	88 09       	sbc	r24, r8
    14a8:	99 09       	sbc	r25, r9
    14aa:	95 01       	movw	r18, r10
    14ac:	40 e0       	ldi	r20, 0x00	; 0
    14ae:	50 e0       	ldi	r21, 0x00	; 0
    14b0:	0e 94 88 21 	call	0x4310	; 0x4310 <__udivmodsi4>
		if (nclst == 0) return FR_NO_FILESYSTEM;		/* (Invalid volume size) */
    14b4:	21 15       	cp	r18, r1
    14b6:	31 05       	cpc	r19, r1
    14b8:	41 05       	cpc	r20, r1
    14ba:	51 05       	cpc	r21, r1
    14bc:	09 f4       	brne	.+2      	; 0x14c0 <mount_volume+0x2aa>
    14be:	4a c1       	rjmp	.+660    	; 0x1754 <mount_volume+0x53e>
		fmt = 0;
		if (nclst <= MAX_FAT32) fmt = FS_FAT32;
    14c0:	26 3f       	cpi	r18, 0xF6	; 246
    14c2:	8f ef       	ldi	r24, 0xFF	; 255
    14c4:	38 07       	cpc	r19, r24
    14c6:	8f ef       	ldi	r24, 0xFF	; 255
    14c8:	48 07       	cpc	r20, r24
    14ca:	8f e0       	ldi	r24, 0x0F	; 15
    14cc:	58 07       	cpc	r21, r24
    14ce:	08 f0       	brcs	.+2      	; 0x14d2 <mount_volume+0x2bc>
    14d0:	41 c1       	rjmp	.+642    	; 0x1754 <mount_volume+0x53e>
		if (nclst <= MAX_FAT16) fmt = FS_FAT16;
    14d2:	26 3f       	cpi	r18, 0xF6	; 246
    14d4:	9f ef       	ldi	r25, 0xFF	; 255
    14d6:	39 07       	cpc	r19, r25
    14d8:	90 e0       	ldi	r25, 0x00	; 0
    14da:	49 07       	cpc	r20, r25
    14dc:	90 e0       	ldi	r25, 0x00	; 0
    14de:	59 07       	cpc	r21, r25
    14e0:	60 f4       	brcc	.+24     	; 0x14fa <mount_volume+0x2e4>
		if (nclst <= MAX_FAT12) fmt = FS_FAT12;
    14e2:	26 3f       	cpi	r18, 0xF6	; 246
    14e4:	af e0       	ldi	r26, 0x0F	; 15
    14e6:	3a 07       	cpc	r19, r26
    14e8:	a0 e0       	ldi	r26, 0x00	; 0
    14ea:	4a 07       	cpc	r20, r26
    14ec:	a0 e0       	ldi	r26, 0x00	; 0
    14ee:	5a 07       	cpc	r21, r26
    14f0:	40 f0       	brcs	.+16     	; 0x1502 <mount_volume+0x2ec>
		if (tsect < sysect) return FR_NO_FILESYSTEM;	/* (Invalid volume size) */
		nclst = (tsect - sysect) / fs->csize;			/* Number of clusters */
		if (nclst == 0) return FR_NO_FILESYSTEM;		/* (Invalid volume size) */
		fmt = 0;
		if (nclst <= MAX_FAT32) fmt = FS_FAT32;
		if (nclst <= MAX_FAT16) fmt = FS_FAT16;
    14f2:	f2 e0       	ldi	r31, 0x02	; 2
    14f4:	af 2e       	mov	r10, r31
    14f6:	b1 2c       	mov	r11, r1
    14f8:	07 c0       	rjmp	.+14     	; 0x1508 <mount_volume+0x2f2>
		sysect = nrsv + fasize + fs->n_rootdir / (SS(fs) / SZDIRE);	/* RSV + FAT + DIR */
		if (tsect < sysect) return FR_NO_FILESYSTEM;	/* (Invalid volume size) */
		nclst = (tsect - sysect) / fs->csize;			/* Number of clusters */
		if (nclst == 0) return FR_NO_FILESYSTEM;		/* (Invalid volume size) */
		fmt = 0;
		if (nclst <= MAX_FAT32) fmt = FS_FAT32;
    14fa:	e3 e0       	ldi	r30, 0x03	; 3
    14fc:	ae 2e       	mov	r10, r30
    14fe:	b1 2c       	mov	r11, r1
    1500:	03 c0       	rjmp	.+6      	; 0x1508 <mount_volume+0x2f2>
		if (nclst <= MAX_FAT16) fmt = FS_FAT16;
		if (nclst <= MAX_FAT12) fmt = FS_FAT12;
    1502:	71 e0       	ldi	r23, 0x01	; 1
    1504:	a7 2e       	mov	r10, r23
    1506:	b1 2c       	mov	r11, r1
		if (fmt == 0) return FR_NO_FILESYSTEM;

		/* Boundaries and Limits */
		fs->n_fatent = nclst + 2;						/* Number of FAT entries */
    1508:	62 e0       	ldi	r22, 0x02	; 2
    150a:	c6 2e       	mov	r12, r22
    150c:	d1 2c       	mov	r13, r1
    150e:	e1 2c       	mov	r14, r1
    1510:	f1 2c       	mov	r15, r1
    1512:	c2 0e       	add	r12, r18
    1514:	d3 1e       	adc	r13, r19
    1516:	e4 1e       	adc	r14, r20
    1518:	f5 1e       	adc	r15, r21
    151a:	f8 01       	movw	r30, r16
    151c:	c4 8a       	std	Z+20, r12	; 0x14
    151e:	d5 8a       	std	Z+21, r13	; 0x15
    1520:	e6 8a       	std	Z+22, r14	; 0x16
    1522:	f7 8a       	std	Z+23, r15	; 0x17
		fs->volbase = bsect;							/* Volume start sector */
    1524:	2d 89       	ldd	r18, Y+21	; 0x15
    1526:	3e 89       	ldd	r19, Y+22	; 0x16
    1528:	4f 89       	ldd	r20, Y+23	; 0x17
    152a:	58 8d       	ldd	r21, Y+24	; 0x18
    152c:	d8 01       	movw	r26, r16
    152e:	90 96       	adiw	r26, 0x20	; 32
    1530:	2d 93       	st	X+, r18
    1532:	3d 93       	st	X+, r19
    1534:	4d 93       	st	X+, r20
    1536:	5c 93       	st	X, r21
    1538:	93 97       	sbiw	r26, 0x23	; 35
		fs->fatbase = bsect + nrsv; 					/* FAT start sector */
    153a:	2d 8d       	ldd	r18, Y+29	; 0x1d
    153c:	3e 8d       	ldd	r19, Y+30	; 0x1e
    153e:	4f 8d       	ldd	r20, Y+31	; 0x1f
    1540:	58 a1       	ldd	r21, Y+32	; 0x20
    1542:	8d 89       	ldd	r24, Y+21	; 0x15
    1544:	9e 89       	ldd	r25, Y+22	; 0x16
    1546:	af 89       	ldd	r26, Y+23	; 0x17
    1548:	b8 8d       	ldd	r27, Y+24	; 0x18
    154a:	28 0f       	add	r18, r24
    154c:	39 1f       	adc	r19, r25
    154e:	4a 1f       	adc	r20, r26
    1550:	5b 1f       	adc	r21, r27
    1552:	d8 01       	movw	r26, r16
    1554:	94 96       	adiw	r26, 0x24	; 36
    1556:	2d 93       	st	X+, r18
    1558:	3d 93       	st	X+, r19
    155a:	4d 93       	st	X+, r20
    155c:	5c 93       	st	X, r21
    155e:	97 97       	sbiw	r26, 0x27	; 39
		fs->database = bsect + sysect;					/* Data start sector */
    1560:	8d 89       	ldd	r24, Y+21	; 0x15
    1562:	9e 89       	ldd	r25, Y+22	; 0x16
    1564:	af 89       	ldd	r26, Y+23	; 0x17
    1566:	b8 8d       	ldd	r27, Y+24	; 0x18
    1568:	68 0e       	add	r6, r24
    156a:	79 1e       	adc	r7, r25
    156c:	8a 1e       	adc	r8, r26
    156e:	9b 1e       	adc	r9, r27
    1570:	d8 01       	movw	r26, r16
    1572:	9c 96       	adiw	r26, 0x2c	; 44
    1574:	6d 92       	st	X+, r6
    1576:	7d 92       	st	X+, r7
    1578:	8d 92       	st	X+, r8
    157a:	9c 92       	st	X, r9
    157c:	9f 97       	sbiw	r26, 0x2f	; 47
		if (fmt == FS_FAT32) {
    157e:	b3 e0       	ldi	r27, 0x03	; 3
    1580:	ab 16       	cp	r10, r27
    1582:	b1 04       	cpc	r11, r1
    1584:	01 f5       	brne	.+64     	; 0x15c6 <mount_volume+0x3b0>
			if (ld_16(fs->win + BPB_FSVer32) != 0) return FR_NO_FILESYSTEM;	/* (Must be FAT32 revision 0.0) */
    1586:	c8 01       	movw	r24, r16
    1588:	86 5a       	subi	r24, 0xA6	; 166
    158a:	9f 4f       	sbci	r25, 0xFF	; 255
    158c:	0e 94 bc 06 	call	0xd78	; 0xd78 <ld_16>
    1590:	00 97       	sbiw	r24, 0x00	; 0
    1592:	09 f0       	breq	.+2      	; 0x1596 <mount_volume+0x380>
    1594:	df c0       	rjmp	.+446    	; 0x1754 <mount_volume+0x53e>
			if (fs->n_rootdir != 0) return FR_NO_FILESYSTEM;	/* (BPB_RootEntCnt must be 0) */
    1596:	41 14       	cp	r4, r1
    1598:	51 04       	cpc	r5, r1
    159a:	09 f0       	breq	.+2      	; 0x159e <mount_volume+0x388>
    159c:	db c0       	rjmp	.+438    	; 0x1754 <mount_volume+0x53e>
			fs->dirbase = ld_32(fs->win + BPB_RootClus32);	/* Root directory start cluster */
    159e:	c8 01       	movw	r24, r16
    15a0:	84 5a       	subi	r24, 0xA4	; 164
    15a2:	9f 4f       	sbci	r25, 0xFF	; 255
    15a4:	0e 94 c5 06 	call	0xd8a	; 0xd8a <ld_32>
    15a8:	f8 01       	movw	r30, r16
    15aa:	60 a7       	std	Z+40, r22	; 0x28
    15ac:	71 a7       	std	Z+41, r23	; 0x29
    15ae:	82 a7       	std	Z+42, r24	; 0x2a
    15b0:	93 a7       	std	Z+43, r25	; 0x2b
			szbfat = fs->n_fatent * 4;					/* (Needed FAT size) */
    15b2:	d7 01       	movw	r26, r14
    15b4:	c6 01       	movw	r24, r12
    15b6:	42 e0       	ldi	r20, 0x02	; 2
    15b8:	88 0f       	add	r24, r24
    15ba:	99 1f       	adc	r25, r25
    15bc:	aa 1f       	adc	r26, r26
    15be:	bb 1f       	adc	r27, r27
    15c0:	4a 95       	dec	r20
    15c2:	d1 f7       	brne	.-12     	; 0x15b8 <mount_volume+0x3a2>
    15c4:	2d c0       	rjmp	.+90     	; 0x1620 <mount_volume+0x40a>
		} else {
			if (fs->n_rootdir == 0)	return FR_NO_FILESYSTEM;	/* (BPB_RootEntCnt must not be 0) */
    15c6:	41 14       	cp	r4, r1
    15c8:	51 04       	cpc	r5, r1
    15ca:	09 f4       	brne	.+2      	; 0x15ce <mount_volume+0x3b8>
    15cc:	c3 c0       	rjmp	.+390    	; 0x1754 <mount_volume+0x53e>
			fs->dirbase = fs->fatbase + fasize;			/* Root directory start sector */
    15ce:	89 8d       	ldd	r24, Y+25	; 0x19
    15d0:	9a 8d       	ldd	r25, Y+26	; 0x1a
    15d2:	ab 8d       	ldd	r26, Y+27	; 0x1b
    15d4:	bc 8d       	ldd	r27, Y+28	; 0x1c
    15d6:	82 0f       	add	r24, r18
    15d8:	93 1f       	adc	r25, r19
    15da:	a4 1f       	adc	r26, r20
    15dc:	b5 1f       	adc	r27, r21
    15de:	f8 01       	movw	r30, r16
    15e0:	80 a7       	std	Z+40, r24	; 0x28
    15e2:	91 a7       	std	Z+41, r25	; 0x29
    15e4:	a2 a7       	std	Z+42, r26	; 0x2a
    15e6:	b3 a7       	std	Z+43, r27	; 0x2b
    15e8:	d7 01       	movw	r26, r14
    15ea:	c6 01       	movw	r24, r12
    15ec:	88 0f       	add	r24, r24
    15ee:	99 1f       	adc	r25, r25
    15f0:	aa 1f       	adc	r26, r26
    15f2:	bb 1f       	adc	r27, r27
			szbfat = (fmt == FS_FAT16) ?				/* (Needed FAT size) */
				fs->n_fatent * 2 : fs->n_fatent * 3 / 2 + (fs->n_fatent & 1);
    15f4:	f2 e0       	ldi	r31, 0x02	; 2
    15f6:	af 16       	cp	r10, r31
    15f8:	b1 04       	cpc	r11, r1
    15fa:	91 f0       	breq	.+36     	; 0x1620 <mount_volume+0x40a>
    15fc:	8c 0d       	add	r24, r12
    15fe:	9d 1d       	adc	r25, r13
    1600:	ae 1d       	adc	r26, r14
    1602:	bf 1d       	adc	r27, r15
    1604:	b6 95       	lsr	r27
    1606:	a7 95       	ror	r26
    1608:	97 95       	ror	r25
    160a:	87 95       	ror	r24
    160c:	a7 01       	movw	r20, r14
    160e:	96 01       	movw	r18, r12
    1610:	21 70       	andi	r18, 0x01	; 1
    1612:	30 70       	andi	r19, 0x00	; 0
    1614:	40 70       	andi	r20, 0x00	; 0
    1616:	50 70       	andi	r21, 0x00	; 0
    1618:	82 0f       	add	r24, r18
    161a:	93 1f       	adc	r25, r19
    161c:	a4 1f       	adc	r26, r20
    161e:	b5 1f       	adc	r27, r21
		}
		if (fs->fsize < (szbfat + (SS(fs) - 1)) / SS(fs)) return FR_NO_FILESYSTEM;	/* (BPB_FATSz must not be less than the size needed) */
    1620:	81 50       	subi	r24, 0x01	; 1
    1622:	9e 4f       	sbci	r25, 0xFE	; 254
    1624:	af 4f       	sbci	r26, 0xFF	; 255
    1626:	bf 4f       	sbci	r27, 0xFF	; 255
    1628:	f9 e0       	ldi	r31, 0x09	; 9
    162a:	b6 95       	lsr	r27
    162c:	a7 95       	ror	r26
    162e:	97 95       	ror	r25
    1630:	87 95       	ror	r24
    1632:	fa 95       	dec	r31
    1634:	d1 f7       	brne	.-12     	; 0x162a <mount_volume+0x414>
    1636:	29 89       	ldd	r18, Y+17	; 0x11
    1638:	3a 89       	ldd	r19, Y+18	; 0x12
    163a:	4b 89       	ldd	r20, Y+19	; 0x13
    163c:	5c 89       	ldd	r21, Y+20	; 0x14
    163e:	28 17       	cp	r18, r24
    1640:	39 07       	cpc	r19, r25
    1642:	4a 07       	cpc	r20, r26
    1644:	5b 07       	cpc	r21, r27
    1646:	08 f4       	brcc	.+2      	; 0x164a <mount_volume+0x434>
    1648:	85 c0       	rjmp	.+266    	; 0x1754 <mount_volume+0x53e>

#if !FF_FS_READONLY
		/* Get FSInfo if available */
		fs->last_clst = fs->free_clst = 0xFFFFFFFF;		/* Invalidate cluster allocation information */
    164a:	8f ef       	ldi	r24, 0xFF	; 255
    164c:	9f ef       	ldi	r25, 0xFF	; 255
    164e:	dc 01       	movw	r26, r24
    1650:	f8 01       	movw	r30, r16
    1652:	80 8b       	std	Z+16, r24	; 0x10
    1654:	91 8b       	std	Z+17, r25	; 0x11
    1656:	a2 8b       	std	Z+18, r26	; 0x12
    1658:	b3 8b       	std	Z+19, r27	; 0x13
    165a:	84 87       	std	Z+12, r24	; 0x0c
    165c:	95 87       	std	Z+13, r25	; 0x0d
    165e:	a6 87       	std	Z+14, r26	; 0x0e
    1660:	b7 87       	std	Z+15, r27	; 0x0f
		fs->fsi_flag = 0x80;	/* Disable FSInfo by default */
    1662:	80 e8       	ldi	r24, 0x80	; 128
    1664:	85 83       	std	Z+5, r24	; 0x05
		if (fmt == FS_FAT32
    1666:	f3 e0       	ldi	r31, 0x03	; 3
    1668:	af 16       	cp	r10, r31
    166a:	b1 04       	cpc	r11, r1
    166c:	09 f0       	breq	.+2      	; 0x1670 <mount_volume+0x45a>
    166e:	56 c0       	rjmp	.+172    	; 0x171c <mount_volume+0x506>
			&& ld_16(fs->win + BPB_FSInfo32) == 1	/* FAT32: Enable FSInfo feature only if FSInfo sector is next to VBR */
    1670:	c8 01       	movw	r24, r16
    1672:	80 5a       	subi	r24, 0xA0	; 160
    1674:	9f 4f       	sbci	r25, 0xFF	; 255
    1676:	0e 94 bc 06 	call	0xd78	; 0xd78 <ld_16>
    167a:	81 30       	cpi	r24, 0x01	; 1
    167c:	91 05       	cpc	r25, r1
    167e:	09 f0       	breq	.+2      	; 0x1682 <mount_volume+0x46c>
    1680:	4d c0       	rjmp	.+154    	; 0x171c <mount_volume+0x506>
			&& move_window(fs, bsect + 1) == FR_OK)
    1682:	4d 89       	ldd	r20, Y+21	; 0x15
    1684:	5e 89       	ldd	r21, Y+22	; 0x16
    1686:	6f 89       	ldd	r22, Y+23	; 0x17
    1688:	78 8d       	ldd	r23, Y+24	; 0x18
    168a:	4f 5f       	subi	r20, 0xFF	; 255
    168c:	5f 4f       	sbci	r21, 0xFF	; 255
    168e:	6f 4f       	sbci	r22, 0xFF	; 255
    1690:	7f 4f       	sbci	r23, 0xFF	; 255
    1692:	c8 01       	movw	r24, r16
    1694:	0e 94 2a 08 	call	0x1054	; 0x1054 <move_window>
    1698:	88 23       	and	r24, r24
    169a:	09 f0       	breq	.+2      	; 0x169e <mount_volume+0x488>
    169c:	3f c0       	rjmp	.+126    	; 0x171c <mount_volume+0x506>
		{
			fs->fsi_flag = 0;
    169e:	d8 01       	movw	r26, r16
    16a0:	15 96       	adiw	r26, 0x05	; 5
    16a2:	1c 92       	st	X, r1
			if (   ld_32(fs->win + FSI_LeadSig) == 0x41615252	/* Load FSInfo data if available */
    16a4:	c8 01       	movw	r24, r16
    16a6:	c0 96       	adiw	r24, 0x30	; 48
    16a8:	0e 94 c5 06 	call	0xd8a	; 0xd8a <ld_32>
    16ac:	62 35       	cpi	r22, 0x52	; 82
    16ae:	b2 e5       	ldi	r27, 0x52	; 82
    16b0:	7b 07       	cpc	r23, r27
    16b2:	b1 e6       	ldi	r27, 0x61	; 97
    16b4:	8b 07       	cpc	r24, r27
    16b6:	b1 e4       	ldi	r27, 0x41	; 65
    16b8:	9b 07       	cpc	r25, r27
    16ba:	81 f5       	brne	.+96     	; 0x171c <mount_volume+0x506>
				&& ld_32(fs->win + FSI_StrucSig) == 0x61417272
    16bc:	c8 01       	movw	r24, r16
    16be:	8c 5e       	subi	r24, 0xEC	; 236
    16c0:	9d 4f       	sbci	r25, 0xFD	; 253
    16c2:	0e 94 c5 06 	call	0xd8a	; 0xd8a <ld_32>
    16c6:	62 37       	cpi	r22, 0x72	; 114
    16c8:	e2 e7       	ldi	r30, 0x72	; 114
    16ca:	7e 07       	cpc	r23, r30
    16cc:	e1 e4       	ldi	r30, 0x41	; 65
    16ce:	8e 07       	cpc	r24, r30
    16d0:	e1 e6       	ldi	r30, 0x61	; 97
    16d2:	9e 07       	cpc	r25, r30
    16d4:	19 f5       	brne	.+70     	; 0x171c <mount_volume+0x506>
				&& ld_32(fs->win + FSI_TrailSig) == 0xAA550000)
    16d6:	c8 01       	movw	r24, r16
    16d8:	84 5d       	subi	r24, 0xD4	; 212
    16da:	9d 4f       	sbci	r25, 0xFD	; 253
    16dc:	0e 94 c5 06 	call	0xd8a	; 0xd8a <ld_32>
    16e0:	60 30       	cpi	r22, 0x00	; 0
    16e2:	f0 e0       	ldi	r31, 0x00	; 0
    16e4:	7f 07       	cpc	r23, r31
    16e6:	f5 e5       	ldi	r31, 0x55	; 85
    16e8:	8f 07       	cpc	r24, r31
    16ea:	fa ea       	ldi	r31, 0xAA	; 170
    16ec:	9f 07       	cpc	r25, r31
    16ee:	b1 f4       	brne	.+44     	; 0x171c <mount_volume+0x506>
			{
#if (FF_FS_NOFSINFO & 1) == 0	/* Get free cluster count if trust it */
				fs->free_clst = ld_32(fs->win + FSI_Free_Count);
    16f0:	c8 01       	movw	r24, r16
    16f2:	88 5e       	subi	r24, 0xE8	; 232
    16f4:	9d 4f       	sbci	r25, 0xFD	; 253
    16f6:	0e 94 c5 06 	call	0xd8a	; 0xd8a <ld_32>
    16fa:	d8 01       	movw	r26, r16
    16fc:	50 96       	adiw	r26, 0x10	; 16
    16fe:	6d 93       	st	X+, r22
    1700:	7d 93       	st	X+, r23
    1702:	8d 93       	st	X+, r24
    1704:	9c 93       	st	X, r25
    1706:	53 97       	sbiw	r26, 0x13	; 19
#endif
#if (FF_FS_NOFSINFO & 2) == 0	/* Get next free cluster if rtust it */
				fs->last_clst = ld_32(fs->win + FSI_Nxt_Free);
    1708:	c8 01       	movw	r24, r16
    170a:	84 5e       	subi	r24, 0xE4	; 228
    170c:	9d 4f       	sbci	r25, 0xFD	; 253
    170e:	0e 94 c5 06 	call	0xd8a	; 0xd8a <ld_32>
    1712:	f8 01       	movw	r30, r16
    1714:	64 87       	std	Z+12, r22	; 0x0c
    1716:	75 87       	std	Z+13, r23	; 0x0d
    1718:	86 87       	std	Z+14, r24	; 0x0e
    171a:	97 87       	std	Z+15, r25	; 0x0f
			}
		}
#endif	/* !FF_FS_READONLY */
	}

	fs->fs_type = (BYTE)fmt;/* FAT sub-type (the filesystem object gets valid) */
    171c:	d8 01       	movw	r26, r16
    171e:	ac 92       	st	X, r10
	fs->id = ++Fsid;		/* Volume mount ID */
    1720:	80 91 55 01 	lds	r24, 0x0155
    1724:	90 91 56 01 	lds	r25, 0x0156
    1728:	01 96       	adiw	r24, 0x01	; 1
    172a:	90 93 56 01 	sts	0x0156, r25
    172e:	80 93 55 01 	sts	0x0155, r24
    1732:	17 96       	adiw	r26, 0x07	; 7
    1734:	9c 93       	st	X, r25
    1736:	8e 93       	st	-X, r24
    1738:	16 97       	sbiw	r26, 0x06	; 6
    173a:	04 c0       	rjmp	.+8      	; 0x1744 <mount_volume+0x52e>


	/* Get logical drive number */
	*rfs = 0;
	vol = get_ldnumber(path);
	if (vol < 0) return FR_INVALID_DRIVE;
    173c:	8b e0       	ldi	r24, 0x0B	; 11
    173e:	0b c0       	rjmp	.+22     	; 0x1756 <mount_volume+0x540>

	/* Check if the filesystem object is valid or not */
	fs = FatFs[vol];					/* Get pointer to the filesystem object */
	if (!fs) return FR_NOT_ENABLED;		/* Is the filesystem object available? */
    1740:	8c e0       	ldi	r24, 0x0C	; 12
    1742:	09 c0       	rjmp	.+18     	; 0x1756 <mount_volume+0x540>
		stat = disk_status(fs->pdrv);
		if (!(stat & STA_NOINIT)) {		/* and the physical drive is kept initialized */
			if (!FF_FS_READONLY && mode && (stat & STA_PROTECT)) {	/* Check write protection if needed */
				return FR_WRITE_PROTECTED;
			}
			return FR_OK;				/* The filesystem object is already valid */
    1744:	80 e0       	ldi	r24, 0x00	; 0
    1746:	07 c0       	rjmp	.+14     	; 0x1756 <mount_volume+0x540>
	/* Following code attempts to mount the volume. (find an FAT volume, analyze the BPB and initialize the filesystem object) */

	fs->fs_type = 0;					/* Invalidate the filesystem object */
	stat = disk_initialize(fs->pdrv);	/* Initialize the volume hosting physical drive */
	if (stat & STA_NOINIT) { 			/* Check if the initialization succeeded */
		return FR_NOT_READY;			/* Failed to initialize due to no medium or hard error */
    1748:	83 e0       	ldi	r24, 0x03	; 3
    174a:	05 c0       	rjmp	.+10     	; 0x1756 <mount_volume+0x540>
	}
	if (!FF_FS_READONLY && mode && (stat & STA_PROTECT)) { /* Check disk write protection if needed */
		return FR_WRITE_PROTECTED;
    174c:	8a e0       	ldi	r24, 0x0A	; 10
    174e:	03 c0       	rjmp	.+6      	; 0x1756 <mount_volume+0x540>
	if (SS(fs) > FF_MAX_SS || SS(fs) < FF_MIN_SS || (SS(fs) & (SS(fs) - 1))) return FR_DISK_ERR;
#endif

	/* Find an FAT volume on the hosting drive */
	fmt = find_volume(fs, LD2PT(vol));
	if (fmt == 4) return FR_DISK_ERR;		/* An error occurred in the disk I/O layer */
    1750:	81 e0       	ldi	r24, 0x01	; 1
    1752:	01 c0       	rjmp	.+2      	; 0x1756 <mount_volume+0x540>
			if (fs->n_rootdir == 0)	return FR_NO_FILESYSTEM;	/* (BPB_RootEntCnt must not be 0) */
			fs->dirbase = fs->fatbase + fasize;			/* Root directory start sector */
			szbfat = (fmt == FS_FAT16) ?				/* (Needed FAT size) */
				fs->n_fatent * 2 : fs->n_fatent * 3 / 2 + (fs->n_fatent & 1);
		}
		if (fs->fsize < (szbfat + (SS(fs) - 1)) / SS(fs)) return FR_NO_FILESYSTEM;	/* (BPB_FATSz must not be less than the size needed) */
    1754:	8d e0       	ldi	r24, 0x0D	; 13
#if FF_FS_LOCK				/* Clear file lock semaphores */
	clear_share(fs);
#endif

	return FR_OK;
}
    1756:	a1 96       	adiw	r28, 0x21	; 33
    1758:	0f b6       	in	r0, 0x3f	; 63
    175a:	f8 94       	cli
    175c:	de bf       	out	0x3e, r29	; 62
    175e:	0f be       	out	0x3f, r0	; 63
    1760:	cd bf       	out	0x3d, r28	; 61
    1762:	cf 91       	pop	r28
    1764:	df 91       	pop	r29
    1766:	1f 91       	pop	r17
    1768:	0f 91       	pop	r16
    176a:	ff 90       	pop	r15
    176c:	ef 90       	pop	r14
    176e:	df 90       	pop	r13
    1770:	cf 90       	pop	r12
    1772:	bf 90       	pop	r11
    1774:	af 90       	pop	r10
    1776:	9f 90       	pop	r9
    1778:	8f 90       	pop	r8
    177a:	7f 90       	pop	r7
    177c:	6f 90       	pop	r6
    177e:	5f 90       	pop	r5
    1780:	4f 90       	pop	r4
    1782:	08 95       	ret

00001784 <put_fat>:
static FRESULT put_fat (	/* FR_OK(0):succeeded, !=0:error */
	FATFS* fs,		/* Corresponding filesystem object */
	DWORD clst,		/* FAT index number (cluster number) to be changed */
	DWORD val		/* New value to be set to the entry */
)
{
    1784:	6f 92       	push	r6
    1786:	7f 92       	push	r7
    1788:	8f 92       	push	r8
    178a:	9f 92       	push	r9
    178c:	af 92       	push	r10
    178e:	bf 92       	push	r11
    1790:	cf 92       	push	r12
    1792:	df 92       	push	r13
    1794:	ef 92       	push	r14
    1796:	ff 92       	push	r15
    1798:	0f 93       	push	r16
    179a:	1f 93       	push	r17
    179c:	df 93       	push	r29
    179e:	cf 93       	push	r28
    17a0:	0f 92       	push	r0
    17a2:	cd b7       	in	r28, 0x3d	; 61
    17a4:	de b7       	in	r29, 0x3e	; 62
    17a6:	3c 01       	movw	r6, r24
    17a8:	6a 01       	movw	r12, r20
    17aa:	7b 01       	movw	r14, r22
    17ac:	48 01       	movw	r8, r16
    17ae:	59 01       	movw	r10, r18
	UINT bc;
	BYTE *p;
	FRESULT res = FR_INT_ERR;


	if (clst >= 2 && clst < fs->n_fatent) {	/* Check if in valid range */
    17b0:	42 30       	cpi	r20, 0x02	; 2
    17b2:	51 05       	cpc	r21, r1
    17b4:	61 05       	cpc	r22, r1
    17b6:	71 05       	cpc	r23, r1
    17b8:	08 f4       	brcc	.+2      	; 0x17bc <put_fat+0x38>
    17ba:	e0 c0       	rjmp	.+448    	; 0x197c <put_fat+0x1f8>
    17bc:	f3 01       	movw	r30, r6
    17be:	84 89       	ldd	r24, Z+20	; 0x14
    17c0:	95 89       	ldd	r25, Z+21	; 0x15
    17c2:	a6 89       	ldd	r26, Z+22	; 0x16
    17c4:	b7 89       	ldd	r27, Z+23	; 0x17
    17c6:	48 17       	cp	r20, r24
    17c8:	59 07       	cpc	r21, r25
    17ca:	6a 07       	cpc	r22, r26
    17cc:	7b 07       	cpc	r23, r27
    17ce:	08 f0       	brcs	.+2      	; 0x17d2 <put_fat+0x4e>
    17d0:	d5 c0       	rjmp	.+426    	; 0x197c <put_fat+0x1f8>
		switch (fs->fs_type) {
    17d2:	80 81       	ld	r24, Z
    17d4:	82 30       	cpi	r24, 0x02	; 2
    17d6:	09 f4       	brne	.+2      	; 0x17da <put_fat+0x56>
    17d8:	70 c0       	rjmp	.+224    	; 0x18ba <put_fat+0x136>
    17da:	83 30       	cpi	r24, 0x03	; 3
    17dc:	09 f4       	brne	.+2      	; 0x17e0 <put_fat+0x5c>
    17de:	8e c0       	rjmp	.+284    	; 0x18fc <put_fat+0x178>
    17e0:	81 30       	cpi	r24, 0x01	; 1
    17e2:	09 f0       	breq	.+2      	; 0x17e6 <put_fat+0x62>
    17e4:	cb c0       	rjmp	.+406    	; 0x197c <put_fat+0x1f8>
		case FS_FAT12:
			bc = (UINT)clst; bc += bc / 2;	/* bc: byte offset of the entry */
    17e6:	8a 01       	movw	r16, r20
    17e8:	16 95       	lsr	r17
    17ea:	07 95       	ror	r16
    17ec:	0c 0d       	add	r16, r12
    17ee:	1d 1d       	adc	r17, r13
			res = move_window(fs, fs->fatbase + (bc / SS(fs)));
    17f0:	a8 01       	movw	r20, r16
    17f2:	45 2f       	mov	r20, r21
    17f4:	55 27       	eor	r21, r21
    17f6:	46 95       	lsr	r20
    17f8:	60 e0       	ldi	r22, 0x00	; 0
    17fa:	70 e0       	ldi	r23, 0x00	; 0
    17fc:	84 a1       	ldd	r24, Z+36	; 0x24
    17fe:	95 a1       	ldd	r25, Z+37	; 0x25
    1800:	a6 a1       	ldd	r26, Z+38	; 0x26
    1802:	b7 a1       	ldd	r27, Z+39	; 0x27
    1804:	48 0f       	add	r20, r24
    1806:	59 1f       	adc	r21, r25
    1808:	6a 1f       	adc	r22, r26
    180a:	7b 1f       	adc	r23, r27
    180c:	c3 01       	movw	r24, r6
    180e:	0e 94 2a 08 	call	0x1054	; 0x1054 <move_window>
    1812:	28 2f       	mov	r18, r24
			if (res != FR_OK) break;
    1814:	88 23       	and	r24, r24
    1816:	09 f0       	breq	.+2      	; 0x181a <put_fat+0x96>
    1818:	b2 c0       	rjmp	.+356    	; 0x197e <put_fat+0x1fa>
			p = fs->win + bc++ % SS(fs);
    181a:	c8 01       	movw	r24, r16
    181c:	91 70       	andi	r25, 0x01	; 1
    181e:	0f 5f       	subi	r16, 0xFF	; 255
    1820:	1f 4f       	sbci	r17, 0xFF	; 255
			*p = (clst & 1) ? ((*p & 0x0F) | ((BYTE)val << 4)) : (BYTE)val;	/* Update 1st byte */
    1822:	21 e0       	ldi	r18, 0x01	; 1
    1824:	e2 2e       	mov	r14, r18
    1826:	f1 2c       	mov	r15, r1
    1828:	ec 20       	and	r14, r12
    182a:	fd 20       	and	r15, r13
    182c:	e1 14       	cp	r14, r1
    182e:	f1 04       	cpc	r15, r1
    1830:	51 f0       	breq	.+20     	; 0x1846 <put_fat+0xc2>
    1832:	f3 01       	movw	r30, r6
    1834:	e8 0f       	add	r30, r24
    1836:	f9 1f       	adc	r31, r25
    1838:	30 a9       	ldd	r19, Z+48	; 0x30
    183a:	3f 70       	andi	r19, 0x0F	; 15
    183c:	28 2d       	mov	r18, r8
    183e:	22 95       	swap	r18
    1840:	20 7f       	andi	r18, 0xF0	; 240
    1842:	23 2b       	or	r18, r19
    1844:	01 c0       	rjmp	.+2      	; 0x1848 <put_fat+0xc4>
    1846:	28 2d       	mov	r18, r8
    1848:	86 0d       	add	r24, r6
    184a:	97 1d       	adc	r25, r7
    184c:	dc 01       	movw	r26, r24
    184e:	d0 96       	adiw	r26, 0x30	; 48
    1850:	2c 93       	st	X, r18
			fs->wflag = 1;
    1852:	81 e0       	ldi	r24, 0x01	; 1
    1854:	f3 01       	movw	r30, r6
    1856:	84 83       	std	Z+4, r24	; 0x04
			res = move_window(fs, fs->fatbase + (bc / SS(fs)));
    1858:	a8 01       	movw	r20, r16
    185a:	45 2f       	mov	r20, r21
    185c:	55 27       	eor	r21, r21
    185e:	46 95       	lsr	r20
    1860:	60 e0       	ldi	r22, 0x00	; 0
    1862:	70 e0       	ldi	r23, 0x00	; 0
    1864:	84 a1       	ldd	r24, Z+36	; 0x24
    1866:	95 a1       	ldd	r25, Z+37	; 0x25
    1868:	a6 a1       	ldd	r26, Z+38	; 0x26
    186a:	b7 a1       	ldd	r27, Z+39	; 0x27
    186c:	48 0f       	add	r20, r24
    186e:	59 1f       	adc	r21, r25
    1870:	6a 1f       	adc	r22, r26
    1872:	7b 1f       	adc	r23, r27
    1874:	c3 01       	movw	r24, r6
    1876:	0e 94 2a 08 	call	0x1054	; 0x1054 <move_window>
    187a:	28 2f       	mov	r18, r24
			if (res != FR_OK) break;
    187c:	88 23       	and	r24, r24
    187e:	09 f0       	breq	.+2      	; 0x1882 <put_fat+0xfe>
    1880:	7e c0       	rjmp	.+252    	; 0x197e <put_fat+0x1fa>
			p = fs->win + bc % SS(fs);
    1882:	11 70       	andi	r17, 0x01	; 1
			*p = (clst & 1) ? (BYTE)(val >> 4) : ((*p & 0xF0) | ((BYTE)(val >> 8) & 0x0F));	/* Update 2nd byte */
    1884:	e1 14       	cp	r14, r1
    1886:	f1 04       	cpc	r15, r1
    1888:	49 f0       	breq	.+18     	; 0x189c <put_fat+0x118>
    188a:	b4 e0       	ldi	r27, 0x04	; 4
    188c:	b6 94       	lsr	r11
    188e:	a7 94       	ror	r10
    1890:	97 94       	ror	r9
    1892:	87 94       	ror	r8
    1894:	ba 95       	dec	r27
    1896:	d1 f7       	brne	.-12     	; 0x188c <put_fat+0x108>
    1898:	88 2d       	mov	r24, r8
    189a:	08 c0       	rjmp	.+16     	; 0x18ac <put_fat+0x128>
    189c:	f3 01       	movw	r30, r6
    189e:	e0 0f       	add	r30, r16
    18a0:	f1 1f       	adc	r31, r17
    18a2:	80 a9       	ldd	r24, Z+48	; 0x30
    18a4:	80 7f       	andi	r24, 0xF0	; 240
    18a6:	99 2d       	mov	r25, r9
    18a8:	9f 70       	andi	r25, 0x0F	; 15
    18aa:	89 2b       	or	r24, r25
    18ac:	06 0d       	add	r16, r6
    18ae:	17 1d       	adc	r17, r7
    18b0:	d8 01       	movw	r26, r16
    18b2:	d0 96       	adiw	r26, 0x30	; 48
    18b4:	8c 93       	st	X, r24
    18b6:	d0 97       	sbiw	r26, 0x30	; 48
    18b8:	1d c0       	rjmp	.+58     	; 0x18f4 <put_fat+0x170>
			fs->wflag = 1;
			break;

		case FS_FAT16:
			res = move_window(fs, fs->fatbase + (clst / (SS(fs) / 2)));
    18ba:	45 2f       	mov	r20, r21
    18bc:	56 2f       	mov	r21, r22
    18be:	67 2f       	mov	r22, r23
    18c0:	77 27       	eor	r23, r23
    18c2:	f3 01       	movw	r30, r6
    18c4:	84 a1       	ldd	r24, Z+36	; 0x24
    18c6:	95 a1       	ldd	r25, Z+37	; 0x25
    18c8:	a6 a1       	ldd	r26, Z+38	; 0x26
    18ca:	b7 a1       	ldd	r27, Z+39	; 0x27
    18cc:	48 0f       	add	r20, r24
    18ce:	59 1f       	adc	r21, r25
    18d0:	6a 1f       	adc	r22, r26
    18d2:	7b 1f       	adc	r23, r27
    18d4:	c3 01       	movw	r24, r6
    18d6:	0e 94 2a 08 	call	0x1054	; 0x1054 <move_window>
    18da:	28 2f       	mov	r18, r24
			if (res != FR_OK) break;
    18dc:	88 23       	and	r24, r24
    18de:	09 f0       	breq	.+2      	; 0x18e2 <put_fat+0x15e>
    18e0:	4e c0       	rjmp	.+156    	; 0x197e <put_fat+0x1fa>
			st_16(fs->win + clst * 2 % SS(fs), (WORD)val);	/* Simple WORD array */
    18e2:	86 01       	movw	r16, r12
    18e4:	00 0f       	add	r16, r16
    18e6:	11 1f       	adc	r17, r17
    18e8:	11 70       	andi	r17, 0x01	; 1
#endif

#if !FF_FS_READONLY
static void st_16 (BYTE* ptr, WORD val)	/* Store a 2-byte word in little-endian */
{
	*ptr++ = (BYTE)val; val >>= 8;
    18ea:	f3 01       	movw	r30, r6
    18ec:	e0 0f       	add	r30, r16
    18ee:	f1 1f       	adc	r31, r17
    18f0:	80 aa       	std	Z+48, r8	; 0x30
	*ptr++ = (BYTE)val;
    18f2:	91 aa       	std	Z+49, r9	; 0x31

		case FS_FAT16:
			res = move_window(fs, fs->fatbase + (clst / (SS(fs) / 2)));
			if (res != FR_OK) break;
			st_16(fs->win + clst * 2 % SS(fs), (WORD)val);	/* Simple WORD array */
			fs->wflag = 1;
    18f4:	81 e0       	ldi	r24, 0x01	; 1
    18f6:	f3 01       	movw	r30, r6
    18f8:	84 83       	std	Z+4, r24	; 0x04
			break;
    18fa:	41 c0       	rjmp	.+130    	; 0x197e <put_fat+0x1fa>

		case FS_FAT32:
#if FF_FS_EXFAT
		case FS_EXFAT:
#endif
			res = move_window(fs, fs->fatbase + (clst / (SS(fs) / 4)));
    18fc:	e7 e0       	ldi	r30, 0x07	; 7
    18fe:	76 95       	lsr	r23
    1900:	67 95       	ror	r22
    1902:	57 95       	ror	r21
    1904:	47 95       	ror	r20
    1906:	ea 95       	dec	r30
    1908:	d1 f7       	brne	.-12     	; 0x18fe <put_fat+0x17a>
    190a:	f3 01       	movw	r30, r6
    190c:	84 a1       	ldd	r24, Z+36	; 0x24
    190e:	95 a1       	ldd	r25, Z+37	; 0x25
    1910:	a6 a1       	ldd	r26, Z+38	; 0x26
    1912:	b7 a1       	ldd	r27, Z+39	; 0x27
    1914:	48 0f       	add	r20, r24
    1916:	59 1f       	adc	r21, r25
    1918:	6a 1f       	adc	r22, r26
    191a:	7b 1f       	adc	r23, r27
    191c:	c3 01       	movw	r24, r6
    191e:	0e 94 2a 08 	call	0x1054	; 0x1054 <move_window>
    1922:	28 2f       	mov	r18, r24
			if (res != FR_OK) break;
    1924:	88 23       	and	r24, r24
    1926:	59 f5       	brne	.+86     	; 0x197e <put_fat+0x1fa>
			if (!FF_FS_EXFAT || fs->fs_type != FS_EXFAT) {
				val = (val & 0x0FFFFFFF) | (ld_32(fs->win + clst * 4 % SS(fs)) & 0xF0000000);
    1928:	8f ef       	ldi	r24, 0xFF	; 255
    192a:	9f ef       	ldi	r25, 0xFF	; 255
    192c:	af ef       	ldi	r26, 0xFF	; 255
    192e:	bf e0       	ldi	r27, 0x0F	; 15
    1930:	88 22       	and	r8, r24
    1932:	99 22       	and	r9, r25
    1934:	aa 22       	and	r10, r26
    1936:	bb 22       	and	r11, r27
    1938:	86 01       	movw	r16, r12
    193a:	00 0f       	add	r16, r16
    193c:	11 1f       	adc	r17, r17
    193e:	00 0f       	add	r16, r16
    1940:	11 1f       	adc	r17, r17
    1942:	11 70       	andi	r17, 0x01	; 1
    1944:	00 5d       	subi	r16, 0xD0	; 208
    1946:	1f 4f       	sbci	r17, 0xFF	; 255
    1948:	06 0d       	add	r16, r6
    194a:	17 1d       	adc	r17, r7
    194c:	c8 01       	movw	r24, r16
    194e:	29 83       	std	Y+1, r18	; 0x01
    1950:	0e 94 c5 06 	call	0xd8a	; 0xd8a <ld_32>
    1954:	ab 01       	movw	r20, r22
    1956:	bc 01       	movw	r22, r24
    1958:	40 70       	andi	r20, 0x00	; 0
    195a:	50 70       	andi	r21, 0x00	; 0
    195c:	60 70       	andi	r22, 0x00	; 0
    195e:	70 7f       	andi	r23, 0xF0	; 240
    1960:	48 29       	or	r20, r8
    1962:	59 29       	or	r21, r9
    1964:	6a 29       	or	r22, r10
    1966:	7b 29       	or	r23, r11
			}
			st_32(fs->win + clst * 4 % SS(fs), val);
    1968:	c8 01       	movw	r24, r16
    196a:	0e 94 f1 06 	call	0xde2	; 0xde2 <st_32>
			fs->wflag = 1;
    196e:	81 e0       	ldi	r24, 0x01	; 1
    1970:	d3 01       	movw	r26, r6
    1972:	14 96       	adiw	r26, 0x04	; 4
    1974:	8c 93       	st	X, r24
    1976:	14 97       	sbiw	r26, 0x04	; 4
			break;
    1978:	29 81       	ldd	r18, Y+1	; 0x01
    197a:	01 c0       	rjmp	.+2      	; 0x197e <put_fat+0x1fa>
	DWORD val		/* New value to be set to the entry */
)
{
	UINT bc;
	BYTE *p;
	FRESULT res = FR_INT_ERR;
    197c:	22 e0       	ldi	r18, 0x02	; 2
			fs->wflag = 1;
			break;
		}
	}
	return res;
}
    197e:	82 2f       	mov	r24, r18
    1980:	0f 90       	pop	r0
    1982:	cf 91       	pop	r28
    1984:	df 91       	pop	r29
    1986:	1f 91       	pop	r17
    1988:	0f 91       	pop	r16
    198a:	ff 90       	pop	r15
    198c:	ef 90       	pop	r14
    198e:	df 90       	pop	r13
    1990:	cf 90       	pop	r12
    1992:	bf 90       	pop	r11
    1994:	af 90       	pop	r10
    1996:	9f 90       	pop	r9
    1998:	8f 90       	pop	r8
    199a:	7f 90       	pop	r7
    199c:	6f 90       	pop	r6
    199e:	08 95       	ret

000019a0 <sync_fs>:
/*-----------------------------------------------------------------------*/

static FRESULT sync_fs (	/* Returns FR_OK or FR_DISK_ERR */
	FATFS* fs		/* Filesystem object */
)
{
    19a0:	0f 93       	push	r16
    19a2:	1f 93       	push	r17
    19a4:	cf 93       	push	r28
    19a6:	df 93       	push	r29
    19a8:	ec 01       	movw	r28, r24
	FRESULT res;


	res = sync_window(fs);
    19aa:	0e 94 78 07 	call	0xef0	; 0xef0 <sync_window>
    19ae:	98 2f       	mov	r25, r24
	if (res == FR_OK) {
    19b0:	88 23       	and	r24, r24
    19b2:	09 f0       	breq	.+2      	; 0x19b6 <sync_fs+0x16>
    19b4:	5b c0       	rjmp	.+182    	; 0x1a6c <sync_fs+0xcc>
		if (fs->fsi_flag == 1) {	/* Allocation changed? */
    19b6:	8d 81       	ldd	r24, Y+5	; 0x05
    19b8:	81 30       	cpi	r24, 0x01	; 1
    19ba:	09 f0       	breq	.+2      	; 0x19be <sync_fs+0x1e>
    19bc:	4d c0       	rjmp	.+154    	; 0x1a58 <sync_fs+0xb8>
			fs->fsi_flag = 0;
    19be:	1d 82       	std	Y+5, r1	; 0x05
			if (fs->fs_type == FS_FAT32) {	/* FAT32: Update FSInfo sector */
    19c0:	88 81       	ld	r24, Y
    19c2:	83 30       	cpi	r24, 0x03	; 3
    19c4:	09 f0       	breq	.+2      	; 0x19c8 <sync_fs+0x28>
    19c6:	48 c0       	rjmp	.+144    	; 0x1a58 <sync_fs+0xb8>
				/* Create FSInfo structure */
				memset(fs->win, 0, sizeof fs->win);
    19c8:	8e 01       	movw	r16, r28
    19ca:	00 5d       	subi	r16, 0xD0	; 208
    19cc:	1f 4f       	sbci	r17, 0xFF	; 255
    19ce:	80 e0       	ldi	r24, 0x00	; 0
    19d0:	92 e0       	ldi	r25, 0x02	; 2
    19d2:	d8 01       	movw	r26, r16
    19d4:	9c 01       	movw	r18, r24
    19d6:	1d 92       	st	X+, r1
    19d8:	21 50       	subi	r18, 0x01	; 1
    19da:	30 40       	sbci	r19, 0x00	; 0
    19dc:	e1 f7       	brne	.-8      	; 0x19d6 <sync_fs+0x36>
				st_32(fs->win + FSI_LeadSig, 0x41615252);		/* Leading signature */
    19de:	c8 01       	movw	r24, r16
    19e0:	42 e5       	ldi	r20, 0x52	; 82
    19e2:	52 e5       	ldi	r21, 0x52	; 82
    19e4:	61 e6       	ldi	r22, 0x61	; 97
    19e6:	71 e4       	ldi	r23, 0x41	; 65
    19e8:	0e 94 f1 06 	call	0xde2	; 0xde2 <st_32>
				st_32(fs->win + FSI_StrucSig, 0x61417272);		/* Structure signature */
    19ec:	ce 01       	movw	r24, r28
    19ee:	8c 5e       	subi	r24, 0xEC	; 236
    19f0:	9d 4f       	sbci	r25, 0xFD	; 253
    19f2:	42 e7       	ldi	r20, 0x72	; 114
    19f4:	52 e7       	ldi	r21, 0x72	; 114
    19f6:	61 e4       	ldi	r22, 0x41	; 65
    19f8:	71 e6       	ldi	r23, 0x61	; 97
    19fa:	0e 94 f1 06 	call	0xde2	; 0xde2 <st_32>
				st_32(fs->win + FSI_Free_Count, fs->free_clst);	/* Number of free clusters */
    19fe:	48 89       	ldd	r20, Y+16	; 0x10
    1a00:	59 89       	ldd	r21, Y+17	; 0x11
    1a02:	6a 89       	ldd	r22, Y+18	; 0x12
    1a04:	7b 89       	ldd	r23, Y+19	; 0x13
    1a06:	ce 01       	movw	r24, r28
    1a08:	88 5e       	subi	r24, 0xE8	; 232
    1a0a:	9d 4f       	sbci	r25, 0xFD	; 253
    1a0c:	0e 94 f1 06 	call	0xde2	; 0xde2 <st_32>
				st_32(fs->win + FSI_Nxt_Free, fs->last_clst);	/* Last allocated culuster */
    1a10:	4c 85       	ldd	r20, Y+12	; 0x0c
    1a12:	5d 85       	ldd	r21, Y+13	; 0x0d
    1a14:	6e 85       	ldd	r22, Y+14	; 0x0e
    1a16:	7f 85       	ldd	r23, Y+15	; 0x0f
    1a18:	ce 01       	movw	r24, r28
    1a1a:	84 5e       	subi	r24, 0xE4	; 228
    1a1c:	9d 4f       	sbci	r25, 0xFD	; 253
    1a1e:	0e 94 f1 06 	call	0xde2	; 0xde2 <st_32>
				st_32(fs->win + FSI_TrailSig, 0xAA550000);		/* Trailing signature */
    1a22:	ce 01       	movw	r24, r28
    1a24:	84 5d       	subi	r24, 0xD4	; 212
    1a26:	9d 4f       	sbci	r25, 0xFD	; 253
    1a28:	40 e0       	ldi	r20, 0x00	; 0
    1a2a:	50 e0       	ldi	r21, 0x00	; 0
    1a2c:	65 e5       	ldi	r22, 0x55	; 85
    1a2e:	7a ea       	ldi	r23, 0xAA	; 170
    1a30:	0e 94 f1 06 	call	0xde2	; 0xde2 <st_32>
				disk_write(fs->pdrv, fs->win, fs->winsect = fs->volbase + 1, 1);	/* Write it into the FSInfo sector (Next to VBR) */
    1a34:	89 81       	ldd	r24, Y+1	; 0x01
    1a36:	28 a1       	ldd	r18, Y+32	; 0x20
    1a38:	39 a1       	ldd	r19, Y+33	; 0x21
    1a3a:	4a a1       	ldd	r20, Y+34	; 0x22
    1a3c:	5b a1       	ldd	r21, Y+35	; 0x23
    1a3e:	2f 5f       	subi	r18, 0xFF	; 255
    1a40:	3f 4f       	sbci	r19, 0xFF	; 255
    1a42:	4f 4f       	sbci	r20, 0xFF	; 255
    1a44:	5f 4f       	sbci	r21, 0xFF	; 255
    1a46:	2c 8f       	std	Y+28, r18	; 0x1c
    1a48:	3d 8f       	std	Y+29, r19	; 0x1d
    1a4a:	4e 8f       	std	Y+30, r20	; 0x1e
    1a4c:	5f 8f       	std	Y+31, r21	; 0x1f
    1a4e:	b8 01       	movw	r22, r16
    1a50:	01 e0       	ldi	r16, 0x01	; 1
    1a52:	10 e0       	ldi	r17, 0x00	; 0
    1a54:	0e 94 4d 06 	call	0xc9a	; 0xc9a <disk_write>
				}
			}
#endif
		}
		/* Make sure that no pending write process in the lower layer */
		if (disk_ioctl(fs->pdrv, CTRL_SYNC, 0) != RES_OK) res = FR_DISK_ERR;
    1a58:	89 81       	ldd	r24, Y+1	; 0x01
    1a5a:	60 e0       	ldi	r22, 0x00	; 0
    1a5c:	40 e0       	ldi	r20, 0x00	; 0
    1a5e:	50 e0       	ldi	r21, 0x00	; 0
    1a60:	0e 94 93 06 	call	0xd26	; 0xd26 <disk_ioctl>
    1a64:	91 e0       	ldi	r25, 0x01	; 1
    1a66:	88 23       	and	r24, r24
    1a68:	09 f4       	brne	.+2      	; 0x1a6c <sync_fs+0xcc>
    1a6a:	90 e0       	ldi	r25, 0x00	; 0
	}

	return res;
}
    1a6c:	89 2f       	mov	r24, r25
    1a6e:	df 91       	pop	r29
    1a70:	cf 91       	pop	r28
    1a72:	1f 91       	pop	r17
    1a74:	0f 91       	pop	r16
    1a76:	08 95       	ret

00001a78 <ld_clust.clone.0>:

/*-----------------------------------------------------------------------*/
/* FAT: Directory handling - Load/Store start cluster number             */
/*-----------------------------------------------------------------------*/

static DWORD ld_clust (	/* Returns the top cluster value of the SFN entry */
    1a78:	df 92       	push	r13
    1a7a:	ef 92       	push	r14
    1a7c:	ff 92       	push	r15
    1a7e:	0f 93       	push	r16
    1a80:	1f 93       	push	r17
    1a82:	cf 93       	push	r28
    1a84:	df 93       	push	r29
    1a86:	d8 2e       	mov	r13, r24
    1a88:	eb 01       	movw	r28, r22
	const BYTE* dir		/* Pointer to the key entry */
)
{
	DWORD cl;

	cl = ld_16(dir + DIR_FstClusLO);
    1a8a:	cb 01       	movw	r24, r22
    1a8c:	4a 96       	adiw	r24, 0x1a	; 26
    1a8e:	0e 94 bc 06 	call	0xd78	; 0xd78 <ld_16>
    1a92:	7c 01       	movw	r14, r24
    1a94:	00 e0       	ldi	r16, 0x00	; 0
    1a96:	10 e0       	ldi	r17, 0x00	; 0
	if (fs->fs_type == FS_FAT32) {
    1a98:	8d 2d       	mov	r24, r13
    1a9a:	83 30       	cpi	r24, 0x03	; 3
    1a9c:	69 f4       	brne	.+26     	; 0x1ab8 <ld_clust.clone.0+0x40>
		cl |= (DWORD)ld_16(dir + DIR_FstClusHI) << 16;
    1a9e:	ce 01       	movw	r24, r28
    1aa0:	44 96       	adiw	r24, 0x14	; 20
    1aa2:	0e 94 bc 06 	call	0xd78	; 0xd78 <ld_16>
    1aa6:	a0 e0       	ldi	r26, 0x00	; 0
    1aa8:	b0 e0       	ldi	r27, 0x00	; 0
    1aaa:	dc 01       	movw	r26, r24
    1aac:	99 27       	eor	r25, r25
    1aae:	88 27       	eor	r24, r24
    1ab0:	e8 2a       	or	r14, r24
    1ab2:	f9 2a       	or	r15, r25
    1ab4:	0a 2b       	or	r16, r26
    1ab6:	1b 2b       	or	r17, r27
	}

	return cl;
}
    1ab8:	b7 01       	movw	r22, r14
    1aba:	c8 01       	movw	r24, r16
    1abc:	df 91       	pop	r29
    1abe:	cf 91       	pop	r28
    1ac0:	1f 91       	pop	r17
    1ac2:	0f 91       	pop	r16
    1ac4:	ff 90       	pop	r15
    1ac6:	ef 90       	pop	r14
    1ac8:	df 90       	pop	r13
    1aca:	08 95       	ret

00001acc <st_clust.clone.1>:


#if !FF_FS_READONLY
static void st_clust (
    1acc:	fb 01       	movw	r30, r22
#endif

#if !FF_FS_READONLY
static void st_16 (BYTE* ptr, WORD val)	/* Store a 2-byte word in little-endian */
{
	*ptr++ = (BYTE)val; val >>= 8;
    1ace:	22 8f       	std	Z+26, r18	; 0x1a
	*ptr++ = (BYTE)val;
    1ad0:	33 8f       	std	Z+27, r19	; 0x1b
	BYTE* dir,	/* Pointer to the key entry */
	DWORD cl	/* Value to be set */
)
{
	st_16(dir + DIR_FstClusLO, (WORD)cl);
	if (fs->fs_type == FS_FAT32) {
    1ad2:	dc 01       	movw	r26, r24
    1ad4:	8c 91       	ld	r24, X
    1ad6:	83 30       	cpi	r24, 0x03	; 3
    1ad8:	29 f4       	brne	.+10     	; 0x1ae4 <st_clust.clone.1+0x18>
		st_16(dir + DIR_FstClusHI, (WORD)(cl >> 16));
    1ada:	9a 01       	movw	r18, r20
    1adc:	44 27       	eor	r20, r20
    1ade:	55 27       	eor	r21, r21
#endif

#if !FF_FS_READONLY
static void st_16 (BYTE* ptr, WORD val)	/* Store a 2-byte word in little-endian */
{
	*ptr++ = (BYTE)val; val >>= 8;
    1ae0:	24 8b       	std	Z+20, r18	; 0x14
	*ptr++ = (BYTE)val;
    1ae2:	35 8b       	std	Z+21, r19	; 0x15
    1ae4:	08 95       	ret

00001ae6 <get_fat.clone.2>:

/*-----------------------------------------------------------------------*/
/* FAT access - Read value of an FAT entry                               */
/*-----------------------------------------------------------------------*/

static DWORD get_fat (		/* 0xFFFFFFFF:Disk error, 1:Internal error, 2..0x7FFFFFFF:Cluster status */
    1ae6:	bf 92       	push	r11
    1ae8:	cf 92       	push	r12
    1aea:	df 92       	push	r13
    1aec:	ef 92       	push	r14
    1aee:	ff 92       	push	r15
    1af0:	0f 93       	push	r16
    1af2:	1f 93       	push	r17
    1af4:	cf 93       	push	r28
    1af6:	df 93       	push	r29
    1af8:	ec 01       	movw	r28, r24
    1afa:	6a 01       	movw	r12, r20
    1afc:	7b 01       	movw	r14, r22
	UINT wc, bc;
	DWORD val;
	FATFS *fs = obj->fs;


	if (clst < 2 || clst >= fs->n_fatent) {	/* Check if in valid range */
    1afe:	42 30       	cpi	r20, 0x02	; 2
    1b00:	51 05       	cpc	r21, r1
    1b02:	61 05       	cpc	r22, r1
    1b04:	71 05       	cpc	r23, r1
    1b06:	08 f4       	brcc	.+2      	; 0x1b0a <get_fat.clone.2+0x24>
    1b08:	a5 c0       	rjmp	.+330    	; 0x1c54 <get_fat.clone.2+0x16e>
    1b0a:	8c 89       	ldd	r24, Y+20	; 0x14
    1b0c:	9d 89       	ldd	r25, Y+21	; 0x15
    1b0e:	ae 89       	ldd	r26, Y+22	; 0x16
    1b10:	bf 89       	ldd	r27, Y+23	; 0x17
    1b12:	48 17       	cp	r20, r24
    1b14:	59 07       	cpc	r21, r25
    1b16:	6a 07       	cpc	r22, r26
    1b18:	7b 07       	cpc	r23, r27
    1b1a:	08 f0       	brcs	.+2      	; 0x1b1e <get_fat.clone.2+0x38>
    1b1c:	9b c0       	rjmp	.+310    	; 0x1c54 <get_fat.clone.2+0x16e>
		val = 1;	/* Internal error */

	} else {
		val = 0xFFFFFFFF;	/* Default value falls on disk error */

		switch (fs->fs_type) {
    1b1e:	88 81       	ld	r24, Y
    1b20:	82 30       	cpi	r24, 0x02	; 2
    1b22:	09 f4       	brne	.+2      	; 0x1b26 <get_fat.clone.2+0x40>
    1b24:	56 c0       	rjmp	.+172    	; 0x1bd2 <get_fat.clone.2+0xec>
    1b26:	83 30       	cpi	r24, 0x03	; 3
    1b28:	09 f4       	brne	.+2      	; 0x1b2c <get_fat.clone.2+0x46>
    1b2a:	71 c0       	rjmp	.+226    	; 0x1c0e <get_fat.clone.2+0x128>
    1b2c:	81 30       	cpi	r24, 0x01	; 1
    1b2e:	09 f0       	breq	.+2      	; 0x1b32 <get_fat.clone.2+0x4c>
    1b30:	91 c0       	rjmp	.+290    	; 0x1c54 <get_fat.clone.2+0x16e>
		case FS_FAT12 :
			bc = (UINT)clst; bc += bc / 2;
    1b32:	8a 01       	movw	r16, r20
    1b34:	16 95       	lsr	r17
    1b36:	07 95       	ror	r16
    1b38:	04 0f       	add	r16, r20
    1b3a:	15 1f       	adc	r17, r21
			if (move_window(fs, fs->fatbase + (bc / SS(fs))) != FR_OK) break;
    1b3c:	a8 01       	movw	r20, r16
    1b3e:	45 2f       	mov	r20, r21
    1b40:	55 27       	eor	r21, r21
    1b42:	46 95       	lsr	r20
    1b44:	60 e0       	ldi	r22, 0x00	; 0
    1b46:	70 e0       	ldi	r23, 0x00	; 0
    1b48:	8c a1       	ldd	r24, Y+36	; 0x24
    1b4a:	9d a1       	ldd	r25, Y+37	; 0x25
    1b4c:	ae a1       	ldd	r26, Y+38	; 0x26
    1b4e:	bf a1       	ldd	r27, Y+39	; 0x27
    1b50:	48 0f       	add	r20, r24
    1b52:	59 1f       	adc	r21, r25
    1b54:	6a 1f       	adc	r22, r26
    1b56:	7b 1f       	adc	r23, r27
    1b58:	ce 01       	movw	r24, r28
    1b5a:	0e 94 2a 08 	call	0x1054	; 0x1054 <move_window>
    1b5e:	88 23       	and	r24, r24
    1b60:	09 f0       	breq	.+2      	; 0x1b64 <get_fat.clone.2+0x7e>
    1b62:	7d c0       	rjmp	.+250    	; 0x1c5e <get_fat.clone.2+0x178>
			wc = fs->win[bc++ % SS(fs)];		/* Get 1st byte of the entry */
    1b64:	f8 01       	movw	r30, r16
    1b66:	f1 70       	andi	r31, 0x01	; 1
    1b68:	ec 0f       	add	r30, r28
    1b6a:	fd 1f       	adc	r31, r29
    1b6c:	b0 a8       	ldd	r11, Z+48	; 0x30
    1b6e:	0f 5f       	subi	r16, 0xFF	; 255
    1b70:	1f 4f       	sbci	r17, 0xFF	; 255
			if (move_window(fs, fs->fatbase + (bc / SS(fs))) != FR_OK) break;
    1b72:	a8 01       	movw	r20, r16
    1b74:	45 2f       	mov	r20, r21
    1b76:	55 27       	eor	r21, r21
    1b78:	46 95       	lsr	r20
    1b7a:	60 e0       	ldi	r22, 0x00	; 0
    1b7c:	70 e0       	ldi	r23, 0x00	; 0
    1b7e:	8c a1       	ldd	r24, Y+36	; 0x24
    1b80:	9d a1       	ldd	r25, Y+37	; 0x25
    1b82:	ae a1       	ldd	r26, Y+38	; 0x26
    1b84:	bf a1       	ldd	r27, Y+39	; 0x27
    1b86:	48 0f       	add	r20, r24
    1b88:	59 1f       	adc	r21, r25
    1b8a:	6a 1f       	adc	r22, r26
    1b8c:	7b 1f       	adc	r23, r27
    1b8e:	ce 01       	movw	r24, r28
    1b90:	0e 94 2a 08 	call	0x1054	; 0x1054 <move_window>
    1b94:	88 23       	and	r24, r24
    1b96:	09 f0       	breq	.+2      	; 0x1b9a <get_fat.clone.2+0xb4>
    1b98:	62 c0       	rjmp	.+196    	; 0x1c5e <get_fat.clone.2+0x178>

		switch (fs->fs_type) {
		case FS_FAT12 :
			bc = (UINT)clst; bc += bc / 2;
			if (move_window(fs, fs->fatbase + (bc / SS(fs))) != FR_OK) break;
			wc = fs->win[bc++ % SS(fs)];		/* Get 1st byte of the entry */
    1b9a:	2b 2d       	mov	r18, r11
    1b9c:	30 e0       	ldi	r19, 0x00	; 0
			if (move_window(fs, fs->fatbase + (bc / SS(fs))) != FR_OK) break;
			wc |= fs->win[bc % SS(fs)] << 8;	/* Merge 2nd byte of the entry */
    1b9e:	11 70       	andi	r17, 0x01	; 1
    1ba0:	0c 0f       	add	r16, r28
    1ba2:	1d 1f       	adc	r17, r29
    1ba4:	f8 01       	movw	r30, r16
    1ba6:	90 a9       	ldd	r25, Z+48	; 0x30
    1ba8:	80 e0       	ldi	r24, 0x00	; 0
    1baa:	28 2b       	or	r18, r24
    1bac:	39 2b       	or	r19, r25
			val = (clst & 1) ? (wc >> 4) : (wc & 0xFFF);	/* Adjust bit position */
    1bae:	f1 e0       	ldi	r31, 0x01	; 1
    1bb0:	cf 22       	and	r12, r31
    1bb2:	dd 24       	eor	r13, r13
    1bb4:	c1 14       	cp	r12, r1
    1bb6:	d1 04       	cpc	r13, r1
    1bb8:	31 f0       	breq	.+12     	; 0x1bc6 <get_fat.clone.2+0xe0>
    1bba:	b4 e0       	ldi	r27, 0x04	; 4
    1bbc:	36 95       	lsr	r19
    1bbe:	27 95       	ror	r18
    1bc0:	ba 95       	dec	r27
    1bc2:	e1 f7       	brne	.-8      	; 0x1bbc <get_fat.clone.2+0xd6>
    1bc4:	21 c0       	rjmp	.+66     	; 0x1c08 <get_fat.clone.2+0x122>
    1bc6:	40 e0       	ldi	r20, 0x00	; 0
    1bc8:	50 e0       	ldi	r21, 0x00	; 0
    1bca:	3f 70       	andi	r19, 0x0F	; 15
    1bcc:	40 70       	andi	r20, 0x00	; 0
    1bce:	50 70       	andi	r21, 0x00	; 0
    1bd0:	49 c0       	rjmp	.+146    	; 0x1c64 <get_fat.clone.2+0x17e>
			break;

		case FS_FAT16 :
			if (move_window(fs, fs->fatbase + (clst / (SS(fs) / 2))) != FR_OK) break;
    1bd2:	45 2f       	mov	r20, r21
    1bd4:	56 2f       	mov	r21, r22
    1bd6:	67 2f       	mov	r22, r23
    1bd8:	77 27       	eor	r23, r23
    1bda:	8c a1       	ldd	r24, Y+36	; 0x24
    1bdc:	9d a1       	ldd	r25, Y+37	; 0x25
    1bde:	ae a1       	ldd	r26, Y+38	; 0x26
    1be0:	bf a1       	ldd	r27, Y+39	; 0x27
    1be2:	48 0f       	add	r20, r24
    1be4:	59 1f       	adc	r21, r25
    1be6:	6a 1f       	adc	r22, r26
    1be8:	7b 1f       	adc	r23, r27
    1bea:	ce 01       	movw	r24, r28
    1bec:	0e 94 2a 08 	call	0x1054	; 0x1054 <move_window>
    1bf0:	88 23       	and	r24, r24
    1bf2:	a9 f5       	brne	.+106    	; 0x1c5e <get_fat.clone.2+0x178>
			val = ld_16(fs->win + clst * 2 % SS(fs));		/* Simple WORD array */
    1bf4:	c6 01       	movw	r24, r12
    1bf6:	88 0f       	add	r24, r24
    1bf8:	99 1f       	adc	r25, r25
    1bfa:	91 70       	andi	r25, 0x01	; 1
    1bfc:	c0 96       	adiw	r24, 0x30	; 48
    1bfe:	8c 0f       	add	r24, r28
    1c00:	9d 1f       	adc	r25, r29
    1c02:	0e 94 bc 06 	call	0xd78	; 0xd78 <ld_16>
    1c06:	9c 01       	movw	r18, r24
    1c08:	40 e0       	ldi	r20, 0x00	; 0
    1c0a:	50 e0       	ldi	r21, 0x00	; 0
    1c0c:	2b c0       	rjmp	.+86     	; 0x1c64 <get_fat.clone.2+0x17e>
			break;

		case FS_FAT32 :
			if (move_window(fs, fs->fatbase + (clst / (SS(fs) / 4))) != FR_OK) break;
    1c0e:	e7 e0       	ldi	r30, 0x07	; 7
    1c10:	76 95       	lsr	r23
    1c12:	67 95       	ror	r22
    1c14:	57 95       	ror	r21
    1c16:	47 95       	ror	r20
    1c18:	ea 95       	dec	r30
    1c1a:	d1 f7       	brne	.-12     	; 0x1c10 <get_fat.clone.2+0x12a>
    1c1c:	8c a1       	ldd	r24, Y+36	; 0x24
    1c1e:	9d a1       	ldd	r25, Y+37	; 0x25
    1c20:	ae a1       	ldd	r26, Y+38	; 0x26
    1c22:	bf a1       	ldd	r27, Y+39	; 0x27
    1c24:	48 0f       	add	r20, r24
    1c26:	59 1f       	adc	r21, r25
    1c28:	6a 1f       	adc	r22, r26
    1c2a:	7b 1f       	adc	r23, r27
    1c2c:	ce 01       	movw	r24, r28
    1c2e:	0e 94 2a 08 	call	0x1054	; 0x1054 <move_window>
    1c32:	88 23       	and	r24, r24
    1c34:	a1 f4       	brne	.+40     	; 0x1c5e <get_fat.clone.2+0x178>
			val = ld_32(fs->win + clst * 4 % SS(fs)) & 0x0FFFFFFF;	/* Simple DWORD array but mask out upper 4 bits */
    1c36:	c6 01       	movw	r24, r12
    1c38:	88 0f       	add	r24, r24
    1c3a:	99 1f       	adc	r25, r25
    1c3c:	88 0f       	add	r24, r24
    1c3e:	99 1f       	adc	r25, r25
    1c40:	91 70       	andi	r25, 0x01	; 1
    1c42:	c0 96       	adiw	r24, 0x30	; 48
    1c44:	8c 0f       	add	r24, r28
    1c46:	9d 1f       	adc	r25, r29
    1c48:	0e 94 c5 06 	call	0xd8a	; 0xd8a <ld_32>
    1c4c:	9b 01       	movw	r18, r22
    1c4e:	ac 01       	movw	r20, r24
    1c50:	5f 70       	andi	r21, 0x0F	; 15
    1c52:	08 c0       	rjmp	.+16     	; 0x1c64 <get_fat.clone.2+0x17e>
			}
			val = 1;	/* Internal error */
			break;
#endif
		default:
			val = 1;	/* Internal error */
    1c54:	21 e0       	ldi	r18, 0x01	; 1
    1c56:	30 e0       	ldi	r19, 0x00	; 0
    1c58:	40 e0       	ldi	r20, 0x00	; 0
    1c5a:	50 e0       	ldi	r21, 0x00	; 0
    1c5c:	03 c0       	rjmp	.+6      	; 0x1c64 <get_fat.clone.2+0x17e>

	if (clst < 2 || clst >= fs->n_fatent) {	/* Check if in valid range */
		val = 1;	/* Internal error */

	} else {
		val = 0xFFFFFFFF;	/* Default value falls on disk error */
    1c5e:	2f ef       	ldi	r18, 0xFF	; 255
    1c60:	3f ef       	ldi	r19, 0xFF	; 255
    1c62:	a9 01       	movw	r20, r18
			val = 1;	/* Internal error */
		}
	}

	return val;
}
    1c64:	b9 01       	movw	r22, r18
    1c66:	ca 01       	movw	r24, r20
    1c68:	df 91       	pop	r29
    1c6a:	cf 91       	pop	r28
    1c6c:	1f 91       	pop	r17
    1c6e:	0f 91       	pop	r16
    1c70:	ff 90       	pop	r15
    1c72:	ef 90       	pop	r14
    1c74:	df 90       	pop	r13
    1c76:	cf 90       	pop	r12
    1c78:	bf 90       	pop	r11
    1c7a:	08 95       	ret

00001c7c <create_chain.clone.3>:

/*-----------------------------------------------------------------------*/
/* FAT handling - Stretch a chain or Create a new chain                  */
/*-----------------------------------------------------------------------*/

static DWORD create_chain (	/* 0:No free cluster, 1:Internal error, 0xFFFFFFFF:Disk error, >=2:New cluster# */
    1c7c:	2f 92       	push	r2
    1c7e:	3f 92       	push	r3
    1c80:	4f 92       	push	r4
    1c82:	5f 92       	push	r5
    1c84:	6f 92       	push	r6
    1c86:	7f 92       	push	r7
    1c88:	8f 92       	push	r8
    1c8a:	9f 92       	push	r9
    1c8c:	af 92       	push	r10
    1c8e:	bf 92       	push	r11
    1c90:	cf 92       	push	r12
    1c92:	df 92       	push	r13
    1c94:	ef 92       	push	r14
    1c96:	ff 92       	push	r15
    1c98:	0f 93       	push	r16
    1c9a:	1f 93       	push	r17
    1c9c:	df 93       	push	r29
    1c9e:	cf 93       	push	r28
    1ca0:	00 d0       	rcall	.+0      	; 0x1ca2 <create_chain.clone.3+0x26>
    1ca2:	00 d0       	rcall	.+0      	; 0x1ca4 <create_chain.clone.3+0x28>
    1ca4:	cd b7       	in	r28, 0x3d	; 61
    1ca6:	de b7       	in	r29, 0x3e	; 62
    1ca8:	8c 01       	movw	r16, r24
    1caa:	49 83       	std	Y+1, r20	; 0x01
    1cac:	5a 83       	std	Y+2, r21	; 0x02
    1cae:	6b 83       	std	Y+3, r22	; 0x03
    1cb0:	7c 83       	std	Y+4, r23	; 0x04
	DWORD clst			/* Cluster# to stretch, 0:Create a new chain */
)
{
	DWORD cs, ncl, scl;
	FRESULT res;
	FATFS *fs = obj->fs;
    1cb2:	dc 01       	movw	r26, r24
    1cb4:	2d 90       	ld	r2, X+
    1cb6:	3c 90       	ld	r3, X
    1cb8:	11 97       	sbiw	r26, 0x01	; 1


	if (clst == 0) {	/* Create a new chain */
    1cba:	41 15       	cp	r20, r1
    1cbc:	51 05       	cpc	r21, r1
    1cbe:	61 05       	cpc	r22, r1
    1cc0:	71 05       	cpc	r23, r1
    1cc2:	a1 f4       	brne	.+40     	; 0x1cec <create_chain.clone.3+0x70>
		scl = fs->last_clst;				/* Suggested cluster to start to find */
    1cc4:	f1 01       	movw	r30, r2
    1cc6:	84 84       	ldd	r8, Z+12	; 0x0c
    1cc8:	95 84       	ldd	r9, Z+13	; 0x0d
    1cca:	a6 84       	ldd	r10, Z+14	; 0x0e
    1ccc:	b7 84       	ldd	r11, Z+15	; 0x0f
		if (scl == 0 || scl >= fs->n_fatent) scl = 1;
    1cce:	81 14       	cp	r8, r1
    1cd0:	91 04       	cpc	r9, r1
    1cd2:	a1 04       	cpc	r10, r1
    1cd4:	b1 04       	cpc	r11, r1
    1cd6:	99 f1       	breq	.+102    	; 0x1d3e <create_chain.clone.3+0xc2>
    1cd8:	84 89       	ldd	r24, Z+20	; 0x14
    1cda:	95 89       	ldd	r25, Z+21	; 0x15
    1cdc:	a6 89       	ldd	r26, Z+22	; 0x16
    1cde:	b7 89       	ldd	r27, Z+23	; 0x17
    1ce0:	88 16       	cp	r8, r24
    1ce2:	99 06       	cpc	r9, r25
    1ce4:	aa 06       	cpc	r10, r26
    1ce6:	bb 06       	cpc	r11, r27
    1ce8:	50 f5       	brcc	.+84     	; 0x1d3e <create_chain.clone.3+0xc2>
    1cea:	2e c0       	rjmp	.+92     	; 0x1d48 <create_chain.clone.3+0xcc>
	}
	else {				/* Stretch a chain */
		cs = get_fat(obj, clst);			/* Check the cluster status */
    1cec:	c1 01       	movw	r24, r2
    1cee:	49 81       	ldd	r20, Y+1	; 0x01
    1cf0:	5a 81       	ldd	r21, Y+2	; 0x02
    1cf2:	6b 81       	ldd	r22, Y+3	; 0x03
    1cf4:	7c 81       	ldd	r23, Y+4	; 0x04
    1cf6:	0e 94 73 0d 	call	0x1ae6	; 0x1ae6 <get_fat.clone.2>
    1cfa:	6b 01       	movw	r12, r22
    1cfc:	7c 01       	movw	r14, r24
		if (cs < 2) return 1;				/* Test for insanity */
    1cfe:	62 30       	cpi	r22, 0x02	; 2
    1d00:	71 05       	cpc	r23, r1
    1d02:	81 05       	cpc	r24, r1
    1d04:	91 05       	cpc	r25, r1
    1d06:	08 f4       	brcc	.+2      	; 0x1d0a <create_chain.clone.3+0x8e>
    1d08:	1c c1       	rjmp	.+568    	; 0x1f42 <create_chain.clone.3+0x2c6>
		if (cs == 0xFFFFFFFF) return cs;	/* Test for disk error */
    1d0a:	8f ef       	ldi	r24, 0xFF	; 255
    1d0c:	c8 16       	cp	r12, r24
    1d0e:	8f ef       	ldi	r24, 0xFF	; 255
    1d10:	d8 06       	cpc	r13, r24
    1d12:	8f ef       	ldi	r24, 0xFF	; 255
    1d14:	e8 06       	cpc	r14, r24
    1d16:	8f ef       	ldi	r24, 0xFF	; 255
    1d18:	f8 06       	cpc	r15, r24
    1d1a:	09 f4       	brne	.+2      	; 0x1d1e <create_chain.clone.3+0xa2>
    1d1c:	17 c1       	rjmp	.+558    	; 0x1f4c <create_chain.clone.3+0x2d0>
		if (cs < fs->n_fatent) return cs;	/* It is already followed by next cluster */
    1d1e:	f1 01       	movw	r30, r2
    1d20:	84 89       	ldd	r24, Z+20	; 0x14
    1d22:	95 89       	ldd	r25, Z+21	; 0x15
    1d24:	a6 89       	ldd	r26, Z+22	; 0x16
    1d26:	b7 89       	ldd	r27, Z+23	; 0x17
    1d28:	c8 16       	cp	r12, r24
    1d2a:	d9 06       	cpc	r13, r25
    1d2c:	ea 06       	cpc	r14, r26
    1d2e:	fb 06       	cpc	r15, r27
    1d30:	08 f4       	brcc	.+2      	; 0x1d34 <create_chain.clone.3+0xb8>
    1d32:	0c c1       	rjmp	.+536    	; 0x1f4c <create_chain.clone.3+0x2d0>
    1d34:	89 80       	ldd	r8, Y+1	; 0x01
    1d36:	9a 80       	ldd	r9, Y+2	; 0x02
    1d38:	ab 80       	ldd	r10, Y+3	; 0x03
    1d3a:	bc 80       	ldd	r11, Y+4	; 0x04
    1d3c:	05 c0       	rjmp	.+10     	; 0x1d48 <create_chain.clone.3+0xcc>
	FATFS *fs = obj->fs;


	if (clst == 0) {	/* Create a new chain */
		scl = fs->last_clst;				/* Suggested cluster to start to find */
		if (scl == 0 || scl >= fs->n_fatent) scl = 1;
    1d3e:	61 e0       	ldi	r22, 0x01	; 1
    1d40:	86 2e       	mov	r8, r22
    1d42:	91 2c       	mov	r9, r1
    1d44:	a1 2c       	mov	r10, r1
    1d46:	b1 2c       	mov	r11, r1
		if (cs < 2) return 1;				/* Test for insanity */
		if (cs == 0xFFFFFFFF) return cs;	/* Test for disk error */
		if (cs < fs->n_fatent) return cs;	/* It is already followed by next cluster */
		scl = clst;							/* Cluster to start to find */
	}
	if (fs->free_clst == 0) return 0;		/* No free cluster */
    1d48:	f1 01       	movw	r30, r2
    1d4a:	80 89       	ldd	r24, Z+16	; 0x10
    1d4c:	91 89       	ldd	r25, Z+17	; 0x11
    1d4e:	a2 89       	ldd	r26, Z+18	; 0x12
    1d50:	b3 89       	ldd	r27, Z+19	; 0x13
    1d52:	00 97       	sbiw	r24, 0x00	; 0
    1d54:	a1 05       	cpc	r26, r1
    1d56:	b1 05       	cpc	r27, r1
    1d58:	09 f4       	brne	.+2      	; 0x1d5c <create_chain.clone.3+0xe0>
    1d5a:	ef c0       	rjmp	.+478    	; 0x1f3a <create_chain.clone.3+0x2be>
		}
	} else
#endif
	{	/* On the FAT/FAT32 volume */
		ncl = 0;
		if (scl == clst) {						/* Stretching an existing chain? */
    1d5c:	89 81       	ldd	r24, Y+1	; 0x01
    1d5e:	9a 81       	ldd	r25, Y+2	; 0x02
    1d60:	ab 81       	ldd	r26, Y+3	; 0x03
    1d62:	bc 81       	ldd	r27, Y+4	; 0x04
    1d64:	88 16       	cp	r8, r24
    1d66:	99 06       	cpc	r9, r25
    1d68:	aa 06       	cpc	r10, r26
    1d6a:	bb 06       	cpc	r11, r27
    1d6c:	09 f0       	breq	.+2      	; 0x1d70 <create_chain.clone.3+0xf4>
    1d6e:	51 c0       	rjmp	.+162    	; 0x1e12 <create_chain.clone.3+0x196>
			ncl = scl + 1;						/* Test if next cluster is free */
    1d70:	24 01       	movw	r4, r8
    1d72:	35 01       	movw	r6, r10
    1d74:	08 94       	sec
    1d76:	41 1c       	adc	r4, r1
    1d78:	51 1c       	adc	r5, r1
    1d7a:	61 1c       	adc	r6, r1
    1d7c:	71 1c       	adc	r7, r1
			if (ncl >= fs->n_fatent) ncl = 2;
    1d7e:	84 89       	ldd	r24, Z+20	; 0x14
    1d80:	95 89       	ldd	r25, Z+21	; 0x15
    1d82:	a6 89       	ldd	r26, Z+22	; 0x16
    1d84:	b7 89       	ldd	r27, Z+23	; 0x17
    1d86:	48 16       	cp	r4, r24
    1d88:	59 06       	cpc	r5, r25
    1d8a:	6a 06       	cpc	r6, r26
    1d8c:	7b 06       	cpc	r7, r27
    1d8e:	28 f0       	brcs	.+10     	; 0x1d9a <create_chain.clone.3+0x11e>
    1d90:	52 e0       	ldi	r21, 0x02	; 2
    1d92:	45 2e       	mov	r4, r21
    1d94:	51 2c       	mov	r5, r1
    1d96:	61 2c       	mov	r6, r1
    1d98:	71 2c       	mov	r7, r1
			cs = get_fat(obj, ncl);				/* Get next cluster status */
    1d9a:	d8 01       	movw	r26, r16
    1d9c:	8d 91       	ld	r24, X+
    1d9e:	9c 91       	ld	r25, X
    1da0:	b3 01       	movw	r22, r6
    1da2:	a2 01       	movw	r20, r4
    1da4:	0e 94 73 0d 	call	0x1ae6	; 0x1ae6 <get_fat.clone.2>
    1da8:	6b 01       	movw	r12, r22
    1daa:	7c 01       	movw	r14, r24
			if (cs == 1 || cs == 0xFFFFFFFF) return cs;	/* Test for error */
    1dac:	61 30       	cpi	r22, 0x01	; 1
    1dae:	71 05       	cpc	r23, r1
    1db0:	81 05       	cpc	r24, r1
    1db2:	91 05       	cpc	r25, r1
    1db4:	09 f4       	brne	.+2      	; 0x1db8 <create_chain.clone.3+0x13c>
    1db6:	ca c0       	rjmp	.+404    	; 0x1f4c <create_chain.clone.3+0x2d0>
    1db8:	6f 3f       	cpi	r22, 0xFF	; 255
    1dba:	ef ef       	ldi	r30, 0xFF	; 255
    1dbc:	7e 07       	cpc	r23, r30
    1dbe:	ef ef       	ldi	r30, 0xFF	; 255
    1dc0:	8e 07       	cpc	r24, r30
    1dc2:	ef ef       	ldi	r30, 0xFF	; 255
    1dc4:	9e 07       	cpc	r25, r30
    1dc6:	09 f4       	brne	.+2      	; 0x1dca <create_chain.clone.3+0x14e>
    1dc8:	c1 c0       	rjmp	.+386    	; 0x1f4c <create_chain.clone.3+0x2d0>
			if (cs != 0) {						/* Not free? */
    1dca:	61 15       	cp	r22, r1
    1dcc:	71 05       	cpc	r23, r1
    1dce:	81 05       	cpc	r24, r1
    1dd0:	91 05       	cpc	r25, r1
    1dd2:	c9 f0       	breq	.+50     	; 0x1e06 <create_chain.clone.3+0x18a>
				cs = fs->last_clst;				/* Start at suggested cluster if it is valid */
    1dd4:	d1 01       	movw	r26, r2
    1dd6:	1c 96       	adiw	r26, 0x0c	; 12
    1dd8:	2d 91       	ld	r18, X+
    1dda:	3d 91       	ld	r19, X+
    1ddc:	4d 91       	ld	r20, X+
    1dde:	5c 91       	ld	r21, X
    1de0:	1f 97       	sbiw	r26, 0x0f	; 15
				if (cs >= 2 && cs < fs->n_fatent) scl = cs;
    1de2:	22 30       	cpi	r18, 0x02	; 2
    1de4:	31 05       	cpc	r19, r1
    1de6:	41 05       	cpc	r20, r1
    1de8:	51 05       	cpc	r21, r1
    1dea:	98 f0       	brcs	.+38     	; 0x1e12 <create_chain.clone.3+0x196>
    1dec:	54 96       	adiw	r26, 0x14	; 20
    1dee:	8d 91       	ld	r24, X+
    1df0:	9d 91       	ld	r25, X+
    1df2:	0d 90       	ld	r0, X+
    1df4:	bc 91       	ld	r27, X
    1df6:	a0 2d       	mov	r26, r0
    1df8:	28 17       	cp	r18, r24
    1dfa:	39 07       	cpc	r19, r25
    1dfc:	4a 07       	cpc	r20, r26
    1dfe:	5b 07       	cpc	r21, r27
    1e00:	08 f4       	brcc	.+2      	; 0x1e04 <create_chain.clone.3+0x188>
    1e02:	bd c0       	rjmp	.+378    	; 0x1f7e <create_chain.clone.3+0x302>
    1e04:	06 c0       	rjmp	.+12     	; 0x1e12 <create_chain.clone.3+0x196>
				ncl = 0;
			}
		}
		if (ncl == 0) {	/* The new cluster cannot be contiguous and find another fragment */
    1e06:	41 14       	cp	r4, r1
    1e08:	51 04       	cpc	r5, r1
    1e0a:	61 04       	cpc	r6, r1
    1e0c:	71 04       	cpc	r7, r1
    1e0e:	09 f0       	breq	.+2      	; 0x1e12 <create_chain.clone.3+0x196>
    1e10:	40 c0       	rjmp	.+128    	; 0x1e92 <create_chain.clone.3+0x216>
#endif
	{	/* On the FAT/FAT32 volume */
		ncl = 0;
		if (scl == clst) {						/* Stretching an existing chain? */
			ncl = scl + 1;						/* Test if next cluster is free */
			if (ncl >= fs->n_fatent) ncl = 2;
    1e12:	24 01       	movw	r4, r8
    1e14:	35 01       	movw	r6, r10
			}
		}
		if (ncl == 0) {	/* The new cluster cannot be contiguous and find another fragment */
			ncl = scl;	/* Start cluster */
			for (;;) {
				ncl++;							/* Next cluster */
    1e16:	08 94       	sec
    1e18:	41 1c       	adc	r4, r1
    1e1a:	51 1c       	adc	r5, r1
    1e1c:	61 1c       	adc	r6, r1
    1e1e:	71 1c       	adc	r7, r1
				if (ncl >= fs->n_fatent) {		/* Check wrap-around */
    1e20:	f1 01       	movw	r30, r2
    1e22:	84 89       	ldd	r24, Z+20	; 0x14
    1e24:	95 89       	ldd	r25, Z+21	; 0x15
    1e26:	a6 89       	ldd	r26, Z+22	; 0x16
    1e28:	b7 89       	ldd	r27, Z+23	; 0x17
    1e2a:	48 16       	cp	r4, r24
    1e2c:	59 06       	cpc	r5, r25
    1e2e:	6a 06       	cpc	r6, r26
    1e30:	7b 06       	cpc	r7, r27
    1e32:	60 f0       	brcs	.+24     	; 0x1e4c <create_chain.clone.3+0x1d0>
					ncl = 2;
					if (ncl > scl) return 0;	/* No free cluster found? */
    1e34:	f2 e0       	ldi	r31, 0x02	; 2
    1e36:	8f 16       	cp	r8, r31
    1e38:	91 04       	cpc	r9, r1
    1e3a:	a1 04       	cpc	r10, r1
    1e3c:	b1 04       	cpc	r11, r1
    1e3e:	08 f4       	brcc	.+2      	; 0x1e42 <create_chain.clone.3+0x1c6>
    1e40:	7c c0       	rjmp	.+248    	; 0x1f3a <create_chain.clone.3+0x2be>
		if (ncl == 0) {	/* The new cluster cannot be contiguous and find another fragment */
			ncl = scl;	/* Start cluster */
			for (;;) {
				ncl++;							/* Next cluster */
				if (ncl >= fs->n_fatent) {		/* Check wrap-around */
					ncl = 2;
    1e42:	42 e0       	ldi	r20, 0x02	; 2
    1e44:	44 2e       	mov	r4, r20
    1e46:	51 2c       	mov	r5, r1
    1e48:	61 2c       	mov	r6, r1
    1e4a:	71 2c       	mov	r7, r1
					if (ncl > scl) return 0;	/* No free cluster found? */
				}
				cs = get_fat(obj, ncl);			/* Get the cluster status */
    1e4c:	d8 01       	movw	r26, r16
    1e4e:	8d 91       	ld	r24, X+
    1e50:	9c 91       	ld	r25, X
    1e52:	b3 01       	movw	r22, r6
    1e54:	a2 01       	movw	r20, r4
    1e56:	0e 94 73 0d 	call	0x1ae6	; 0x1ae6 <get_fat.clone.2>
    1e5a:	6b 01       	movw	r12, r22
    1e5c:	7c 01       	movw	r14, r24
				if (cs == 0) break;				/* Found a free cluster? */
    1e5e:	61 15       	cp	r22, r1
    1e60:	71 05       	cpc	r23, r1
    1e62:	81 05       	cpc	r24, r1
    1e64:	91 05       	cpc	r25, r1
    1e66:	a9 f0       	breq	.+42     	; 0x1e92 <create_chain.clone.3+0x216>
				if (cs == 1 || cs == 0xFFFFFFFF) return cs;	/* Test for error */
    1e68:	61 30       	cpi	r22, 0x01	; 1
    1e6a:	71 05       	cpc	r23, r1
    1e6c:	81 05       	cpc	r24, r1
    1e6e:	91 05       	cpc	r25, r1
    1e70:	09 f4       	brne	.+2      	; 0x1e74 <create_chain.clone.3+0x1f8>
    1e72:	6c c0       	rjmp	.+216    	; 0x1f4c <create_chain.clone.3+0x2d0>
    1e74:	6f 3f       	cpi	r22, 0xFF	; 255
    1e76:	ef ef       	ldi	r30, 0xFF	; 255
    1e78:	7e 07       	cpc	r23, r30
    1e7a:	ef ef       	ldi	r30, 0xFF	; 255
    1e7c:	8e 07       	cpc	r24, r30
    1e7e:	ef ef       	ldi	r30, 0xFF	; 255
    1e80:	9e 07       	cpc	r25, r30
    1e82:	09 f4       	brne	.+2      	; 0x1e86 <create_chain.clone.3+0x20a>
    1e84:	63 c0       	rjmp	.+198    	; 0x1f4c <create_chain.clone.3+0x2d0>
				if (ncl == scl) return 0;		/* No free cluster found? */
    1e86:	48 14       	cp	r4, r8
    1e88:	59 04       	cpc	r5, r9
    1e8a:	6a 04       	cpc	r6, r10
    1e8c:	7b 04       	cpc	r7, r11
    1e8e:	19 f6       	brne	.-122    	; 0x1e16 <create_chain.clone.3+0x19a>
    1e90:	54 c0       	rjmp	.+168    	; 0x1f3a <create_chain.clone.3+0x2be>
				if (ncl >= fs->n_fatent) {		/* Check wrap-around */
					ncl = 2;
					if (ncl > scl) return 0;	/* No free cluster found? */
				}
				cs = get_fat(obj, ncl);			/* Get the cluster status */
				if (cs == 0) break;				/* Found a free cluster? */
    1e92:	73 01       	movw	r14, r6
    1e94:	62 01       	movw	r12, r4
				if (cs == 1 || cs == 0xFFFFFFFF) return cs;	/* Test for error */
				if (ncl == scl) return 0;		/* No free cluster found? */
			}
		}
		res = put_fat(fs, ncl, 0xFFFFFFFF);		/* Mark the new cluster 'EOC' */
    1e96:	c1 01       	movw	r24, r2
    1e98:	b3 01       	movw	r22, r6
    1e9a:	a2 01       	movw	r20, r4
    1e9c:	0f ef       	ldi	r16, 0xFF	; 255
    1e9e:	1f ef       	ldi	r17, 0xFF	; 255
    1ea0:	98 01       	movw	r18, r16
    1ea2:	0e 94 c2 0b 	call	0x1784	; 0x1784 <put_fat>
		if (res == FR_OK && clst != 0) {
    1ea6:	88 23       	and	r24, r24
    1ea8:	09 f0       	breq	.+2      	; 0x1eac <create_chain.clone.3+0x230>
    1eaa:	40 c0       	rjmp	.+128    	; 0x1f2c <create_chain.clone.3+0x2b0>
    1eac:	89 81       	ldd	r24, Y+1	; 0x01
    1eae:	9a 81       	ldd	r25, Y+2	; 0x02
    1eb0:	ab 81       	ldd	r26, Y+3	; 0x03
    1eb2:	bc 81       	ldd	r27, Y+4	; 0x04
    1eb4:	00 97       	sbiw	r24, 0x00	; 0
    1eb6:	a1 05       	cpc	r26, r1
    1eb8:	b1 05       	cpc	r27, r1
    1eba:	59 f0       	breq	.+22     	; 0x1ed2 <create_chain.clone.3+0x256>
			res = put_fat(fs, clst, ncl);		/* Link it from the previous one if needed */
    1ebc:	c1 01       	movw	r24, r2
    1ebe:	49 81       	ldd	r20, Y+1	; 0x01
    1ec0:	5a 81       	ldd	r21, Y+2	; 0x02
    1ec2:	6b 81       	ldd	r22, Y+3	; 0x03
    1ec4:	7c 81       	ldd	r23, Y+4	; 0x04
    1ec6:	93 01       	movw	r18, r6
    1ec8:	82 01       	movw	r16, r4
    1eca:	0e 94 c2 0b 	call	0x1784	; 0x1784 <put_fat>
		}
	}

	if (res == FR_OK) {			/* Update allocation information if the function succeeded */
    1ece:	88 23       	and	r24, r24
    1ed0:	69 f5       	brne	.+90     	; 0x1f2c <create_chain.clone.3+0x2b0>
		fs->last_clst = ncl;
    1ed2:	d1 01       	movw	r26, r2
    1ed4:	1c 96       	adiw	r26, 0x0c	; 12
    1ed6:	cd 92       	st	X+, r12
    1ed8:	dd 92       	st	X+, r13
    1eda:	ed 92       	st	X+, r14
    1edc:	fc 92       	st	X, r15
    1ede:	1f 97       	sbiw	r26, 0x0f	; 15
		if (fs->free_clst > 0 && fs->free_clst <= fs->n_fatent - 2) {
    1ee0:	50 96       	adiw	r26, 0x10	; 16
    1ee2:	2d 91       	ld	r18, X+
    1ee4:	3d 91       	ld	r19, X+
    1ee6:	4d 91       	ld	r20, X+
    1ee8:	5c 91       	ld	r21, X
    1eea:	53 97       	sbiw	r26, 0x13	; 19
    1eec:	21 15       	cp	r18, r1
    1eee:	31 05       	cpc	r19, r1
    1ef0:	41 05       	cpc	r20, r1
    1ef2:	51 05       	cpc	r21, r1
    1ef4:	59 f1       	breq	.+86     	; 0x1f4c <create_chain.clone.3+0x2d0>
    1ef6:	54 96       	adiw	r26, 0x14	; 20
    1ef8:	8d 91       	ld	r24, X+
    1efa:	9d 91       	ld	r25, X+
    1efc:	0d 90       	ld	r0, X+
    1efe:	bc 91       	ld	r27, X
    1f00:	a0 2d       	mov	r26, r0
    1f02:	02 97       	sbiw	r24, 0x02	; 2
    1f04:	a1 09       	sbc	r26, r1
    1f06:	b1 09       	sbc	r27, r1
    1f08:	82 17       	cp	r24, r18
    1f0a:	93 07       	cpc	r25, r19
    1f0c:	a4 07       	cpc	r26, r20
    1f0e:	b5 07       	cpc	r27, r21
    1f10:	e8 f0       	brcs	.+58     	; 0x1f4c <create_chain.clone.3+0x2d0>
			fs->free_clst--;
    1f12:	21 50       	subi	r18, 0x01	; 1
    1f14:	30 40       	sbci	r19, 0x00	; 0
    1f16:	40 40       	sbci	r20, 0x00	; 0
    1f18:	50 40       	sbci	r21, 0x00	; 0
    1f1a:	f1 01       	movw	r30, r2
    1f1c:	20 8b       	std	Z+16, r18	; 0x10
    1f1e:	31 8b       	std	Z+17, r19	; 0x11
    1f20:	42 8b       	std	Z+18, r20	; 0x12
    1f22:	53 8b       	std	Z+19, r21	; 0x13
			fs->fsi_flag |= 1;
    1f24:	85 81       	ldd	r24, Z+5	; 0x05
    1f26:	81 60       	ori	r24, 0x01	; 1
    1f28:	85 83       	std	Z+5, r24	; 0x05
    1f2a:	10 c0       	rjmp	.+32     	; 0x1f4c <create_chain.clone.3+0x2d0>
		}
	} else {
		ncl = (res == FR_DISK_ERR) ? 0xFFFFFFFF : 1;	/* Failed. Generate error status */
    1f2c:	81 30       	cpi	r24, 0x01	; 1
    1f2e:	49 f4       	brne	.+18     	; 0x1f42 <create_chain.clone.3+0x2c6>
    1f30:	cc 24       	eor	r12, r12
    1f32:	ca 94       	dec	r12
    1f34:	dc 2c       	mov	r13, r12
    1f36:	76 01       	movw	r14, r12
    1f38:	09 c0       	rjmp	.+18     	; 0x1f4c <create_chain.clone.3+0x2d0>
					if (ncl > scl) return 0;	/* No free cluster found? */
				}
				cs = get_fat(obj, ncl);			/* Get the cluster status */
				if (cs == 0) break;				/* Found a free cluster? */
				if (cs == 1 || cs == 0xFFFFFFFF) return cs;	/* Test for error */
				if (ncl == scl) return 0;		/* No free cluster found? */
    1f3a:	cc 24       	eor	r12, r12
    1f3c:	dd 24       	eor	r13, r13
    1f3e:	76 01       	movw	r14, r12
    1f40:	05 c0       	rjmp	.+10     	; 0x1f4c <create_chain.clone.3+0x2d0>
		if (fs->free_clst > 0 && fs->free_clst <= fs->n_fatent - 2) {
			fs->free_clst--;
			fs->fsi_flag |= 1;
		}
	} else {
		ncl = (res == FR_DISK_ERR) ? 0xFFFFFFFF : 1;	/* Failed. Generate error status */
    1f42:	31 e0       	ldi	r19, 0x01	; 1
    1f44:	c3 2e       	mov	r12, r19
    1f46:	d1 2c       	mov	r13, r1
    1f48:	e1 2c       	mov	r14, r1
    1f4a:	f1 2c       	mov	r15, r1
	}

	return ncl;		/* Return new cluster number or error status */
}
    1f4c:	b6 01       	movw	r22, r12
    1f4e:	c7 01       	movw	r24, r14
    1f50:	0f 90       	pop	r0
    1f52:	0f 90       	pop	r0
    1f54:	0f 90       	pop	r0
    1f56:	0f 90       	pop	r0
    1f58:	cf 91       	pop	r28
    1f5a:	df 91       	pop	r29
    1f5c:	1f 91       	pop	r17
    1f5e:	0f 91       	pop	r16
    1f60:	ff 90       	pop	r15
    1f62:	ef 90       	pop	r14
    1f64:	df 90       	pop	r13
    1f66:	cf 90       	pop	r12
    1f68:	bf 90       	pop	r11
    1f6a:	af 90       	pop	r10
    1f6c:	9f 90       	pop	r9
    1f6e:	8f 90       	pop	r8
    1f70:	7f 90       	pop	r7
    1f72:	6f 90       	pop	r6
    1f74:	5f 90       	pop	r5
    1f76:	4f 90       	pop	r4
    1f78:	3f 90       	pop	r3
    1f7a:	2f 90       	pop	r2
    1f7c:	08 95       	ret
			if (ncl >= fs->n_fatent) ncl = 2;
			cs = get_fat(obj, ncl);				/* Get next cluster status */
			if (cs == 1 || cs == 0xFFFFFFFF) return cs;	/* Test for error */
			if (cs != 0) {						/* Not free? */
				cs = fs->last_clst;				/* Start at suggested cluster if it is valid */
				if (cs >= 2 && cs < fs->n_fatent) scl = cs;
    1f7e:	49 01       	movw	r8, r18
    1f80:	5a 01       	movw	r10, r20
    1f82:	47 cf       	rjmp	.-370    	; 0x1e12 <create_chain.clone.3+0x196>

00001f84 <dir_next>:

static FRESULT dir_next (	/* FR_OK(0):succeeded, FR_NO_FILE:End of table, FR_DENIED:Could not stretch */
	DIR* dp,				/* Pointer to the directory object */
	int stretch				/* 0: Do not stretch table, 1: Stretch table if needed */
)
{
    1f84:	6f 92       	push	r6
    1f86:	7f 92       	push	r7
    1f88:	8f 92       	push	r8
    1f8a:	9f 92       	push	r9
    1f8c:	af 92       	push	r10
    1f8e:	bf 92       	push	r11
    1f90:	cf 92       	push	r12
    1f92:	df 92       	push	r13
    1f94:	ef 92       	push	r14
    1f96:	ff 92       	push	r15
    1f98:	0f 93       	push	r16
    1f9a:	1f 93       	push	r17
    1f9c:	cf 93       	push	r28
    1f9e:	df 93       	push	r29
    1fa0:	ec 01       	movw	r28, r24
    1fa2:	3b 01       	movw	r6, r22
	DWORD ofs, clst;
	FATFS *fs = dp->obj.fs;
    1fa4:	c8 80       	ld	r12, Y
    1fa6:	d9 80       	ldd	r13, Y+1	; 0x01


	ofs = dp->dptr + SZDIRE;	/* Next entry */
    1fa8:	8e 84       	ldd	r8, Y+14	; 0x0e
    1faa:	9f 84       	ldd	r9, Y+15	; 0x0f
    1fac:	a8 88       	ldd	r10, Y+16	; 0x10
    1fae:	b9 88       	ldd	r11, Y+17	; 0x11
    1fb0:	80 e2       	ldi	r24, 0x20	; 32
    1fb2:	90 e0       	ldi	r25, 0x00	; 0
    1fb4:	a0 e0       	ldi	r26, 0x00	; 0
    1fb6:	b0 e0       	ldi	r27, 0x00	; 0
    1fb8:	88 0e       	add	r8, r24
    1fba:	99 1e       	adc	r9, r25
    1fbc:	aa 1e       	adc	r10, r26
    1fbe:	bb 1e       	adc	r11, r27
	if (ofs >= (DWORD)((FF_FS_EXFAT && fs->fs_type == FS_EXFAT) ? MAX_DIR_EX : MAX_DIR)) dp->sect = 0;	/* Disable it if the offset reached the max value */
    1fc0:	90 e0       	ldi	r25, 0x00	; 0
    1fc2:	89 16       	cp	r8, r25
    1fc4:	90 e0       	ldi	r25, 0x00	; 0
    1fc6:	99 06       	cpc	r9, r25
    1fc8:	90 e2       	ldi	r25, 0x20	; 32
    1fca:	a9 06       	cpc	r10, r25
    1fcc:	90 e0       	ldi	r25, 0x00	; 0
    1fce:	b9 06       	cpc	r11, r25
    1fd0:	20 f0       	brcs	.+8      	; 0x1fda <dir_next+0x56>
    1fd2:	1e 8a       	std	Y+22, r1	; 0x16
    1fd4:	1f 8a       	std	Y+23, r1	; 0x17
    1fd6:	18 8e       	std	Y+24, r1	; 0x18
    1fd8:	19 8e       	std	Y+25, r1	; 0x19
	if (dp->sect == 0) return FR_NO_FILE;	/* Report EOT if it has been disabled */
    1fda:	8e 89       	ldd	r24, Y+22	; 0x16
    1fdc:	9f 89       	ldd	r25, Y+23	; 0x17
    1fde:	a8 8d       	ldd	r26, Y+24	; 0x18
    1fe0:	b9 8d       	ldd	r27, Y+25	; 0x19
    1fe2:	00 97       	sbiw	r24, 0x00	; 0
    1fe4:	a1 05       	cpc	r26, r1
    1fe6:	b1 05       	cpc	r27, r1
    1fe8:	09 f4       	brne	.+2      	; 0x1fec <dir_next+0x68>
    1fea:	af c0       	rjmp	.+350    	; 0x214a <dir_next+0x1c6>

	if (ofs % SS(fs) == 0) {	/* Sector changed? */
    1fec:	a5 01       	movw	r20, r10
    1fee:	94 01       	movw	r18, r8
    1ff0:	31 70       	andi	r19, 0x01	; 1
    1ff2:	40 70       	andi	r20, 0x00	; 0
    1ff4:	50 70       	andi	r21, 0x00	; 0
    1ff6:	21 15       	cp	r18, r1
    1ff8:	31 05       	cpc	r19, r1
    1ffa:	41 05       	cpc	r20, r1
    1ffc:	51 05       	cpc	r21, r1
    1ffe:	09 f0       	breq	.+2      	; 0x2002 <dir_next+0x7e>
    2000:	97 c0       	rjmp	.+302    	; 0x2130 <dir_next+0x1ac>
		dp->sect++;				/* Next sector */
    2002:	01 96       	adiw	r24, 0x01	; 1
    2004:	a1 1d       	adc	r26, r1
    2006:	b1 1d       	adc	r27, r1
    2008:	8e 8b       	std	Y+22, r24	; 0x16
    200a:	9f 8b       	std	Y+23, r25	; 0x17
    200c:	a8 8f       	std	Y+24, r26	; 0x18
    200e:	b9 8f       	std	Y+25, r27	; 0x19

		if (dp->clust == 0) {	/* Static table */
    2010:	ea 88       	ldd	r14, Y+18	; 0x12
    2012:	fb 88       	ldd	r15, Y+19	; 0x13
    2014:	0c 89       	ldd	r16, Y+20	; 0x14
    2016:	1d 89       	ldd	r17, Y+21	; 0x15
    2018:	e1 14       	cp	r14, r1
    201a:	f1 04       	cpc	r15, r1
    201c:	01 05       	cpc	r16, r1
    201e:	11 05       	cpc	r17, r1
    2020:	b1 f4       	brne	.+44     	; 0x204e <dir_next+0xca>
			if (ofs / SZDIRE >= fs->n_rootdir) {	/* Report EOT if it reached end of static table */
    2022:	a5 01       	movw	r20, r10
    2024:	94 01       	movw	r18, r8
    2026:	e5 e0       	ldi	r30, 0x05	; 5
    2028:	56 95       	lsr	r21
    202a:	47 95       	ror	r20
    202c:	37 95       	ror	r19
    202e:	27 95       	ror	r18
    2030:	ea 95       	dec	r30
    2032:	d1 f7       	brne	.-12     	; 0x2028 <dir_next+0xa4>
    2034:	d6 01       	movw	r26, r12
    2036:	18 96       	adiw	r26, 0x08	; 8
    2038:	8d 91       	ld	r24, X+
    203a:	9c 91       	ld	r25, X
    203c:	19 97       	sbiw	r26, 0x09	; 9
    203e:	a0 e0       	ldi	r26, 0x00	; 0
    2040:	b0 e0       	ldi	r27, 0x00	; 0
    2042:	28 17       	cp	r18, r24
    2044:	39 07       	cpc	r19, r25
    2046:	4a 07       	cpc	r20, r26
    2048:	5b 07       	cpc	r21, r27
    204a:	e8 f5       	brcc	.+122    	; 0x20c6 <dir_next+0x142>
    204c:	71 c0       	rjmp	.+226    	; 0x2130 <dir_next+0x1ac>
				dp->sect = 0; return FR_NO_FILE;
			}
		}
		else {					/* Dynamic table */
			if ((ofs / SS(fs) & (fs->csize - 1)) == 0) {	/* Cluster changed? */
    204e:	f6 01       	movw	r30, r12
    2050:	82 85       	ldd	r24, Z+10	; 0x0a
    2052:	93 85       	ldd	r25, Z+11	; 0x0b
    2054:	01 97       	sbiw	r24, 0x01	; 1
    2056:	a0 e0       	ldi	r26, 0x00	; 0
    2058:	b0 e0       	ldi	r27, 0x00	; 0
    205a:	a5 01       	movw	r20, r10
    205c:	94 01       	movw	r18, r8
    205e:	79 e0       	ldi	r23, 0x09	; 9
    2060:	56 95       	lsr	r21
    2062:	47 95       	ror	r20
    2064:	37 95       	ror	r19
    2066:	27 95       	ror	r18
    2068:	7a 95       	dec	r23
    206a:	d1 f7       	brne	.-12     	; 0x2060 <dir_next+0xdc>
    206c:	82 23       	and	r24, r18
    206e:	93 23       	and	r25, r19
    2070:	a4 23       	and	r26, r20
    2072:	b5 23       	and	r27, r21
    2074:	00 97       	sbiw	r24, 0x00	; 0
    2076:	a1 05       	cpc	r26, r1
    2078:	b1 05       	cpc	r27, r1
    207a:	09 f0       	breq	.+2      	; 0x207e <dir_next+0xfa>
    207c:	59 c0       	rjmp	.+178    	; 0x2130 <dir_next+0x1ac>
				clst = get_fat(&dp->obj, dp->clust);		/* Get next cluster */
    207e:	c6 01       	movw	r24, r12
    2080:	b8 01       	movw	r22, r16
    2082:	a7 01       	movw	r20, r14
    2084:	0e 94 73 0d 	call	0x1ae6	; 0x1ae6 <get_fat.clone.2>
    2088:	7b 01       	movw	r14, r22
    208a:	8c 01       	movw	r16, r24
				if (clst <= 1) return FR_INT_ERR;			/* Internal error */
    208c:	62 30       	cpi	r22, 0x02	; 2
    208e:	71 05       	cpc	r23, r1
    2090:	81 05       	cpc	r24, r1
    2092:	91 05       	cpc	r25, r1
    2094:	08 f4       	brcc	.+2      	; 0x2098 <dir_next+0x114>
    2096:	5d c0       	rjmp	.+186    	; 0x2152 <dir_next+0x1ce>
				if (clst == 0xFFFFFFFF) return FR_DISK_ERR;	/* Disk error */
    2098:	8f ef       	ldi	r24, 0xFF	; 255
    209a:	e8 16       	cp	r14, r24
    209c:	8f ef       	ldi	r24, 0xFF	; 255
    209e:	f8 06       	cpc	r15, r24
    20a0:	8f ef       	ldi	r24, 0xFF	; 255
    20a2:	08 07       	cpc	r16, r24
    20a4:	8f ef       	ldi	r24, 0xFF	; 255
    20a6:	18 07       	cpc	r17, r24
    20a8:	09 f4       	brne	.+2      	; 0x20ac <dir_next+0x128>
    20aa:	55 c0       	rjmp	.+170    	; 0x2156 <dir_next+0x1d2>
				if (clst >= fs->n_fatent) {					/* It reached end of dynamic table */
    20ac:	f6 01       	movw	r30, r12
    20ae:	84 89       	ldd	r24, Z+20	; 0x14
    20b0:	95 89       	ldd	r25, Z+21	; 0x15
    20b2:	a6 89       	ldd	r26, Z+22	; 0x16
    20b4:	b7 89       	ldd	r27, Z+23	; 0x17
    20b6:	e8 16       	cp	r14, r24
    20b8:	f9 06       	cpc	r15, r25
    20ba:	0a 07       	cpc	r16, r26
    20bc:	1b 07       	cpc	r17, r27
    20be:	58 f1       	brcs	.+86     	; 0x2116 <dir_next+0x192>
#if !FF_FS_READONLY
					if (!stretch) {								/* If no stretch, report EOT */
    20c0:	61 14       	cp	r6, r1
    20c2:	71 04       	cpc	r7, r1
    20c4:	29 f4       	brne	.+10     	; 0x20d0 <dir_next+0x14c>
						dp->sect = 0; return FR_NO_FILE;
    20c6:	1e 8a       	std	Y+22, r1	; 0x16
    20c8:	1f 8a       	std	Y+23, r1	; 0x17
    20ca:	18 8e       	std	Y+24, r1	; 0x18
    20cc:	19 8e       	std	Y+25, r1	; 0x19
    20ce:	3d c0       	rjmp	.+122    	; 0x214a <dir_next+0x1c6>
					}
					clst = create_chain(&dp->obj, dp->clust);	/* Allocate a cluster */
    20d0:	4a 89       	ldd	r20, Y+18	; 0x12
    20d2:	5b 89       	ldd	r21, Y+19	; 0x13
    20d4:	6c 89       	ldd	r22, Y+20	; 0x14
    20d6:	7d 89       	ldd	r23, Y+21	; 0x15
    20d8:	ce 01       	movw	r24, r28
    20da:	0e 94 3e 0e 	call	0x1c7c	; 0x1c7c <create_chain.clone.3>
    20de:	7b 01       	movw	r14, r22
    20e0:	8c 01       	movw	r16, r24
					if (clst == 0) return FR_DENIED;			/* No free cluster */
    20e2:	61 15       	cp	r22, r1
    20e4:	71 05       	cpc	r23, r1
    20e6:	81 05       	cpc	r24, r1
    20e8:	91 05       	cpc	r25, r1
    20ea:	89 f1       	breq	.+98     	; 0x214e <dir_next+0x1ca>
					if (clst == 1) return FR_INT_ERR;			/* Internal error */
    20ec:	61 30       	cpi	r22, 0x01	; 1
    20ee:	71 05       	cpc	r23, r1
    20f0:	81 05       	cpc	r24, r1
    20f2:	91 05       	cpc	r25, r1
    20f4:	71 f1       	breq	.+92     	; 0x2152 <dir_next+0x1ce>
					if (clst == 0xFFFFFFFF) return FR_DISK_ERR;	/* Disk error */
    20f6:	8f ef       	ldi	r24, 0xFF	; 255
    20f8:	e8 16       	cp	r14, r24
    20fa:	8f ef       	ldi	r24, 0xFF	; 255
    20fc:	f8 06       	cpc	r15, r24
    20fe:	8f ef       	ldi	r24, 0xFF	; 255
    2100:	08 07       	cpc	r16, r24
    2102:	8f ef       	ldi	r24, 0xFF	; 255
    2104:	18 07       	cpc	r17, r24
    2106:	39 f1       	breq	.+78     	; 0x2156 <dir_next+0x1d2>
					if (dir_clear(fs, clst) != FR_OK) return FR_DISK_ERR;	/* Clean up the stretched table */
    2108:	c6 01       	movw	r24, r12
    210a:	b8 01       	movw	r22, r16
    210c:	a7 01       	movw	r20, r14
    210e:	0e 94 cf 07 	call	0xf9e	; 0xf9e <dir_clear>
    2112:	88 23       	and	r24, r24
    2114:	01 f5       	brne	.+64     	; 0x2156 <dir_next+0x1d2>
#else
					if (!stretch) dp->sect = 0;					/* (this line is to suppress compiler warning) */
					dp->sect = 0; return FR_NO_FILE;			/* Report EOT */
#endif
				}
				dp->clust = clst;		/* Initialize data for new cluster */
    2116:	ea 8a       	std	Y+18, r14	; 0x12
    2118:	fb 8a       	std	Y+19, r15	; 0x13
    211a:	0c 8b       	std	Y+20, r16	; 0x14
    211c:	1d 8b       	std	Y+21, r17	; 0x15
				dp->sect = clst2sect(fs, clst);
    211e:	c6 01       	movw	r24, r12
    2120:	b8 01       	movw	r22, r16
    2122:	a7 01       	movw	r20, r14
    2124:	0e 94 fa 06 	call	0xdf4	; 0xdf4 <clst2sect>
    2128:	6e 8b       	std	Y+22, r22	; 0x16
    212a:	7f 8b       	std	Y+23, r23	; 0x17
    212c:	88 8f       	std	Y+24, r24	; 0x18
    212e:	99 8f       	std	Y+25, r25	; 0x19
			}
		}
	}
	dp->dptr = ofs;						/* Current entry */
    2130:	8e 86       	std	Y+14, r8	; 0x0e
    2132:	9f 86       	std	Y+15, r9	; 0x0f
    2134:	a8 8a       	std	Y+16, r10	; 0x10
    2136:	b9 8a       	std	Y+17, r11	; 0x11
	dp->dir = fs->win + ofs % SS(fs);	/* Pointer to the entry in the win[] */
    2138:	c4 01       	movw	r24, r8
    213a:	91 70       	andi	r25, 0x01	; 1
    213c:	c0 96       	adiw	r24, 0x30	; 48
    213e:	8c 0d       	add	r24, r12
    2140:	9d 1d       	adc	r25, r13
    2142:	9b 8f       	std	Y+27, r25	; 0x1b
    2144:	8a 8f       	std	Y+26, r24	; 0x1a

	return FR_OK;
    2146:	80 e0       	ldi	r24, 0x00	; 0
    2148:	07 c0       	rjmp	.+14     	; 0x2158 <dir_next+0x1d4>
	FATFS *fs = dp->obj.fs;


	ofs = dp->dptr + SZDIRE;	/* Next entry */
	if (ofs >= (DWORD)((FF_FS_EXFAT && fs->fs_type == FS_EXFAT) ? MAX_DIR_EX : MAX_DIR)) dp->sect = 0;	/* Disable it if the offset reached the max value */
	if (dp->sect == 0) return FR_NO_FILE;	/* Report EOT if it has been disabled */
    214a:	84 e0       	ldi	r24, 0x04	; 4
    214c:	05 c0       	rjmp	.+10     	; 0x2158 <dir_next+0x1d4>
#if !FF_FS_READONLY
					if (!stretch) {								/* If no stretch, report EOT */
						dp->sect = 0; return FR_NO_FILE;
					}
					clst = create_chain(&dp->obj, dp->clust);	/* Allocate a cluster */
					if (clst == 0) return FR_DENIED;			/* No free cluster */
    214e:	87 e0       	ldi	r24, 0x07	; 7
    2150:	03 c0       	rjmp	.+6      	; 0x2158 <dir_next+0x1d4>
					if (clst == 1) return FR_INT_ERR;			/* Internal error */
    2152:	82 e0       	ldi	r24, 0x02	; 2
    2154:	01 c0       	rjmp	.+2      	; 0x2158 <dir_next+0x1d4>
					if (clst == 0xFFFFFFFF) return FR_DISK_ERR;	/* Disk error */
					if (dir_clear(fs, clst) != FR_OK) return FR_DISK_ERR;	/* Clean up the stretched table */
    2156:	81 e0       	ldi	r24, 0x01	; 1
	}
	dp->dptr = ofs;						/* Current entry */
	dp->dir = fs->win + ofs % SS(fs);	/* Pointer to the entry in the win[] */

	return FR_OK;
}
    2158:	df 91       	pop	r29
    215a:	cf 91       	pop	r28
    215c:	1f 91       	pop	r17
    215e:	0f 91       	pop	r16
    2160:	ff 90       	pop	r15
    2162:	ef 90       	pop	r14
    2164:	df 90       	pop	r13
    2166:	cf 90       	pop	r12
    2168:	bf 90       	pop	r11
    216a:	af 90       	pop	r10
    216c:	9f 90       	pop	r9
    216e:	8f 90       	pop	r8
    2170:	7f 90       	pop	r7
    2172:	6f 90       	pop	r6
    2174:	08 95       	ret

00002176 <remove_chain.clone.4>:
#if !FF_FS_READONLY
/*-----------------------------------------------------------------------*/
/* FAT handling - Remove a cluster chain                                 */
/*-----------------------------------------------------------------------*/

static FRESULT remove_chain (	/* FR_OK(0):succeeded, !=0:error */
    2176:	6f 92       	push	r6
    2178:	7f 92       	push	r7
    217a:	8f 92       	push	r8
    217c:	9f 92       	push	r9
    217e:	af 92       	push	r10
    2180:	bf 92       	push	r11
    2182:	cf 92       	push	r12
    2184:	df 92       	push	r13
    2186:	ef 92       	push	r14
    2188:	ff 92       	push	r15
    218a:	0f 93       	push	r16
    218c:	1f 93       	push	r17
    218e:	cf 93       	push	r28
    2190:	df 93       	push	r29
    2192:	3c 01       	movw	r6, r24
    2194:	4a 01       	movw	r8, r20
    2196:	5b 01       	movw	r10, r22
    2198:	b9 01       	movw	r22, r18
    219a:	a8 01       	movw	r20, r16
	DWORD pclst			/* Previous cluster of clst (0 if entire chain) */
)
{
	FRESULT res = FR_OK;
	DWORD nxt;
	FATFS *fs = obj->fs;
    219c:	fc 01       	movw	r30, r24
    219e:	c0 81       	ld	r28, Z
    21a0:	d1 81       	ldd	r29, Z+1	; 0x01
#endif
#if FF_USE_TRIM
	LBA_t rt[2];
#endif

	if (clst < 2 || clst >= fs->n_fatent) return FR_INT_ERR;	/* Check if in valid range */
    21a2:	f2 e0       	ldi	r31, 0x02	; 2
    21a4:	8f 16       	cp	r8, r31
    21a6:	91 04       	cpc	r9, r1
    21a8:	a1 04       	cpc	r10, r1
    21aa:	b1 04       	cpc	r11, r1
    21ac:	08 f4       	brcc	.+2      	; 0x21b0 <remove_chain.clone.4+0x3a>
    21ae:	69 c0       	rjmp	.+210    	; 0x2282 <remove_chain.clone.4+0x10c>
    21b0:	8c 89       	ldd	r24, Y+20	; 0x14
    21b2:	9d 89       	ldd	r25, Y+21	; 0x15
    21b4:	ae 89       	ldd	r26, Y+22	; 0x16
    21b6:	bf 89       	ldd	r27, Y+23	; 0x17
    21b8:	88 16       	cp	r8, r24
    21ba:	99 06       	cpc	r9, r25
    21bc:	aa 06       	cpc	r10, r26
    21be:	bb 06       	cpc	r11, r27
    21c0:	08 f0       	brcs	.+2      	; 0x21c4 <remove_chain.clone.4+0x4e>
    21c2:	5f c0       	rjmp	.+190    	; 0x2282 <remove_chain.clone.4+0x10c>

	/* Mark the previous cluster 'EOC' on the FAT if it exists */
	if (pclst != 0 && (!FF_FS_EXFAT || fs->fs_type != FS_EXFAT || obj->stat != 2)) {
    21c4:	01 15       	cp	r16, r1
    21c6:	11 05       	cpc	r17, r1
    21c8:	21 05       	cpc	r18, r1
    21ca:	31 05       	cpc	r19, r1
    21cc:	61 f0       	breq	.+24     	; 0x21e6 <remove_chain.clone.4+0x70>
		res = put_fat(fs, pclst, 0xFFFFFFFF);
    21ce:	ce 01       	movw	r24, r28
    21d0:	0f ef       	ldi	r16, 0xFF	; 255
    21d2:	1f ef       	ldi	r17, 0xFF	; 255
    21d4:	98 01       	movw	r18, r16
    21d6:	0e 94 c2 0b 	call	0x1784	; 0x1784 <put_fat>
    21da:	e8 2f       	mov	r30, r24
		if (res != FR_OK) return res;
    21dc:	88 23       	and	r24, r24
    21de:	19 f0       	breq	.+6      	; 0x21e6 <remove_chain.clone.4+0x70>
    21e0:	53 c0       	rjmp	.+166    	; 0x2288 <remove_chain.clone.4+0x112>
#endif
			scl = ecl = nxt;
		}
#endif
		clst = nxt;					/* Next cluster */
	} while (clst < fs->n_fatent);	/* Repeat until the last link */
    21e2:	46 01       	movw	r8, r12
    21e4:	57 01       	movw	r10, r14
		if (res != FR_OK) return res;
	}

	/* Remove the chain */
	do {
		nxt = get_fat(obj, clst);			/* Get cluster status */
    21e6:	f3 01       	movw	r30, r6
    21e8:	80 81       	ld	r24, Z
    21ea:	91 81       	ldd	r25, Z+1	; 0x01
    21ec:	b5 01       	movw	r22, r10
    21ee:	a4 01       	movw	r20, r8
    21f0:	0e 94 73 0d 	call	0x1ae6	; 0x1ae6 <get_fat.clone.2>
    21f4:	6b 01       	movw	r12, r22
    21f6:	7c 01       	movw	r14, r24
		if (nxt == 0) break;				/* Empty cluster? */
    21f8:	61 15       	cp	r22, r1
    21fa:	71 05       	cpc	r23, r1
    21fc:	81 05       	cpc	r24, r1
    21fe:	91 05       	cpc	r25, r1
    2200:	f1 f1       	breq	.+124    	; 0x227e <remove_chain.clone.4+0x108>
		if (nxt == 1) return FR_INT_ERR;	/* Internal error? */
    2202:	61 30       	cpi	r22, 0x01	; 1
    2204:	71 05       	cpc	r23, r1
    2206:	81 05       	cpc	r24, r1
    2208:	91 05       	cpc	r25, r1
    220a:	d9 f1       	breq	.+118    	; 0x2282 <remove_chain.clone.4+0x10c>
		if (nxt == 0xFFFFFFFF) return FR_DISK_ERR;	/* Disk error? */
    220c:	8f ef       	ldi	r24, 0xFF	; 255
    220e:	c8 16       	cp	r12, r24
    2210:	8f ef       	ldi	r24, 0xFF	; 255
    2212:	d8 06       	cpc	r13, r24
    2214:	8f ef       	ldi	r24, 0xFF	; 255
    2216:	e8 06       	cpc	r14, r24
    2218:	8f ef       	ldi	r24, 0xFF	; 255
    221a:	f8 06       	cpc	r15, r24
    221c:	a1 f1       	breq	.+104    	; 0x2286 <remove_chain.clone.4+0x110>
		if (!FF_FS_EXFAT || fs->fs_type != FS_EXFAT) {
			res = put_fat(fs, clst, 0);		/* Mark the cluster 'free' on the FAT */
    221e:	ce 01       	movw	r24, r28
    2220:	b5 01       	movw	r22, r10
    2222:	a4 01       	movw	r20, r8
    2224:	00 e0       	ldi	r16, 0x00	; 0
    2226:	10 e0       	ldi	r17, 0x00	; 0
    2228:	98 01       	movw	r18, r16
    222a:	0e 94 c2 0b 	call	0x1784	; 0x1784 <put_fat>
    222e:	e8 2f       	mov	r30, r24
			if (res != FR_OK) return res;
    2230:	88 23       	and	r24, r24
    2232:	51 f5       	brne	.+84     	; 0x2288 <remove_chain.clone.4+0x112>
		}
		if (fs->free_clst < fs->n_fatent - 2) {	/* Update allocation information if it is valid */
    2234:	28 89       	ldd	r18, Y+16	; 0x10
    2236:	39 89       	ldd	r19, Y+17	; 0x11
    2238:	4a 89       	ldd	r20, Y+18	; 0x12
    223a:	5b 89       	ldd	r21, Y+19	; 0x13
    223c:	8c 88       	ldd	r8, Y+20	; 0x14
    223e:	9d 88       	ldd	r9, Y+21	; 0x15
    2240:	ae 88       	ldd	r10, Y+22	; 0x16
    2242:	bf 88       	ldd	r11, Y+23	; 0x17
    2244:	c5 01       	movw	r24, r10
    2246:	b4 01       	movw	r22, r8
    2248:	62 50       	subi	r22, 0x02	; 2
    224a:	70 40       	sbci	r23, 0x00	; 0
    224c:	80 40       	sbci	r24, 0x00	; 0
    224e:	90 40       	sbci	r25, 0x00	; 0
    2250:	26 17       	cp	r18, r22
    2252:	37 07       	cpc	r19, r23
    2254:	48 07       	cpc	r20, r24
    2256:	59 07       	cpc	r21, r25
    2258:	58 f4       	brcc	.+22     	; 0x2270 <remove_chain.clone.4+0xfa>
			fs->free_clst++;
    225a:	2f 5f       	subi	r18, 0xFF	; 255
    225c:	3f 4f       	sbci	r19, 0xFF	; 255
    225e:	4f 4f       	sbci	r20, 0xFF	; 255
    2260:	5f 4f       	sbci	r21, 0xFF	; 255
    2262:	28 8b       	std	Y+16, r18	; 0x10
    2264:	39 8b       	std	Y+17, r19	; 0x11
    2266:	4a 8b       	std	Y+18, r20	; 0x12
    2268:	5b 8b       	std	Y+19, r21	; 0x13
			fs->fsi_flag |= 1;
    226a:	8d 81       	ldd	r24, Y+5	; 0x05
    226c:	81 60       	ori	r24, 0x01	; 1
    226e:	8d 83       	std	Y+5, r24	; 0x05
#endif
			scl = ecl = nxt;
		}
#endif
		clst = nxt;					/* Next cluster */
	} while (clst < fs->n_fatent);	/* Repeat until the last link */
    2270:	c8 14       	cp	r12, r8
    2272:	d9 04       	cpc	r13, r9
    2274:	ea 04       	cpc	r14, r10
    2276:	fb 04       	cpc	r15, r11
    2278:	08 f4       	brcc	.+2      	; 0x227c <remove_chain.clone.4+0x106>
    227a:	b3 cf       	rjmp	.-154    	; 0x21e2 <remove_chain.clone.4+0x6c>
    227c:	05 c0       	rjmp	.+10     	; 0x2288 <remove_chain.clone.4+0x112>
				}
			}
		}
	}
#endif
	return FR_OK;
    227e:	e0 e0       	ldi	r30, 0x00	; 0
    2280:	03 c0       	rjmp	.+6      	; 0x2288 <remove_chain.clone.4+0x112>

	/* Remove the chain */
	do {
		nxt = get_fat(obj, clst);			/* Get cluster status */
		if (nxt == 0) break;				/* Empty cluster? */
		if (nxt == 1) return FR_INT_ERR;	/* Internal error? */
    2282:	e2 e0       	ldi	r30, 0x02	; 2
    2284:	01 c0       	rjmp	.+2      	; 0x2288 <remove_chain.clone.4+0x112>
		if (nxt == 0xFFFFFFFF) return FR_DISK_ERR;	/* Disk error? */
    2286:	e1 e0       	ldi	r30, 0x01	; 1
			}
		}
	}
#endif
	return FR_OK;
}
    2288:	8e 2f       	mov	r24, r30
    228a:	df 91       	pop	r29
    228c:	cf 91       	pop	r28
    228e:	1f 91       	pop	r17
    2290:	0f 91       	pop	r16
    2292:	ff 90       	pop	r15
    2294:	ef 90       	pop	r14
    2296:	df 90       	pop	r13
    2298:	cf 90       	pop	r12
    229a:	bf 90       	pop	r11
    229c:	af 90       	pop	r10
    229e:	9f 90       	pop	r9
    22a0:	8f 90       	pop	r8
    22a2:	7f 90       	pop	r7
    22a4:	6f 90       	pop	r6
    22a6:	08 95       	ret

000022a8 <dir_sdi.clone.5>:

/*-----------------------------------------------------------------------*/
/* Directory handling - Set directory index                              */
/*-----------------------------------------------------------------------*/

static FRESULT dir_sdi (	/* FR_OK(0):succeeded, !=0:error */
    22a8:	cf 92       	push	r12
    22aa:	df 92       	push	r13
    22ac:	ef 92       	push	r14
    22ae:	ff 92       	push	r15
    22b0:	0f 93       	push	r16
    22b2:	1f 93       	push	r17
    22b4:	cf 93       	push	r28
    22b6:	df 93       	push	r29
    22b8:	ec 01       	movw	r28, r24
	DIR* dp,		/* Pointer to directory object */
	DWORD ofs		/* Offset of directory table */
)
{
	DWORD csz, clst;
	FATFS *fs = dp->obj.fs;
    22ba:	c8 80       	ld	r12, Y
    22bc:	d9 80       	ldd	r13, Y+1	; 0x01


	if (ofs >= (DWORD)((FF_FS_EXFAT && fs->fs_type == FS_EXFAT) ? MAX_DIR_EX : MAX_DIR) || ofs % SZDIRE) {	/* Check range of offset and alignment */
		return FR_INT_ERR;
	}
	dp->dptr = ofs;				/* Set current offset */
    22be:	1e 86       	std	Y+14, r1	; 0x0e
    22c0:	1f 86       	std	Y+15, r1	; 0x0f
    22c2:	18 8a       	std	Y+16, r1	; 0x10
    22c4:	19 8a       	std	Y+17, r1	; 0x11
	clst = dp->obj.sclust;		/* Table start cluster (0:root) */
    22c6:	ee 80       	ldd	r14, Y+6	; 0x06
    22c8:	ff 80       	ldd	r15, Y+7	; 0x07
    22ca:	08 85       	ldd	r16, Y+8	; 0x08
    22cc:	19 85       	ldd	r17, Y+9	; 0x09
	if (clst == 0 && fs->fs_type >= FS_FAT32) {	/* Replace cluster# 0 with root cluster# */
    22ce:	e1 14       	cp	r14, r1
    22d0:	f1 04       	cpc	r15, r1
    22d2:	01 05       	cpc	r16, r1
    22d4:	11 05       	cpc	r17, r1
    22d6:	e9 f4       	brne	.+58     	; 0x2312 <dir_sdi.clone.5+0x6a>
    22d8:	f6 01       	movw	r30, r12
    22da:	80 81       	ld	r24, Z
    22dc:	83 30       	cpi	r24, 0x03	; 3
    22de:	40 f0       	brcs	.+16     	; 0x22f0 <dir_sdi.clone.5+0x48>
		clst = (DWORD)fs->dirbase;
    22e0:	80 a5       	ldd	r24, Z+40	; 0x28
    22e2:	91 a5       	ldd	r25, Z+41	; 0x29
    22e4:	a2 a5       	ldd	r26, Z+42	; 0x2a
    22e6:	b3 a5       	ldd	r27, Z+43	; 0x2b
		if (FF_FS_EXFAT) dp->obj.stat = 0;	/* exFAT: Root dir has an FAT chain */
	}

	if (clst == 0) {	/* Static table (root-directory on the FAT volume) */
    22e8:	00 97       	sbiw	r24, 0x00	; 0
    22ea:	a1 05       	cpc	r26, r1
    22ec:	b1 05       	cpc	r27, r1
    22ee:	79 f4       	brne	.+30     	; 0x230e <dir_sdi.clone.5+0x66>
		if (ofs / SZDIRE >= fs->n_rootdir) return FR_INT_ERR;	/* Is index out of range? */
    22f0:	f6 01       	movw	r30, r12
    22f2:	80 85       	ldd	r24, Z+8	; 0x08
    22f4:	91 85       	ldd	r25, Z+9	; 0x09
    22f6:	00 97       	sbiw	r24, 0x00	; 0
    22f8:	09 f4       	brne	.+2      	; 0x22fc <dir_sdi.clone.5+0x54>
    22fa:	4e c0       	rjmp	.+156    	; 0x2398 <dir_sdi.clone.5+0xf0>
		dp->sect = fs->dirbase;
    22fc:	80 a5       	ldd	r24, Z+40	; 0x28
    22fe:	91 a5       	ldd	r25, Z+41	; 0x29
    2300:	a2 a5       	ldd	r26, Z+42	; 0x2a
    2302:	b3 a5       	ldd	r27, Z+43	; 0x2b
    2304:	8e 8b       	std	Y+22, r24	; 0x16
    2306:	9f 8b       	std	Y+23, r25	; 0x17
    2308:	a8 8f       	std	Y+24, r26	; 0x18
    230a:	b9 8f       	std	Y+25, r27	; 0x19
    230c:	31 c0       	rjmp	.+98     	; 0x2370 <dir_sdi.clone.5+0xc8>
	if (clst == 0 && fs->fs_type >= FS_FAT32) {	/* Replace cluster# 0 with root cluster# */
		clst = (DWORD)fs->dirbase;
		if (FF_FS_EXFAT) dp->obj.stat = 0;	/* exFAT: Root dir has an FAT chain */
	}

	if (clst == 0) {	/* Static table (root-directory on the FAT volume) */
    230e:	7c 01       	movw	r14, r24
    2310:	8d 01       	movw	r16, r26
		if (ofs / SZDIRE >= fs->n_rootdir) return FR_INT_ERR;	/* Is index out of range? */
		dp->sect = fs->dirbase;

	} else {			/* Dynamic table (sub-directory or root-directory on the FAT32/exFAT volume) */
		csz = (DWORD)fs->csize * SS(fs);	/* Bytes per cluster */
    2312:	f6 01       	movw	r30, r12
    2314:	82 85       	ldd	r24, Z+10	; 0x0a
    2316:	93 85       	ldd	r25, Z+11	; 0x0b
		while (ofs >= csz) {				/* Follow cluster chain */
    2318:	00 97       	sbiw	r24, 0x00	; 0
    231a:	09 f5       	brne	.+66     	; 0x235e <dir_sdi.clone.5+0xb6>
			clst = get_fat(&dp->obj, clst);				/* Get next cluster */
    231c:	88 81       	ld	r24, Y
    231e:	99 81       	ldd	r25, Y+1	; 0x01
    2320:	b8 01       	movw	r22, r16
    2322:	a7 01       	movw	r20, r14
    2324:	0e 94 73 0d 	call	0x1ae6	; 0x1ae6 <get_fat.clone.2>
    2328:	7b 01       	movw	r14, r22
    232a:	8c 01       	movw	r16, r24
			if (clst == 0xFFFFFFFF) return FR_DISK_ERR;	/* Disk error */
    232c:	6f 3f       	cpi	r22, 0xFF	; 255
    232e:	ff ef       	ldi	r31, 0xFF	; 255
    2330:	7f 07       	cpc	r23, r31
    2332:	ff ef       	ldi	r31, 0xFF	; 255
    2334:	8f 07       	cpc	r24, r31
    2336:	ff ef       	ldi	r31, 0xFF	; 255
    2338:	9f 07       	cpc	r25, r31
    233a:	61 f1       	breq	.+88     	; 0x2394 <dir_sdi.clone.5+0xec>
			if (clst < 2 || clst >= fs->n_fatent) return FR_INT_ERR;	/* Reached to end of table or internal error */
    233c:	82 e0       	ldi	r24, 0x02	; 2
    233e:	e8 16       	cp	r14, r24
    2340:	f1 04       	cpc	r15, r1
    2342:	01 05       	cpc	r16, r1
    2344:	11 05       	cpc	r17, r1
    2346:	40 f1       	brcs	.+80     	; 0x2398 <dir_sdi.clone.5+0xf0>
    2348:	f6 01       	movw	r30, r12
    234a:	84 89       	ldd	r24, Z+20	; 0x14
    234c:	95 89       	ldd	r25, Z+21	; 0x15
    234e:	a6 89       	ldd	r26, Z+22	; 0x16
    2350:	b7 89       	ldd	r27, Z+23	; 0x17
    2352:	e8 16       	cp	r14, r24
    2354:	f9 06       	cpc	r15, r25
    2356:	0a 07       	cpc	r16, r26
    2358:	1b 07       	cpc	r17, r27
    235a:	00 f3       	brcs	.-64     	; 0x231c <dir_sdi.clone.5+0x74>
    235c:	1d c0       	rjmp	.+58     	; 0x2398 <dir_sdi.clone.5+0xf0>
			ofs -= csz;
		}
		dp->sect = clst2sect(fs, clst);
    235e:	c6 01       	movw	r24, r12
    2360:	b8 01       	movw	r22, r16
    2362:	a7 01       	movw	r20, r14
    2364:	0e 94 fa 06 	call	0xdf4	; 0xdf4 <clst2sect>
    2368:	6e 8b       	std	Y+22, r22	; 0x16
    236a:	7f 8b       	std	Y+23, r23	; 0x17
    236c:	88 8f       	std	Y+24, r24	; 0x18
    236e:	99 8f       	std	Y+25, r25	; 0x19
	}
	dp->clust = clst;					/* Current cluster# */
    2370:	ea 8a       	std	Y+18, r14	; 0x12
    2372:	fb 8a       	std	Y+19, r15	; 0x13
    2374:	0c 8b       	std	Y+20, r16	; 0x14
    2376:	1d 8b       	std	Y+21, r17	; 0x15
	if (dp->sect == 0) return FR_INT_ERR;
    2378:	8e 89       	ldd	r24, Y+22	; 0x16
    237a:	9f 89       	ldd	r25, Y+23	; 0x17
    237c:	a8 8d       	ldd	r26, Y+24	; 0x18
    237e:	b9 8d       	ldd	r27, Y+25	; 0x19
    2380:	00 97       	sbiw	r24, 0x00	; 0
    2382:	a1 05       	cpc	r26, r1
    2384:	b1 05       	cpc	r27, r1
    2386:	41 f0       	breq	.+16     	; 0x2398 <dir_sdi.clone.5+0xf0>
	dp->sect += ofs / SS(fs);			/* Sector# of the directory entry */
	dp->dir = fs->win + (ofs % SS(fs));	/* Pointer to the entry in the win[] */
    2388:	c6 01       	movw	r24, r12
    238a:	c0 96       	adiw	r24, 0x30	; 48
    238c:	9b 8f       	std	Y+27, r25	; 0x1b
    238e:	8a 8f       	std	Y+26, r24	; 0x1a

	return FR_OK;
    2390:	80 e0       	ldi	r24, 0x00	; 0
    2392:	03 c0       	rjmp	.+6      	; 0x239a <dir_sdi.clone.5+0xf2>

	} else {			/* Dynamic table (sub-directory or root-directory on the FAT32/exFAT volume) */
		csz = (DWORD)fs->csize * SS(fs);	/* Bytes per cluster */
		while (ofs >= csz) {				/* Follow cluster chain */
			clst = get_fat(&dp->obj, clst);				/* Get next cluster */
			if (clst == 0xFFFFFFFF) return FR_DISK_ERR;	/* Disk error */
    2394:	81 e0       	ldi	r24, 0x01	; 1
    2396:	01 c0       	rjmp	.+2      	; 0x239a <dir_sdi.clone.5+0xf2>
			ofs -= csz;
		}
		dp->sect = clst2sect(fs, clst);
	}
	dp->clust = clst;					/* Current cluster# */
	if (dp->sect == 0) return FR_INT_ERR;
    2398:	82 e0       	ldi	r24, 0x02	; 2
	dp->sect += ofs / SS(fs);			/* Sector# of the directory entry */
	dp->dir = fs->win + (ofs % SS(fs));	/* Pointer to the entry in the win[] */

	return FR_OK;
}
    239a:	df 91       	pop	r29
    239c:	cf 91       	pop	r28
    239e:	1f 91       	pop	r17
    23a0:	0f 91       	pop	r16
    23a2:	ff 90       	pop	r15
    23a4:	ef 90       	pop	r14
    23a6:	df 90       	pop	r13
    23a8:	cf 90       	pop	r12
    23aa:	08 95       	ret

000023ac <dir_register>:
/*-----------------------------------------------------------------------*/

static FRESULT dir_register (	/* FR_OK:succeeded, FR_DENIED:no free entry or too many SFN collision, FR_DISK_ERR:disk error */
	DIR* dp						/* Target directory with object name to be created */
)
{
    23ac:	0f 93       	push	r16
    23ae:	1f 93       	push	r17
    23b0:	cf 93       	push	r28
    23b2:	df 93       	push	r29
    23b4:	ec 01       	movw	r28, r24
	FRESULT res;
	FATFS *fs = dp->obj.fs;
    23b6:	08 81       	ld	r16, Y
    23b8:	19 81       	ldd	r17, Y+1	; 0x01
	FRESULT res;
	UINT n;
	FATFS *fs = dp->obj.fs;


	res = dir_sdi(dp, 0);
    23ba:	0e 94 54 11 	call	0x22a8	; 0x22a8 <dir_sdi.clone.5>
	if (res == FR_OK) {
    23be:	88 23       	and	r24, r24
    23c0:	b1 f4       	brne	.+44     	; 0x23ee <dir_register+0x42>
		n = 0;
		do {
			res = move_window(fs, dp->sect);
    23c2:	4e 89       	ldd	r20, Y+22	; 0x16
    23c4:	5f 89       	ldd	r21, Y+23	; 0x17
    23c6:	68 8d       	ldd	r22, Y+24	; 0x18
    23c8:	79 8d       	ldd	r23, Y+25	; 0x19
    23ca:	c8 01       	movw	r24, r16
    23cc:	0e 94 2a 08 	call	0x1054	; 0x1054 <move_window>
			if (res != FR_OK) break;
    23d0:	88 23       	and	r24, r24
    23d2:	69 f4       	brne	.+26     	; 0x23ee <dir_register+0x42>
#if FF_FS_EXFAT
			if ((fs->fs_type == FS_EXFAT) ? (int)((dp->dir[XDIR_Type] & 0x80) == 0) : (int)(dp->dir[DIR_Name] == DDEM || dp->dir[DIR_Name] == 0)) {	/* Is the entry free? */
#else
			if (dp->dir[DIR_Name] == DDEM || dp->dir[DIR_Name] == 0) {	/* Is the entry free? */
    23d4:	ea 8d       	ldd	r30, Y+26	; 0x1a
    23d6:	fb 8d       	ldd	r31, Y+27	; 0x1b
    23d8:	80 81       	ld	r24, Z
    23da:	85 3e       	cpi	r24, 0xE5	; 229
    23dc:	59 f0       	breq	.+22     	; 0x23f4 <dir_register+0x48>
    23de:	88 23       	and	r24, r24
    23e0:	49 f0       	breq	.+18     	; 0x23f4 <dir_register+0x48>
#endif
				if (++n == n_ent) break;	/* Is a block of contiguous free entries found? */
			} else {
				n = 0;				/* Not a free entry, restart to search */
			}
			res = dir_next(dp, 1);	/* Next entry with table stretch enabled */
    23e2:	ce 01       	movw	r24, r28
    23e4:	61 e0       	ldi	r22, 0x01	; 1
    23e6:	70 e0       	ldi	r23, 0x00	; 0
    23e8:	0e 94 c2 0f 	call	0x1f84	; 0x1f84 <dir_next>
    23ec:	e8 cf       	rjmp	.-48     	; 0x23be <dir_register+0x12>
		} while (res == FR_OK);
	}

	if (res == FR_NO_FILE) res = FR_DENIED;	/* No directory entry to allocate */
    23ee:	84 30       	cpi	r24, 0x04	; 4
    23f0:	09 f5       	brne	.+66     	; 0x2434 <dir_register+0x88>
    23f2:	1f c0       	rjmp	.+62     	; 0x2432 <dir_register+0x86>

#endif

	/* Set SFN entry */
	if (res == FR_OK) {
		res = move_window(fs, dp->sect);
    23f4:	4e 89       	ldd	r20, Y+22	; 0x16
    23f6:	5f 89       	ldd	r21, Y+23	; 0x17
    23f8:	68 8d       	ldd	r22, Y+24	; 0x18
    23fa:	79 8d       	ldd	r23, Y+25	; 0x19
    23fc:	c8 01       	movw	r24, r16
    23fe:	0e 94 2a 08 	call	0x1054	; 0x1054 <move_window>
		if (res == FR_OK) {
    2402:	88 23       	and	r24, r24
    2404:	b9 f4       	brne	.+46     	; 0x2434 <dir_register+0x88>
			memset(dp->dir, 0, SZDIRE);	/* Clean the entry */
    2406:	ea 8d       	ldd	r30, Y+26	; 0x1a
    2408:	fb 8d       	ldd	r31, Y+27	; 0x1b
    240a:	90 e2       	ldi	r25, 0x20	; 32
    240c:	df 01       	movw	r26, r30
    240e:	1d 92       	st	X+, r1
    2410:	9a 95       	dec	r25
    2412:	e9 f7       	brne	.-6      	; 0x240e <dir_register+0x62>
			memcpy(dp->dir + DIR_Name, dp->fn, 11);	/* Put SFN */
    2414:	4a 8d       	ldd	r20, Y+26	; 0x1a
    2416:	9b 8d       	ldd	r25, Y+27	; 0x1b
    2418:	24 2f       	mov	r18, r20
    241a:	39 2f       	mov	r19, r25
    241c:	f9 01       	movw	r30, r18
    241e:	6c 96       	adiw	r28, 0x1c	; 28
    2420:	9b e0       	ldi	r25, 0x0B	; 11
    2422:	09 90       	ld	r0, Y+
    2424:	01 92       	st	Z+, r0
    2426:	91 50       	subi	r25, 0x01	; 1
    2428:	e1 f7       	brne	.-8      	; 0x2422 <dir_register+0x76>
#if FF_USE_LFN
			dp->dir[DIR_NTres] = dp->fn[NSFLAG] & (NS_BODY | NS_EXT);	/* Put low-case flags */
#endif
			fs->wflag = 1;
    242a:	91 e0       	ldi	r25, 0x01	; 1
    242c:	f8 01       	movw	r30, r16
    242e:	94 83       	std	Z+4, r25	; 0x04
    2430:	01 c0       	rjmp	.+2      	; 0x2434 <dir_register+0x88>
			}
			res = dir_next(dp, 1);	/* Next entry with table stretch enabled */
		} while (res == FR_OK);
	}

	if (res == FR_NO_FILE) res = FR_DENIED;	/* No directory entry to allocate */
    2432:	87 e0       	ldi	r24, 0x07	; 7
			fs->wflag = 1;
		}
	}

	return res;
}
    2434:	df 91       	pop	r29
    2436:	cf 91       	pop	r28
    2438:	1f 91       	pop	r17
    243a:	0f 91       	pop	r16
    243c:	08 95       	ret

0000243e <follow_path>:

static FRESULT follow_path (	/* FR_OK(0): successful, !=0: error code */
	DIR* dp,					/* Directory object to return last directory and found object */
	const TCHAR* path			/* Full-path string to find a file or directory */
)
{
    243e:	2f 92       	push	r2
    2440:	3f 92       	push	r3
    2442:	5f 92       	push	r5
    2444:	6f 92       	push	r6
    2446:	7f 92       	push	r7
    2448:	8f 92       	push	r8
    244a:	9f 92       	push	r9
    244c:	af 92       	push	r10
    244e:	bf 92       	push	r11
    2450:	cf 92       	push	r12
    2452:	df 92       	push	r13
    2454:	ef 92       	push	r14
    2456:	ff 92       	push	r15
    2458:	0f 93       	push	r16
    245a:	1f 93       	push	r17
    245c:	df 93       	push	r29
    245e:	cf 93       	push	r28
    2460:	0f 92       	push	r0
    2462:	cd b7       	in	r28, 0x3d	; 61
    2464:	de b7       	in	r29, 0x3e	; 62
    2466:	1c 01       	movw	r2, r24
	FRESULT res;
	BYTE ns;
	FATFS *fs = dp->obj.fs;
    2468:	dc 01       	movw	r26, r24
    246a:	8d 90       	ld	r8, X+
    246c:	9c 90       	ld	r9, X
    246e:	11 97       	sbiw	r26, 0x01	; 1
    2470:	86 2f       	mov	r24, r22
    2472:	97 2f       	mov	r25, r23
	if (!IsSeparator(*path) && (FF_STR_VOLUME_ID != 2 || !IsTerminator(*path))) {	/* Without heading separator */
		dp->obj.sclust = fs->cdir;			/* Start at the current directory */
	} else
#endif
	{										/* With heading separator */
		while (IsSeparator(*path)) path++;	/* Strip heading separators */
    2474:	6c 01       	movw	r12, r24
    2476:	fc 01       	movw	r30, r24
    2478:	20 81       	ld	r18, Z
    247a:	01 96       	adiw	r24, 0x01	; 1
    247c:	2f 32       	cpi	r18, 0x2F	; 47
    247e:	d1 f3       	breq	.-12     	; 0x2474 <follow_path+0x36>
    2480:	2c 35       	cpi	r18, 0x5C	; 92
    2482:	c1 f3       	breq	.-16     	; 0x2474 <follow_path+0x36>
		dp->obj.sclust = 0;					/* Start at the root directory */
    2484:	d1 01       	movw	r26, r2
    2486:	16 96       	adiw	r26, 0x06	; 6
    2488:	1d 92       	st	X+, r1
    248a:	1d 92       	st	X+, r1
    248c:	1d 92       	st	X+, r1
    248e:	1c 92       	st	X, r1
    2490:	19 97       	sbiw	r26, 0x09	; 9
		}
	}
#endif
#endif

	if ((UINT)*path < ' ') {				/* Null path name is the origin directory itself */
    2492:	80 81       	ld	r24, Z
    2494:	80 32       	cpi	r24, 0x20	; 32
    2496:	40 f4       	brcc	.+16     	; 0x24a8 <follow_path+0x6a>
		dp->fn[NSFLAG] = NS_NONAME;
    2498:	80 e8       	ldi	r24, 0x80	; 128
    249a:	f1 01       	movw	r30, r2
    249c:	87 a3       	std	Z+39, r24	; 0x27
		res = dir_sdi(dp, 0);
    249e:	c1 01       	movw	r24, r2
    24a0:	0e 94 54 11 	call	0x22a8	; 0x22a8 <dir_sdi.clone.5>
    24a4:	18 2f       	mov	r17, r24
    24a6:	ea c0       	rjmp	.+468    	; 0x267c <follow_path+0x23e>
	BYTE *sfn;
	UINT ni, si, i;
	const char *p;

	/* Create file name in directory form */
	p = *path; sfn = dp->fn;
    24a8:	0c e1       	ldi	r16, 0x1C	; 28
    24aa:	60 2e       	mov	r6, r16
    24ac:	71 2c       	mov	r7, r1
    24ae:	62 0c       	add	r6, r2
    24b0:	73 1c       	adc	r7, r3
		}
	}
	*path = &p[si];						/* Return pointer to the next segment */
	if (i == 0) return FR_INVALID_NAME;	/* Reject nul string */

	if (sfn[0] == DDEM) sfn[0] = RDDEM;	/* If the first character collides with DDEM, replace it with RDDEM */
    24b2:	15 e0       	ldi	r17, 0x05	; 5
    24b4:	51 2e       	mov	r5, r17
	UINT ni, si, i;
	const char *p;

	/* Create file name in directory form */
	p = *path; sfn = dp->fn;
	memset(sfn, ' ', 11);
    24b6:	c3 01       	movw	r24, r6
    24b8:	60 e2       	ldi	r22, 0x20	; 32
    24ba:	70 e0       	ldi	r23, 0x00	; 0
    24bc:	4b e0       	ldi	r20, 0x0B	; 11
    24be:	50 e0       	ldi	r21, 0x00	; 0
    24c0:	0e 94 c0 21 	call	0x4380	; 0x4380 <memset>
	si = i = 0; ni = 8;
    24c4:	ee 24       	eor	r14, r14
    24c6:	ff 24       	eor	r15, r15
    24c8:	00 e0       	ldi	r16, 0x00	; 0
    24ca:	10 e0       	ldi	r17, 0x00	; 0
    24cc:	b8 e0       	ldi	r27, 0x08	; 8
    24ce:	ab 2e       	mov	r10, r27
    24d0:	b1 2c       	mov	r11, r1
		sfn[NSFLAG] = (c <= ' ') ? NS_LAST | NS_DOT : NS_DOT;	/* Set last segment flag if end of the path */
		return FR_OK;
	}
#endif
	for (;;) {
		c = (BYTE)p[si++];				/* Get a byte */
    24d2:	f6 01       	movw	r30, r12
    24d4:	e0 0f       	add	r30, r16
    24d6:	f1 1f       	adc	r31, r17
    24d8:	20 81       	ld	r18, Z
    24da:	0f 5f       	subi	r16, 0xFF	; 255
    24dc:	1f 4f       	sbci	r17, 0xFF	; 255
		if (c <= ' ') break; 			/* Break if end of the path name */
    24de:	21 32       	cpi	r18, 0x21	; 33
    24e0:	08 f4       	brcc	.+2      	; 0x24e4 <follow_path+0xa6>
    24e2:	5f c0       	rjmp	.+190    	; 0x25a2 <follow_path+0x164>
		if (IsSeparator(c)) {			/* Break if a separator is found */
    24e4:	2f 32       	cpi	r18, 0x2F	; 47
    24e6:	11 f0       	breq	.+4      	; 0x24ec <follow_path+0xae>
    24e8:	2c 35       	cpi	r18, 0x5C	; 92
    24ea:	61 f4       	brne	.+24     	; 0x2504 <follow_path+0xc6>

/*-----------------------------------------------------------------------*/
/* Follow a file path                                                    */
/*-----------------------------------------------------------------------*/

static FRESULT follow_path (	/* FR_OK(0): successful, !=0: error code */
    24ec:	f6 01       	movw	r30, r12
    24ee:	e0 0f       	add	r30, r16
    24f0:	f1 1f       	adc	r31, r17
    24f2:	02 c0       	rjmp	.+4      	; 0x24f8 <follow_path+0xba>
#endif
	for (;;) {
		c = (BYTE)p[si++];				/* Get a byte */
		if (c <= ' ') break; 			/* Break if end of the path name */
		if (IsSeparator(c)) {			/* Break if a separator is found */
			while (IsSeparator(p[si])) si++;	/* Skip duplicated separators */
    24f4:	0f 5f       	subi	r16, 0xFF	; 255
    24f6:	1f 4f       	sbci	r17, 0xFF	; 255
    24f8:	81 91       	ld	r24, Z+
    24fa:	8f 32       	cpi	r24, 0x2F	; 47
    24fc:	d9 f3       	breq	.-10     	; 0x24f4 <follow_path+0xb6>
    24fe:	8c 35       	cpi	r24, 0x5C	; 92
    2500:	c9 f3       	breq	.-14     	; 0x24f4 <follow_path+0xb6>
    2502:	4f c0       	rjmp	.+158    	; 0x25a2 <follow_path+0x164>
			break;
		}
		if (c == '.' || i >= ni) {		/* End of body or field overflow? */
    2504:	2e 32       	cpi	r18, 0x2E	; 46
    2506:	19 f0       	breq	.+6      	; 0x250e <follow_path+0xd0>
    2508:	ea 14       	cp	r14, r10
    250a:	fb 04       	cpc	r15, r11
    250c:	78 f0       	brcs	.+30     	; 0x252c <follow_path+0xee>
			if (ni == 11 || c != '.') return FR_INVALID_NAME;	/* Field overflow or invalid dot? */
    250e:	fb e0       	ldi	r31, 0x0B	; 11
    2510:	af 16       	cp	r10, r31
    2512:	b1 04       	cpc	r11, r1
    2514:	09 f4       	brne	.+2      	; 0x2518 <follow_path+0xda>
    2516:	b1 c0       	rjmp	.+354    	; 0x267a <follow_path+0x23c>
    2518:	2e 32       	cpi	r18, 0x2E	; 46
    251a:	09 f0       	breq	.+2      	; 0x251e <follow_path+0xe0>
    251c:	ae c0       	rjmp	.+348    	; 0x267a <follow_path+0x23c>
			i = 8; ni = 11;				/* Enter file extension field */
    251e:	a8 e0       	ldi	r26, 0x08	; 8
    2520:	ea 2e       	mov	r14, r26
    2522:	f1 2c       	mov	r15, r1
    2524:	fb e0       	ldi	r31, 0x0B	; 11
    2526:	af 2e       	mov	r10, r31
    2528:	b1 2c       	mov	r11, r1
    252a:	d3 cf       	rjmp	.-90     	; 0x24d2 <follow_path+0x94>
	if (DbcTbl && c >= DbcTbl[0]) {
		if (c <= DbcTbl[1]) return 1;					/* 1st byte range 1 */
		if (c >= DbcTbl[2] && c <= DbcTbl[3]) return 1;	/* 1st byte range 2 */
	}
#elif FF_CODE_PAGE >= 900	/* DBCS fixed code page */
	if (c >= DbcTbl[0]) {
    252c:	21 38       	cpi	r18, 0x81	; 129
    252e:	08 f4       	brcc	.+2      	; 0x2532 <follow_path+0xf4>
    2530:	b9 c0       	rjmp	.+370    	; 0x26a4 <follow_path+0x266>
		if (c <= DbcTbl[1]) return 1;
    2532:	20 3a       	cpi	r18, 0xA0	; 160
    2534:	30 f0       	brcs	.+12     	; 0x2542 <follow_path+0x104>
		if (c >= DbcTbl[2] && c <= DbcTbl[3]) return 1;
    2536:	20 3e       	cpi	r18, 0xE0	; 224
    2538:	08 f4       	brcc	.+2      	; 0x253c <follow_path+0xfe>
    253a:	b4 c0       	rjmp	.+360    	; 0x26a4 <follow_path+0x266>
    253c:	2d 3f       	cpi	r18, 0xFD	; 253
    253e:	08 f0       	brcs	.+2      	; 0x2542 <follow_path+0x104>
    2540:	b1 c0       	rjmp	.+354    	; 0x26a4 <follow_path+0x266>
		if (c >= 0x80) {				/* Is SBC extended character? */
			c = ExCvt[c & 0x7F];		/* To upper SBC extended character */
		}
#endif
		if (dbc_1st(c)) {				/* Check if it is a DBC 1st byte */
			d = (BYTE)p[si++];			/* Get 2nd byte */
    2542:	f6 01       	movw	r30, r12
    2544:	e0 0f       	add	r30, r16
    2546:	f1 1f       	adc	r31, r17
    2548:	30 81       	ld	r19, Z
		if (c <= DbcTbl[5]) return 1;					/* 2nd byte range 1 */
		if (c >= DbcTbl[6] && c <= DbcTbl[7]) return 1;	/* 2nd byte range 2 */
		if (c >= DbcTbl[8] && c <= DbcTbl[9]) return 1;	/* 2nd byte range 3 */
	}
#elif FF_CODE_PAGE >= 900	/* DBCS fixed code page */
	if (c >= DbcTbl[4]) {
    254a:	30 34       	cpi	r19, 0x40	; 64
    254c:	08 f4       	brcc	.+2      	; 0x2550 <follow_path+0x112>
    254e:	95 c0       	rjmp	.+298    	; 0x267a <follow_path+0x23c>
		if (c <= DbcTbl[5]) return 1;
    2550:	3f 37       	cpi	r19, 0x7F	; 127
    2552:	30 f0       	brcs	.+12     	; 0x2560 <follow_path+0x122>
		if (c >= DbcTbl[6] && c <= DbcTbl[7]) return 1;
    2554:	3f 37       	cpi	r19, 0x7F	; 127
    2556:	09 f4       	brne	.+2      	; 0x255a <follow_path+0x11c>
    2558:	90 c0       	rjmp	.+288    	; 0x267a <follow_path+0x23c>
    255a:	3d 3f       	cpi	r19, 0xFD	; 253
    255c:	08 f0       	brcs	.+2      	; 0x2560 <follow_path+0x122>
    255e:	8d c0       	rjmp	.+282    	; 0x267a <follow_path+0x23c>
			c = ExCvt[c & 0x7F];		/* To upper SBC extended character */
		}
#endif
		if (dbc_1st(c)) {				/* Check if it is a DBC 1st byte */
			d = (BYTE)p[si++];			/* Get 2nd byte */
			if (!dbc_2nd(d) || i >= ni - 1) return FR_INVALID_NAME;	/* Reject invalid DBC */
    2560:	c5 01       	movw	r24, r10
    2562:	01 97       	sbiw	r24, 0x01	; 1
    2564:	e8 16       	cp	r14, r24
    2566:	f9 06       	cpc	r15, r25
    2568:	08 f0       	brcs	.+2      	; 0x256c <follow_path+0x12e>
    256a:	87 c0       	rjmp	.+270    	; 0x267a <follow_path+0x23c>
		if (c >= 0x80) {				/* Is SBC extended character? */
			c = ExCvt[c & 0x7F];		/* To upper SBC extended character */
		}
#endif
		if (dbc_1st(c)) {				/* Check if it is a DBC 1st byte */
			d = (BYTE)p[si++];			/* Get 2nd byte */
    256c:	0f 5f       	subi	r16, 0xFF	; 255
    256e:	1f 4f       	sbci	r17, 0xFF	; 255
			if (!dbc_2nd(d) || i >= ni - 1) return FR_INVALID_NAME;	/* Reject invalid DBC */
			sfn[i++] = c;
    2570:	f1 01       	movw	r30, r2
    2572:	ee 0d       	add	r30, r14
    2574:	ff 1d       	adc	r31, r15
    2576:	24 8f       	std	Z+28, r18	; 0x1c
    2578:	08 94       	sec
    257a:	e1 1c       	adc	r14, r1
    257c:	f1 1c       	adc	r15, r1
			sfn[i++] = d;
    257e:	f1 01       	movw	r30, r2
    2580:	ee 0d       	add	r30, r14
    2582:	ff 1d       	adc	r31, r15
    2584:	34 8f       	std	Z+28, r19	; 0x1c
    2586:	09 c0       	rjmp	.+18     	; 0x259a <follow_path+0x15c>
		} else {						/* SBC */
			if (strchr("*+,:;<=>[]|\"\?\x7F", (int)c)) return FR_INVALID_NAME;	/* Reject illegal chrs for SFN */
			if (IsLower(c)) c -= 0x20;	/* To upper */
    2588:	82 2f       	mov	r24, r18
    258a:	81 56       	subi	r24, 0x61	; 97
    258c:	8a 31       	cpi	r24, 0x1A	; 26
    258e:	08 f4       	brcc	.+2      	; 0x2592 <follow_path+0x154>
    2590:	20 52       	subi	r18, 0x20	; 32
			sfn[i++] = c;
    2592:	f1 01       	movw	r30, r2
    2594:	ee 0d       	add	r30, r14
    2596:	ff 1d       	adc	r31, r15
    2598:	24 8f       	std	Z+28, r18	; 0x1c
    259a:	08 94       	sec
    259c:	e1 1c       	adc	r14, r1
    259e:	f1 1c       	adc	r15, r1
    25a0:	98 cf       	rjmp	.-208    	; 0x24d2 <follow_path+0x94>
		}
	}
	*path = &p[si];						/* Return pointer to the next segment */
	if (i == 0) return FR_INVALID_NAME;	/* Reject nul string */
    25a2:	e1 14       	cp	r14, r1
    25a4:	f1 04       	cpc	r15, r1
    25a6:	09 f4       	brne	.+2      	; 0x25aa <follow_path+0x16c>
    25a8:	68 c0       	rjmp	.+208    	; 0x267a <follow_path+0x23c>

	if (sfn[0] == DDEM) sfn[0] = RDDEM;	/* If the first character collides with DDEM, replace it with RDDEM */
    25aa:	d1 01       	movw	r26, r2
    25ac:	5c 96       	adiw	r26, 0x1c	; 28
    25ae:	8c 91       	ld	r24, X
    25b0:	5c 97       	sbiw	r26, 0x1c	; 28
    25b2:	85 3e       	cpi	r24, 0xE5	; 229
    25b4:	19 f4       	brne	.+6      	; 0x25bc <follow_path+0x17e>
    25b6:	5c 96       	adiw	r26, 0x1c	; 28
    25b8:	5c 92       	st	X, r5
    25ba:	5c 97       	sbiw	r26, 0x1c	; 28
			if (strchr("*+,:;<=>[]|\"\?\x7F", (int)c)) return FR_INVALID_NAME;	/* Reject illegal chrs for SFN */
			if (IsLower(c)) c -= 0x20;	/* To upper */
			sfn[i++] = c;
		}
	}
	*path = &p[si];						/* Return pointer to the next segment */
    25bc:	c0 0e       	add	r12, r16
    25be:	d1 1e       	adc	r13, r17
	if (i == 0) return FR_INVALID_NAME;	/* Reject nul string */

	if (sfn[0] == DDEM) sfn[0] = RDDEM;	/* If the first character collides with DDEM, replace it with RDDEM */
	sfn[NSFLAG] = (c <= ' ' || p[si] <= ' ') ? NS_LAST : 0;	/* Set last segment flag if end of the path */
    25c0:	21 32       	cpi	r18, 0x21	; 33
    25c2:	20 f0       	brcs	.+8      	; 0x25cc <follow_path+0x18e>
    25c4:	f6 01       	movw	r30, r12
    25c6:	80 81       	ld	r24, Z
    25c8:	81 32       	cpi	r24, 0x21	; 33
    25ca:	10 f4       	brcc	.+4      	; 0x25d0 <follow_path+0x192>
    25cc:	04 e0       	ldi	r16, 0x04	; 4
    25ce:	01 c0       	rjmp	.+2      	; 0x25d2 <follow_path+0x194>
    25d0:	00 e0       	ldi	r16, 0x00	; 0
    25d2:	d1 01       	movw	r26, r2
    25d4:	97 96       	adiw	r26, 0x27	; 39
    25d6:	0c 93       	st	X, r16
    25d8:	97 97       	sbiw	r26, 0x27	; 39
static FRESULT dir_find (	/* FR_OK(0):succeeded, !=0:error */
	DIR* dp					/* Pointer to the directory object with the file name */
)
{
	FRESULT res;
	FATFS *fs = dp->obj.fs;
    25da:	ed 90       	ld	r14, X+
    25dc:	fc 90       	ld	r15, X
	BYTE et;
#if FF_USE_LFN
	BYTE attr, ord, sum;
#endif

	res = dir_sdi(dp, 0);			/* Rewind directory object */
    25de:	c1 01       	movw	r24, r2
    25e0:	0e 94 54 11 	call	0x22a8	; 0x22a8 <dir_sdi.clone.5>
    25e4:	18 2f       	mov	r17, r24
	if (res != FR_OK) return res;
    25e6:	88 23       	and	r24, r24
    25e8:	61 f5       	brne	.+88     	; 0x2642 <follow_path+0x204>
	/* On the FAT/FAT32 volume */
#if FF_USE_LFN
	ord = sum = 0xFF; dp->blk_ofs = 0xFFFFFFFF;	/* Reset LFN sequence */
#endif
	do {
		res = move_window(fs, dp->sect);
    25ea:	f1 01       	movw	r30, r2
    25ec:	46 89       	ldd	r20, Z+22	; 0x16
    25ee:	57 89       	ldd	r21, Z+23	; 0x17
    25f0:	60 8d       	ldd	r22, Z+24	; 0x18
    25f2:	71 8d       	ldd	r23, Z+25	; 0x19
    25f4:	c7 01       	movw	r24, r14
    25f6:	0e 94 2a 08 	call	0x1054	; 0x1054 <move_window>
    25fa:	18 2f       	mov	r17, r24
		if (res != FR_OK) break;
    25fc:	88 23       	and	r24, r24
    25fe:	09 f5       	brne	.+66     	; 0x2642 <follow_path+0x204>
		et = dp->dir[DIR_Name];		/* Entry type */
    2600:	d1 01       	movw	r26, r2
    2602:	5a 96       	adiw	r26, 0x1a	; 26
    2604:	ed 91       	ld	r30, X+
    2606:	fc 91       	ld	r31, X
    2608:	5b 97       	sbiw	r26, 0x1b	; 27
		if (et == 0) { res = FR_NO_FILE; break; }	/* Reached end of directory table */
    260a:	80 81       	ld	r24, Z
    260c:	88 23       	and	r24, r24
    260e:	d9 f0       	breq	.+54     	; 0x2646 <follow_path+0x208>
				if (!(dp->fn[NSFLAG] & NS_LOSS) && !memcmp(dp->dir, dp->fn, 11)) break;	/* SFN matched? */
				ord = 0xFF; dp->blk_ofs = 0xFFFFFFFF;	/* Not matched, reset LFN sequence */
			}
		}
#else		/* Non LFN configuration */
		dp->obj.attr = dp->dir[DIR_Attr] & AM_MASK;
    2610:	23 85       	ldd	r18, Z+11	; 0x0b
    2612:	2f 73       	andi	r18, 0x3F	; 63
    2614:	14 96       	adiw	r26, 0x04	; 4
    2616:	2c 93       	st	X, r18
    2618:	14 97       	sbiw	r26, 0x04	; 4
		if (!(dp->dir[DIR_Attr] & AM_VOL) && !memcmp(dp->dir, dp->fn, 11)) break;	/* Is it a valid entry? */
    261a:	83 85       	ldd	r24, Z+11	; 0x0b
    261c:	83 fd       	sbrc	r24, 3
    261e:	0b c0       	rjmp	.+22     	; 0x2636 <follow_path+0x1f8>
    2620:	cf 01       	movw	r24, r30
    2622:	b3 01       	movw	r22, r6
    2624:	4b e0       	ldi	r20, 0x0B	; 11
    2626:	50 e0       	ldi	r21, 0x00	; 0
    2628:	29 83       	std	Y+1, r18	; 0x01
    262a:	0e 94 aa 21 	call	0x4354	; 0x4354 <memcmp>
    262e:	29 81       	ldd	r18, Y+1	; 0x01
    2630:	00 97       	sbiw	r24, 0x00	; 0
    2632:	09 f4       	brne	.+2      	; 0x2636 <follow_path+0x1f8>
    2634:	43 c0       	rjmp	.+134    	; 0x26bc <follow_path+0x27e>
#endif
		res = dir_next(dp, 0);	/* Next entry */
    2636:	c1 01       	movw	r24, r2
    2638:	60 e0       	ldi	r22, 0x00	; 0
    263a:	70 e0       	ldi	r23, 0x00	; 0
    263c:	0e 94 c2 0f 	call	0x1f84	; 0x1f84 <dir_next>
    2640:	d1 cf       	rjmp	.-94     	; 0x25e4 <follow_path+0x1a6>
				continue;		/* Follow next segment */
			}
#endif
			res = dir_find(dp);				/* Find an object with the segment name */
			if (res != FR_OK) {				/* Failed to find the object */
				if (res == FR_NO_FILE) {	/* Object is not found */
    2642:	14 30       	cpi	r17, 0x04	; 4
    2644:	d9 f4       	brne	.+54     	; 0x267c <follow_path+0x23e>
					if (FF_FS_RPATH && (ns & NS_DOT)) {	/* If dot entry is not exist, stay there (may be root dir in FAT volume) */
						if (!(ns & NS_LAST)) continue;	/* Continue to follow if not last segment */
						dp->fn[NSFLAG] = NS_NONAME;
						res = FR_OK;
					} else {							/* Could not find the object */
						if (!(ns & NS_LAST)) res = FR_NO_PATH;	/* Adjust error code if not last segment */
    2646:	00 23       	and	r16, r16
    2648:	b1 f0       	breq	.+44     	; 0x2676 <follow_path+0x238>
    264a:	14 e0       	ldi	r17, 0x04	; 4
    264c:	17 c0       	rjmp	.+46     	; 0x267c <follow_path+0x23e>
				fs->xcwds2.tbl[fs->xcwds2.depth].d_size = ld_32(fs->dirbuf + XDIR_FileSize) | (fs->dirbuf[XDIR_GenFlags] & 2);
			}
#endif
			if (ns & NS_LAST) break;		/* If last segment matched, the function completed */
			/* Get into the sub-directory */
			if (!(dp->obj.attr & AM_DIR)) {
    264e:	24 ff       	sbrs	r18, 4
    2650:	12 c0       	rjmp	.+36     	; 0x2676 <follow_path+0x238>
			if (fs->fs_type == FS_EXFAT) {
				init_alloc_info(&dp->obj, dp);	/* Open next directory */
			} else
#endif
			{
				dp->obj.sclust = ld_clust(fs, fs->win + dp->dptr % SS(fs));	/* Open next directory */
    2652:	f1 01       	movw	r30, r2
    2654:	66 85       	ldd	r22, Z+14	; 0x0e
    2656:	77 85       	ldd	r23, Z+15	; 0x0f
    2658:	71 70       	andi	r23, 0x01	; 1
    265a:	60 5d       	subi	r22, 0xD0	; 208
    265c:	7f 4f       	sbci	r23, 0xFF	; 255
    265e:	68 0d       	add	r22, r8
    2660:	79 1d       	adc	r23, r9
    2662:	d4 01       	movw	r26, r8
    2664:	8c 91       	ld	r24, X
    2666:	0e 94 3c 0d 	call	0x1a78	; 0x1a78 <ld_clust.clone.0>
    266a:	f1 01       	movw	r30, r2
    266c:	66 83       	std	Z+6, r22	; 0x06
    266e:	77 83       	std	Z+7, r23	; 0x07
    2670:	80 87       	std	Z+8, r24	; 0x08
    2672:	91 87       	std	Z+9, r25	; 0x09
			}
		}
    2674:	20 cf       	rjmp	.-448    	; 0x24b6 <follow_path+0x78>
			}
#endif
			if (ns & NS_LAST) break;		/* If last segment matched, the function completed */
			/* Get into the sub-directory */
			if (!(dp->obj.attr & AM_DIR)) {
				res = FR_NO_PATH; break;	/* It is not a sub-directory and cannot follow the path */
    2676:	15 e0       	ldi	r17, 0x05	; 5
    2678:	01 c0       	rjmp	.+2      	; 0x267c <follow_path+0x23e>
			d = (BYTE)p[si++];			/* Get 2nd byte */
			if (!dbc_2nd(d) || i >= ni - 1) return FR_INVALID_NAME;	/* Reject invalid DBC */
			sfn[i++] = c;
			sfn[i++] = d;
		} else {						/* SBC */
			if (strchr("*+,:;<=>[]|\"\?\x7F", (int)c)) return FR_INVALID_NAME;	/* Reject illegal chrs for SFN */
    267a:	16 e0       	ldi	r17, 0x06	; 6
			}
		}
	}

	return res;
}
    267c:	81 2f       	mov	r24, r17
    267e:	0f 90       	pop	r0
    2680:	cf 91       	pop	r28
    2682:	df 91       	pop	r29
    2684:	1f 91       	pop	r17
    2686:	0f 91       	pop	r16
    2688:	ff 90       	pop	r15
    268a:	ef 90       	pop	r14
    268c:	df 90       	pop	r13
    268e:	cf 90       	pop	r12
    2690:	bf 90       	pop	r11
    2692:	af 90       	pop	r10
    2694:	9f 90       	pop	r9
    2696:	8f 90       	pop	r8
    2698:	7f 90       	pop	r7
    269a:	6f 90       	pop	r6
    269c:	5f 90       	pop	r5
    269e:	3f 90       	pop	r3
    26a0:	2f 90       	pop	r2
    26a2:	08 95       	ret
			d = (BYTE)p[si++];			/* Get 2nd byte */
			if (!dbc_2nd(d) || i >= ni - 1) return FR_INVALID_NAME;	/* Reject invalid DBC */
			sfn[i++] = c;
			sfn[i++] = d;
		} else {						/* SBC */
			if (strchr("*+,:;<=>[]|\"\?\x7F", (int)c)) return FR_INVALID_NAME;	/* Reject illegal chrs for SFN */
    26a4:	83 e4       	ldi	r24, 0x43	; 67
    26a6:	91 e0       	ldi	r25, 0x01	; 1
    26a8:	62 2f       	mov	r22, r18
    26aa:	70 e0       	ldi	r23, 0x00	; 0
    26ac:	29 83       	std	Y+1, r18	; 0x01
    26ae:	0e 94 c7 21 	call	0x438e	; 0x438e <strchr>
    26b2:	29 81       	ldd	r18, Y+1	; 0x01
    26b4:	00 97       	sbiw	r24, 0x00	; 0
    26b6:	09 f4       	brne	.+2      	; 0x26ba <follow_path+0x27c>
    26b8:	67 cf       	rjmp	.-306    	; 0x2588 <follow_path+0x14a>
    26ba:	df cf       	rjmp	.-66     	; 0x267a <follow_path+0x23c>
				}
				fs->xcwds2.tbl[fs->xcwds2.depth].d_scl = ld_32(fs->dirbuf + XDIR_FstClus);
				fs->xcwds2.tbl[fs->xcwds2.depth].d_size = ld_32(fs->dirbuf + XDIR_FileSize) | (fs->dirbuf[XDIR_GenFlags] & 2);
			}
#endif
			if (ns & NS_LAST) break;		/* If last segment matched, the function completed */
    26bc:	00 23       	and	r16, r16
    26be:	39 f2       	breq	.-114    	; 0x264e <follow_path+0x210>
    26c0:	dd cf       	rjmp	.-70     	; 0x267c <follow_path+0x23e>

000026c2 <f_mount>:
FRESULT f_mount (
	FATFS* fs,			/* Pointer to the filesystem object to be registered (NULL:unmount)*/
	const TCHAR* path,	/* Logical drive number to be mounted/unmounted */
	BYTE opt			/* Mount option: 0=Do not mount (delayed mount), 1=Mount immediately */
)
{
    26c2:	df 93       	push	r29
    26c4:	cf 93       	push	r28
    26c6:	cd b7       	in	r28, 0x3d	; 61
    26c8:	de b7       	in	r29, 0x3e	; 62
    26ca:	27 97       	sbiw	r28, 0x07	; 7
    26cc:	0f b6       	in	r0, 0x3f	; 63
    26ce:	f8 94       	cli
    26d0:	de bf       	out	0x3e, r29	; 62
    26d2:	0f be       	out	0x3f, r0	; 63
    26d4:	cd bf       	out	0x3d, r28	; 61
    26d6:	9c 83       	std	Y+4, r25	; 0x04
    26d8:	8b 83       	std	Y+3, r24	; 0x03
    26da:	7e 83       	std	Y+6, r23	; 0x06
    26dc:	6d 83       	std	Y+5, r22	; 0x05
	FATFS *cfs;
	int vol;
	FRESULT res;
	const TCHAR *rp = path;
    26de:	7a 83       	std	Y+2, r23	; 0x02
    26e0:	69 83       	std	Y+1, r22	; 0x01


	/* Get volume ID (logical drive number) */
	vol = get_ldnumber(&rp);
    26e2:	ce 01       	movw	r24, r28
    26e4:	01 96       	adiw	r24, 0x01	; 1
    26e6:	4f 83       	std	Y+7, r20	; 0x07
    26e8:	0e 94 29 07 	call	0xe52	; 0xe52 <get_ldnumber>
	if (vol < 0) return FR_INVALID_DRIVE;
    26ec:	4f 81       	ldd	r20, Y+7	; 0x07
    26ee:	97 fd       	sbrc	r25, 7
    26f0:	25 c0       	rjmp	.+74     	; 0x273c <f_mount+0x7a>

	cfs = FatFs[vol];			/* Pointer to the filesystem object of the volume */
    26f2:	fc 01       	movw	r30, r24
    26f4:	ee 0f       	add	r30, r30
    26f6:	ff 1f       	adc	r31, r31
    26f8:	ed 5a       	subi	r30, 0xAD	; 173
    26fa:	fe 4f       	sbci	r31, 0xFE	; 254
    26fc:	a0 81       	ld	r26, Z
    26fe:	b1 81       	ldd	r27, Z+1	; 0x01
	if (cfs) {					/* Unregister current filesystem object */
    2700:	10 97       	sbiw	r26, 0x00	; 0
    2702:	19 f0       	breq	.+6      	; 0x270a <f_mount+0x48>
		FatFs[vol] = 0;
    2704:	11 82       	std	Z+1, r1	; 0x01
    2706:	10 82       	st	Z, r1
		clear_share(cfs);
#endif
#if FF_FS_REENTRANT				/* Discard mutex of the current volume */
		ff_mutex_delete(vol);
#endif
		cfs->fs_type = 0;		/* Invalidate the filesystem object to be unregistered */
    2708:	1c 92       	st	X, r1
	}

	if (fs) {					/* Register new filesystem object */
    270a:	eb 81       	ldd	r30, Y+3	; 0x03
    270c:	fc 81       	ldd	r31, Y+4	; 0x04
    270e:	30 97       	sbiw	r30, 0x00	; 0
    2710:	51 f0       	breq	.+20     	; 0x2726 <f_mount+0x64>
		fs->pdrv = LD2PD(vol);	/* Volume hosting physical drive */
    2712:	81 83       	std	Z+1, r24	; 0x01
			}
			SysLock = 1;		/* System mutex is ready */
		}
#endif
#endif
		fs->fs_type = 0;		/* Invalidate the new filesystem object */
    2714:	10 82       	st	Z, r1
		FatFs[vol] = fs;		/* Register it */
    2716:	dc 01       	movw	r26, r24
    2718:	aa 0f       	add	r26, r26
    271a:	bb 1f       	adc	r27, r27
    271c:	ad 5a       	subi	r26, 0xAD	; 173
    271e:	be 4f       	sbci	r27, 0xFE	; 254
    2720:	11 96       	adiw	r26, 0x01	; 1
    2722:	fc 93       	st	X, r31
    2724:	ee 93       	st	-X, r30
	}

	if (opt == 0) return FR_OK;	/* Do not mount now, it will be mounted in subsequent file functions */
    2726:	44 23       	and	r20, r20
    2728:	59 f0       	breq	.+22     	; 0x2740 <f_mount+0x7e>

	res = mount_volume(&path, &fs, 0);	/* Force mounted the volume in this function */
    272a:	ce 01       	movw	r24, r28
    272c:	05 96       	adiw	r24, 0x05	; 5
    272e:	be 01       	movw	r22, r28
    2730:	6d 5f       	subi	r22, 0xFD	; 253
    2732:	7f 4f       	sbci	r23, 0xFF	; 255
    2734:	40 e0       	ldi	r20, 0x00	; 0
    2736:	0e 94 0b 09 	call	0x1216	; 0x1216 <mount_volume>
	LEAVE_FF(fs, res);
    273a:	03 c0       	rjmp	.+6      	; 0x2742 <f_mount+0x80>
	const TCHAR *rp = path;


	/* Get volume ID (logical drive number) */
	vol = get_ldnumber(&rp);
	if (vol < 0) return FR_INVALID_DRIVE;
    273c:	8b e0       	ldi	r24, 0x0B	; 11
    273e:	01 c0       	rjmp	.+2      	; 0x2742 <f_mount+0x80>
#endif
		fs->fs_type = 0;		/* Invalidate the new filesystem object */
		FatFs[vol] = fs;		/* Register it */
	}

	if (opt == 0) return FR_OK;	/* Do not mount now, it will be mounted in subsequent file functions */
    2740:	80 e0       	ldi	r24, 0x00	; 0

	res = mount_volume(&path, &fs, 0);	/* Force mounted the volume in this function */
	LEAVE_FF(fs, res);
}
    2742:	27 96       	adiw	r28, 0x07	; 7
    2744:	0f b6       	in	r0, 0x3f	; 63
    2746:	f8 94       	cli
    2748:	de bf       	out	0x3e, r29	; 62
    274a:	0f be       	out	0x3f, r0	; 63
    274c:	cd bf       	out	0x3d, r28	; 61
    274e:	cf 91       	pop	r28
    2750:	df 91       	pop	r29
    2752:	08 95       	ret

00002754 <f_open>:
FRESULT f_open (
	FIL* fp,			/* Pointer to the blank file object */
	const TCHAR* path,	/* Pointer to the file name */
	BYTE mode			/* Access mode and open mode flags */
)
{
    2754:	5f 92       	push	r5
    2756:	6f 92       	push	r6
    2758:	7f 92       	push	r7
    275a:	8f 92       	push	r8
    275c:	9f 92       	push	r9
    275e:	af 92       	push	r10
    2760:	bf 92       	push	r11
    2762:	cf 92       	push	r12
    2764:	df 92       	push	r13
    2766:	ef 92       	push	r14
    2768:	ff 92       	push	r15
    276a:	0f 93       	push	r16
    276c:	1f 93       	push	r17
    276e:	df 93       	push	r29
    2770:	cf 93       	push	r28
    2772:	cd b7       	in	r28, 0x3d	; 61
    2774:	de b7       	in	r29, 0x3e	; 62
    2776:	e2 97       	sbiw	r28, 0x32	; 50
    2778:	0f b6       	in	r0, 0x3f	; 63
    277a:	f8 94       	cli
    277c:	de bf       	out	0x3e, r29	; 62
    277e:	0f be       	out	0x3f, r0	; 63
    2780:	cd bf       	out	0x3d, r28	; 61
    2782:	7c 01       	movw	r14, r24
    2784:	7c a7       	std	Y+44, r23	; 0x2c
    2786:	6b a7       	std	Y+43, r22	; 0x2b
	DIR dj;
	FATFS *fs;
	DEF_NAMEBUFF


	if (!fp) return FR_INVALID_OBJECT;	/* Reject null pointer */
    2788:	00 97       	sbiw	r24, 0x00	; 0
    278a:	09 f4       	brne	.+2      	; 0x278e <f_open+0x3a>
    278c:	98 c1       	rjmp	.+816    	; 0x2abe <f_open+0x36a>

	/* Get logical drive number and mount the volume if needed */
	mode &= FF_FS_READONLY ? FA_READ : FA_READ | FA_WRITE | FA_CREATE_ALWAYS | FA_CREATE_NEW | FA_OPEN_ALWAYS | FA_OPEN_APPEND;
    278e:	af e3       	ldi	r26, 0x3F	; 63
    2790:	da 2e       	mov	r13, r26
    2792:	d4 22       	and	r13, r20
	res = mount_volume(&path, &fs, mode);
    2794:	ce 01       	movw	r24, r28
    2796:	8b 96       	adiw	r24, 0x2b	; 43
    2798:	be 01       	movw	r22, r28
    279a:	6f 5f       	subi	r22, 0xFF	; 255
    279c:	7f 4f       	sbci	r23, 0xFF	; 255
    279e:	4d 2d       	mov	r20, r13
    27a0:	0e 94 0b 09 	call	0x1216	; 0x1216 <mount_volume>
    27a4:	58 2e       	mov	r5, r24

	if (res == FR_OK) {
    27a6:	88 23       	and	r24, r24
    27a8:	09 f0       	breq	.+2      	; 0x27ac <f_open+0x58>
    27aa:	85 c1       	rjmp	.+778    	; 0x2ab6 <f_open+0x362>
		fp->obj.fs = fs;
    27ac:	89 81       	ldd	r24, Y+1	; 0x01
    27ae:	9a 81       	ldd	r25, Y+2	; 0x02
    27b0:	d7 01       	movw	r26, r14
    27b2:	8d 93       	st	X+, r24
    27b4:	9c 93       	st	X, r25
		dj.obj.fs = fs;
    27b6:	9c 83       	std	Y+4, r25	; 0x04
    27b8:	8b 83       	std	Y+3, r24	; 0x03
		INIT_NAMEBUFF(fs);
		res = follow_path(&dj, path);	/* Follow the file path */
    27ba:	6b a5       	ldd	r22, Y+43	; 0x2b
    27bc:	7c a5       	ldd	r23, Y+44	; 0x2c
    27be:	ce 01       	movw	r24, r28
    27c0:	03 96       	adiw	r24, 0x03	; 3
    27c2:	0e 94 1f 12 	call	0x243e	; 0x243e <follow_path>
#if !FF_FS_READONLY	/* Read/Write configuration */
		if (res == FR_OK) {
    27c6:	88 23       	and	r24, r24
    27c8:	19 f4       	brne	.+6      	; 0x27d0 <f_open+0x7c>
			if (dj.fn[NSFLAG] & NS_NONAME) {	/* Origin directory itself? */
    27ca:	9a a5       	ldd	r25, Y+42	; 0x2a
    27cc:	97 fd       	sbrc	r25, 7
				res = FR_INVALID_NAME;
    27ce:	86 e0       	ldi	r24, 0x06	; 6
				res = chk_share(&dj, (mode & ~FA_READ) ? 1 : 0);	/* Check if the file can be used */
			}
#endif
		}
		/* Create or Open a file */
		if (mode & (FA_CREATE_ALWAYS | FA_OPEN_ALWAYS | FA_CREATE_NEW)) {
    27d0:	2d 2d       	mov	r18, r13
    27d2:	30 e0       	ldi	r19, 0x00	; 0
    27d4:	a9 01       	movw	r20, r18
    27d6:	4c 71       	andi	r20, 0x1C	; 28
    27d8:	50 70       	andi	r21, 0x00	; 0
    27da:	41 15       	cp	r20, r1
    27dc:	51 05       	cpc	r21, r1
    27de:	09 f4       	brne	.+2      	; 0x27e2 <f_open+0x8e>
    27e0:	7a c0       	rjmp	.+244    	; 0x28d6 <f_open+0x182>
			if (res != FR_OK) {					/* No file, create new */
    27e2:	88 23       	and	r24, r24
    27e4:	69 f0       	breq	.+26     	; 0x2800 <f_open+0xac>
				if (res == FR_NO_FILE) {		/* There is no file to open, create a new entry */
    27e6:	84 30       	cpi	r24, 0x04	; 4
    27e8:	09 f0       	breq	.+2      	; 0x27ec <f_open+0x98>
    27ea:	ce c0       	rjmp	.+412    	; 0x2988 <f_open+0x234>
#if FF_FS_LOCK
					res = enq_share() ? dir_register(&dj) : FR_TOO_MANY_OPEN_FILES;
#else
					res = dir_register(&dj);
    27ec:	ce 01       	movw	r24, r28
    27ee:	03 96       	adiw	r24, 0x03	; 3
    27f0:	0e 94 d6 11 	call	0x23ac	; 0x23ac <dir_register>
					res = FR_EXIST;				/* Cannot create as new file */
				} else {
					if (dj.obj.attr & (AM_RDO | AM_DIR)) res = FR_DENIED;	/* Cannot overwrite it (R/O or DIR) */
				}
			}
			if (res == FR_OK && (mode & FA_CREATE_ALWAYS)) {	/* Truncate the file if overwrite mode */
    27f4:	88 23       	and	r24, r24
    27f6:	09 f0       	breq	.+2      	; 0x27fa <f_open+0xa6>
    27f8:	c7 c0       	rjmp	.+398    	; 0x2988 <f_open+0x234>
					res = enq_share() ? dir_register(&dj) : FR_TOO_MANY_OPEN_FILES;
#else
					res = dir_register(&dj);
#endif
				}
				mode |= FA_CREATE_ALWAYS;		/* File is created */
    27fa:	b8 e0       	ldi	r27, 0x08	; 8
    27fc:	db 2a       	or	r13, r27
    27fe:	06 c0       	rjmp	.+12     	; 0x280c <f_open+0xb8>
			}
			else {								/* An object with the same name is already existing */
				if (mode & FA_CREATE_NEW) {
    2800:	d2 fc       	sbrc	r13, 2
    2802:	76 c1       	rjmp	.+748    	; 0x2af0 <f_open+0x39c>
					res = FR_EXIST;				/* Cannot create as new file */
				} else {
					if (dj.obj.attr & (AM_RDO | AM_DIR)) res = FR_DENIED;	/* Cannot overwrite it (R/O or DIR) */
    2804:	8f 81       	ldd	r24, Y+7	; 0x07
    2806:	81 71       	andi	r24, 0x11	; 17
    2808:	09 f0       	breq	.+2      	; 0x280c <f_open+0xb8>
    280a:	76 c1       	rjmp	.+748    	; 0x2af8 <f_open+0x3a4>
				}
			}
			if (res == FR_OK && (mode & FA_CREATE_ALWAYS)) {	/* Truncate the file if overwrite mode */
    280c:	d3 fe       	sbrs	r13, 3
    280e:	6d c0       	rjmp	.+218    	; 0x28ea <f_open+0x196>
				DWORD tm = GET_FATTIME();
    2810:	0e 94 b7 06 	call	0xd6e	; 0xd6e <get_fattime>
    2814:	3b 01       	movw	r6, r22
    2816:	4c 01       	movw	r8, r24
				} else
#endif
				{
					DWORD cl;
					/* Set FAT directory entry initial state */
					st_32(dj.dir + DIR_CrtTime, tm);	/* Set created time */
    2818:	8d 8d       	ldd	r24, Y+29	; 0x1d
    281a:	9e 8d       	ldd	r25, Y+30	; 0x1e
    281c:	0e 96       	adiw	r24, 0x0e	; 14
    281e:	b4 01       	movw	r22, r8
    2820:	a3 01       	movw	r20, r6
    2822:	0e 94 f1 06 	call	0xde2	; 0xde2 <st_32>
					st_32(dj.dir + DIR_ModTime, tm);	/* Set modified time (tmp setting) */
    2826:	8d 8d       	ldd	r24, Y+29	; 0x1d
    2828:	9e 8d       	ldd	r25, Y+30	; 0x1e
    282a:	46 96       	adiw	r24, 0x16	; 22
    282c:	b4 01       	movw	r22, r8
    282e:	a3 01       	movw	r20, r6
    2830:	0e 94 f1 06 	call	0xde2	; 0xde2 <st_32>
					cl = ld_clust(fs, dj.dir);			/* Get current cluster chain */
    2834:	0d 8d       	ldd	r16, Y+29	; 0x1d
    2836:	1e 8d       	ldd	r17, Y+30	; 0x1e
		}
		FREE_NAMEBUFF();
	}

	LEAVE_FF(fs, res);
}
    2838:	e9 81       	ldd	r30, Y+1	; 0x01
    283a:	fa 81       	ldd	r31, Y+2	; 0x02
				{
					DWORD cl;
					/* Set FAT directory entry initial state */
					st_32(dj.dir + DIR_CrtTime, tm);	/* Set created time */
					st_32(dj.dir + DIR_ModTime, tm);	/* Set modified time (tmp setting) */
					cl = ld_clust(fs, dj.dir);			/* Get current cluster chain */
    283c:	80 81       	ld	r24, Z
    283e:	b8 01       	movw	r22, r16
    2840:	0e 94 3c 0d 	call	0x1a78	; 0x1a78 <ld_clust.clone.0>
    2844:	3b 01       	movw	r6, r22
    2846:	4c 01       	movw	r8, r24
					dj.dir[DIR_Attr] = AM_ARC;			/* Reset attribute */
    2848:	80 e2       	ldi	r24, 0x20	; 32
    284a:	f8 01       	movw	r30, r16
    284c:	83 87       	std	Z+11, r24	; 0x0b
					st_clust(fs, dj.dir, 0);			/* Reset file allocation info */
    284e:	6d 8d       	ldd	r22, Y+29	; 0x1d
    2850:	7e 8d       	ldd	r23, Y+30	; 0x1e
    2852:	89 81       	ldd	r24, Y+1	; 0x01
    2854:	9a 81       	ldd	r25, Y+2	; 0x02
    2856:	20 e0       	ldi	r18, 0x00	; 0
    2858:	30 e0       	ldi	r19, 0x00	; 0
    285a:	a9 01       	movw	r20, r18
    285c:	0e 94 66 0d 	call	0x1acc	; 0x1acc <st_clust.clone.1>
					st_32(dj.dir + DIR_FileSize, 0);
    2860:	8d 8d       	ldd	r24, Y+29	; 0x1d
    2862:	9e 8d       	ldd	r25, Y+30	; 0x1e
    2864:	4c 96       	adiw	r24, 0x1c	; 28
    2866:	40 e0       	ldi	r20, 0x00	; 0
    2868:	50 e0       	ldi	r21, 0x00	; 0
    286a:	ba 01       	movw	r22, r20
    286c:	0e 94 f1 06 	call	0xde2	; 0xde2 <st_32>
					fs->wflag = 1;
    2870:	e9 81       	ldd	r30, Y+1	; 0x01
    2872:	fa 81       	ldd	r31, Y+2	; 0x02
    2874:	81 e0       	ldi	r24, 0x01	; 1
    2876:	84 83       	std	Z+4, r24	; 0x04
					if (cl != 0) {						/* Remove the cluster chain if exist */
    2878:	61 14       	cp	r6, r1
    287a:	71 04       	cpc	r7, r1
    287c:	81 04       	cpc	r8, r1
    287e:	91 04       	cpc	r9, r1
    2880:	a1 f1       	breq	.+104    	; 0x28ea <f_open+0x196>
						LBA_t sc = fs->winsect;
    2882:	84 8d       	ldd	r24, Z+28	; 0x1c
    2884:	95 8d       	ldd	r25, Z+29	; 0x1d
    2886:	a6 8d       	ldd	r26, Z+30	; 0x1e
    2888:	b7 8d       	ldd	r27, Z+31	; 0x1f
    288a:	8d a7       	std	Y+45, r24	; 0x2d
    288c:	9e a7       	std	Y+46, r25	; 0x2e
    288e:	af a7       	std	Y+47, r26	; 0x2f
    2890:	b8 ab       	std	Y+48, r27	; 0x30

						res = remove_chain(&dj.obj, cl, 0);
    2892:	ce 01       	movw	r24, r28
    2894:	03 96       	adiw	r24, 0x03	; 3
    2896:	b4 01       	movw	r22, r8
    2898:	a3 01       	movw	r20, r6
    289a:	00 e0       	ldi	r16, 0x00	; 0
    289c:	10 e0       	ldi	r17, 0x00	; 0
    289e:	98 01       	movw	r18, r16
    28a0:	0e 94 bb 10 	call	0x2176	; 0x2176 <remove_chain.clone.4>
						if (res == FR_OK) {
    28a4:	88 23       	and	r24, r24
    28a6:	09 f0       	breq	.+2      	; 0x28aa <f_open+0x156>
    28a8:	6f c0       	rjmp	.+222    	; 0x2988 <f_open+0x234>
							res = move_window(fs, sc);
    28aa:	89 81       	ldd	r24, Y+1	; 0x01
    28ac:	9a 81       	ldd	r25, Y+2	; 0x02
    28ae:	4d a5       	ldd	r20, Y+45	; 0x2d
    28b0:	5e a5       	ldd	r21, Y+46	; 0x2e
    28b2:	6f a5       	ldd	r22, Y+47	; 0x2f
    28b4:	78 a9       	ldd	r23, Y+48	; 0x30
    28b6:	0e 94 2a 08 	call	0x1054	; 0x1054 <move_window>
							fs->last_clst = cl - 1;		/* Reuse the cluster hole */
    28ba:	e9 81       	ldd	r30, Y+1	; 0x01
    28bc:	fa 81       	ldd	r31, Y+2	; 0x02
    28be:	08 94       	sec
    28c0:	61 08       	sbc	r6, r1
    28c2:	71 08       	sbc	r7, r1
    28c4:	81 08       	sbc	r8, r1
    28c6:	91 08       	sbc	r9, r1
    28c8:	64 86       	std	Z+12, r6	; 0x0c
    28ca:	75 86       	std	Z+13, r7	; 0x0d
    28cc:	86 86       	std	Z+14, r8	; 0x0e
    28ce:	97 86       	std	Z+15, r9	; 0x0f
						res = FR_DENIED;
					}
				}
			}
		}
		if (res == FR_OK) {
    28d0:	88 23       	and	r24, r24
    28d2:	59 f0       	breq	.+22     	; 0x28ea <f_open+0x196>
    28d4:	59 c0       	rjmp	.+178    	; 0x2988 <f_open+0x234>
					}
				}
			}
		}
		else {	/* Open an existing file */
			if (res == FR_OK) {					/* Is the object exsiting? */
    28d6:	88 23       	and	r24, r24
    28d8:	09 f0       	breq	.+2      	; 0x28dc <f_open+0x188>
    28da:	56 c0       	rjmp	.+172    	; 0x2988 <f_open+0x234>
				if (dj.obj.attr & AM_DIR) {		/* File open against a directory */
    28dc:	8f 81       	ldd	r24, Y+7	; 0x07
    28de:	84 fd       	sbrc	r24, 4
    28e0:	09 c1       	rjmp	.+530    	; 0x2af4 <f_open+0x3a0>
					res = FR_NO_FILE;
				} else {
					if ((mode & FA_WRITE) && (dj.obj.attr & AM_RDO)) { /* Write mode open against R/O file */
    28e2:	d1 fe       	sbrs	r13, 1
    28e4:	02 c0       	rjmp	.+4      	; 0x28ea <f_open+0x196>
    28e6:	80 fd       	sbrc	r24, 0
    28e8:	07 c1       	rjmp	.+526    	; 0x2af8 <f_open+0x3a4>
					}
				}
			}
		}
		if (res == FR_OK) {
			if (mode & FA_CREATE_ALWAYS) mode |= FA_MODIFIED;	/* Set file change flag if created or overwritten */
    28ea:	d3 fe       	sbrs	r13, 3
    28ec:	02 c0       	rjmp	.+4      	; 0x28f2 <f_open+0x19e>
    28ee:	90 e4       	ldi	r25, 0x40	; 64
    28f0:	d9 2a       	or	r13, r25
			fp->dir_sect = fs->winsect;			/* Pointer to the directory entry */
    28f2:	a9 80       	ldd	r10, Y+1	; 0x01
    28f4:	ba 80       	ldd	r11, Y+2	; 0x02
    28f6:	f5 01       	movw	r30, r10
    28f8:	84 8d       	ldd	r24, Z+28	; 0x1c
    28fa:	95 8d       	ldd	r25, Z+29	; 0x1d
    28fc:	a6 8d       	ldd	r26, Z+30	; 0x1e
    28fe:	b7 8d       	ldd	r27, Z+31	; 0x1f
    2900:	f7 01       	movw	r30, r14
    2902:	84 8f       	std	Z+28, r24	; 0x1c
    2904:	95 8f       	std	Z+29, r25	; 0x1d
    2906:	a6 8f       	std	Z+30, r26	; 0x1e
    2908:	b7 8f       	std	Z+31, r27	; 0x1f
			fp->dir_ptr = dj.dir;
    290a:	0d 8d       	ldd	r16, Y+29	; 0x1d
    290c:	1e 8d       	ldd	r17, Y+30	; 0x1e
    290e:	11 a3       	std	Z+33, r17	; 0x21
    2910:	00 a3       	std	Z+32, r16	; 0x20
			if (fs->fs_type == FS_EXFAT) {
				init_alloc_info(&fp->obj, &dj);
			} else
#endif
			{
				fp->obj.sclust = ld_clust(fs, dj.dir);					/* Get object allocation info */
    2912:	d5 01       	movw	r26, r10
    2914:	8c 91       	ld	r24, X
    2916:	b8 01       	movw	r22, r16
    2918:	0e 94 3c 0d 	call	0x1a78	; 0x1a78 <ld_clust.clone.0>
    291c:	f7 01       	movw	r30, r14
    291e:	66 83       	std	Z+6, r22	; 0x06
    2920:	77 83       	std	Z+7, r23	; 0x07
    2922:	80 87       	std	Z+8, r24	; 0x08
    2924:	91 87       	std	Z+9, r25	; 0x09
				fp->obj.objsize = ld_32(dj.dir + DIR_FileSize);
    2926:	c8 01       	movw	r24, r16
    2928:	4c 96       	adiw	r24, 0x1c	; 28
    292a:	0e 94 c5 06 	call	0xd8a	; 0xd8a <ld_32>
    292e:	d7 01       	movw	r26, r14
    2930:	1a 96       	adiw	r26, 0x0a	; 10
    2932:	6d 93       	st	X+, r22
    2934:	7d 93       	st	X+, r23
    2936:	8d 93       	st	X+, r24
    2938:	9c 93       	st	X, r25
    293a:	1d 97       	sbiw	r26, 0x0d	; 13
			}
#if FF_USE_FASTSEEK
			fp->cltbl = 0;		/* Disable fast seek mode */
#endif
			fp->obj.id = fs->id;	/* Set current volume mount ID */
    293c:	f5 01       	movw	r30, r10
    293e:	86 81       	ldd	r24, Z+6	; 0x06
    2940:	97 81       	ldd	r25, Z+7	; 0x07
    2942:	13 96       	adiw	r26, 0x03	; 3
    2944:	9c 93       	st	X, r25
    2946:	8e 93       	st	-X, r24
    2948:	12 97       	sbiw	r26, 0x02	; 2
			fp->flag = mode;	/* Set file access mode */
    294a:	1e 96       	adiw	r26, 0x0e	; 14
    294c:	dc 92       	st	X, r13
    294e:	1e 97       	sbiw	r26, 0x0e	; 14
			fp->err = 0;		/* Clear error flag */
    2950:	1f 96       	adiw	r26, 0x0f	; 15
    2952:	1c 92       	st	X, r1
    2954:	1f 97       	sbiw	r26, 0x0f	; 15
			fp->sect = 0;		/* Invalidate current data sector */
    2956:	58 96       	adiw	r26, 0x18	; 24
    2958:	1d 92       	st	X+, r1
    295a:	1d 92       	st	X+, r1
    295c:	1d 92       	st	X+, r1
    295e:	1c 92       	st	X, r1
    2960:	5b 97       	sbiw	r26, 0x1b	; 27
			fp->fptr = 0;		/* Set file pointer top of the file */
    2962:	f7 01       	movw	r30, r14
    2964:	10 8a       	std	Z+16, r1	; 0x10
    2966:	11 8a       	std	Z+17, r1	; 0x11
    2968:	12 8a       	std	Z+18, r1	; 0x12
    296a:	13 8a       	std	Z+19, r1	; 0x13
#if !FF_FS_READONLY
#if !FF_FS_TINY
			memset(fp->buf, 0, sizeof fp->buf);	/* Clear sector buffer */
    296c:	c7 01       	movw	r24, r14
    296e:	82 96       	adiw	r24, 0x22	; 34
    2970:	fc 01       	movw	r30, r24
    2972:	80 e0       	ldi	r24, 0x00	; 0
    2974:	92 e0       	ldi	r25, 0x02	; 2
    2976:	df 01       	movw	r26, r30
    2978:	9c 01       	movw	r18, r24
    297a:	1d 92       	st	X+, r1
    297c:	21 50       	subi	r18, 0x01	; 1
    297e:	30 40       	sbci	r19, 0x00	; 0
    2980:	e1 f7       	brne	.-8      	; 0x297a <f_open+0x226>
#endif
			if ((mode & FA_SEEKEND) && fp->obj.objsize > 0) {	/* Seek to end of file if FA_OPEN_APPEND is specified */
    2982:	d5 fc       	sbrc	r13, 5
    2984:	03 c0       	rjmp	.+6      	; 0x298c <f_open+0x238>
    2986:	9d c0       	rjmp	.+314    	; 0x2ac2 <f_open+0x36e>
				FSIZE_t ofs;

				fp->fptr = fp->obj.objsize;			/* Offset to seek */
				bcs = (DWORD)fs->csize * SS(fs);	/* Cluster size in byte */
				clst = fp->obj.sclust;				/* Follow the cluster chain */
				for (ofs = fp->obj.objsize; res == FR_OK && ofs > bcs; ofs -= bcs) {
    2988:	58 2e       	mov	r5, r24
    298a:	95 c0       	rjmp	.+298    	; 0x2ab6 <f_open+0x362>
			fp->fptr = 0;		/* Set file pointer top of the file */
#if !FF_FS_READONLY
#if !FF_FS_TINY
			memset(fp->buf, 0, sizeof fp->buf);	/* Clear sector buffer */
#endif
			if ((mode & FA_SEEKEND) && fp->obj.objsize > 0) {	/* Seek to end of file if FA_OPEN_APPEND is specified */
    298c:	d7 01       	movw	r26, r14
    298e:	1a 96       	adiw	r26, 0x0a	; 10
    2990:	ad 90       	ld	r10, X+
    2992:	bd 90       	ld	r11, X+
    2994:	cd 90       	ld	r12, X+
    2996:	dc 90       	ld	r13, X
    2998:	1d 97       	sbiw	r26, 0x0d	; 13
    299a:	a1 14       	cp	r10, r1
    299c:	b1 04       	cpc	r11, r1
    299e:	c1 04       	cpc	r12, r1
    29a0:	d1 04       	cpc	r13, r1
    29a2:	09 f4       	brne	.+2      	; 0x29a6 <f_open+0x252>
    29a4:	8e c0       	rjmp	.+284    	; 0x2ac2 <f_open+0x36e>
				DWORD bcs, clst;
				FSIZE_t ofs;

				fp->fptr = fp->obj.objsize;			/* Offset to seek */
    29a6:	f7 01       	movw	r30, r14
    29a8:	a0 8a       	std	Z+16, r10	; 0x10
    29aa:	b1 8a       	std	Z+17, r11	; 0x11
    29ac:	c2 8a       	std	Z+18, r12	; 0x12
    29ae:	d3 8a       	std	Z+19, r13	; 0x13
				bcs = (DWORD)fs->csize * SS(fs);	/* Cluster size in byte */
    29b0:	e9 81       	ldd	r30, Y+1	; 0x01
    29b2:	fa 81       	ldd	r31, Y+2	; 0x02
    29b4:	62 84       	ldd	r6, Z+10	; 0x0a
    29b6:	73 84       	ldd	r7, Z+11	; 0x0b
    29b8:	88 24       	eor	r8, r8
    29ba:	99 24       	eor	r9, r9
    29bc:	f9 e0       	ldi	r31, 0x09	; 9
    29be:	66 0c       	add	r6, r6
    29c0:	77 1c       	adc	r7, r7
    29c2:	88 1c       	adc	r8, r8
    29c4:	99 1c       	adc	r9, r9
    29c6:	fa 95       	dec	r31
    29c8:	d1 f7       	brne	.-12     	; 0x29be <f_open+0x26a>
				clst = fp->obj.sclust;				/* Follow the cluster chain */
    29ca:	16 96       	adiw	r26, 0x06	; 6
    29cc:	4d 91       	ld	r20, X+
    29ce:	5d 91       	ld	r21, X+
    29d0:	6d 91       	ld	r22, X+
    29d2:	7c 91       	ld	r23, X
    29d4:	19 97       	sbiw	r26, 0x09	; 9

/*-----------------------------------------------------------------------*/
/* API: Open or Create a File                                            */
/*-----------------------------------------------------------------------*/

FRESULT f_open (
    29d6:	00 27       	eor	r16, r16
    29d8:	11 27       	eor	r17, r17
    29da:	98 01       	movw	r18, r16
    29dc:	06 19       	sub	r16, r6
    29de:	17 09       	sbc	r17, r7
    29e0:	28 09       	sbc	r18, r8
    29e2:	39 09       	sbc	r19, r9
    29e4:	22 c0       	rjmp	.+68     	; 0x2a2a <f_open+0x2d6>

				fp->fptr = fp->obj.objsize;			/* Offset to seek */
				bcs = (DWORD)fs->csize * SS(fs);	/* Cluster size in byte */
				clst = fp->obj.sclust;				/* Follow the cluster chain */
				for (ofs = fp->obj.objsize; res == FR_OK && ofs > bcs; ofs -= bcs) {
					clst = get_fat(&fp->obj, clst);
    29e6:	f7 01       	movw	r30, r14
    29e8:	80 81       	ld	r24, Z
    29ea:	91 81       	ldd	r25, Z+1	; 0x01
    29ec:	29 ab       	std	Y+49, r18	; 0x31
    29ee:	3a ab       	std	Y+50, r19	; 0x32
    29f0:	0e 94 73 0d 	call	0x1ae6	; 0x1ae6 <get_fat.clone.2>
    29f4:	ab 01       	movw	r20, r22
    29f6:	bc 01       	movw	r22, r24
					if (clst <= 1) res = FR_INT_ERR;
    29f8:	29 a9       	ldd	r18, Y+49	; 0x31
    29fa:	3a a9       	ldd	r19, Y+50	; 0x32
    29fc:	42 30       	cpi	r20, 0x02	; 2
    29fe:	51 05       	cpc	r21, r1
    2a00:	61 05       	cpc	r22, r1
    2a02:	71 05       	cpc	r23, r1
    2a04:	58 f0       	brcs	.+22     	; 0x2a1c <f_open+0x2c8>
					if (clst == 0xFFFFFFFF) res = FR_DISK_ERR;
    2a06:	81 e0       	ldi	r24, 0x01	; 1
    2a08:	4f 3f       	cpi	r20, 0xFF	; 255
    2a0a:	ff ef       	ldi	r31, 0xFF	; 255
    2a0c:	5f 07       	cpc	r21, r31
    2a0e:	ff ef       	ldi	r31, 0xFF	; 255
    2a10:	6f 07       	cpc	r22, r31
    2a12:	ff ef       	ldi	r31, 0xFF	; 255
    2a14:	7f 07       	cpc	r23, r31
    2a16:	19 f0       	breq	.+6      	; 0x2a1e <f_open+0x2ca>
    2a18:	80 e0       	ldi	r24, 0x00	; 0
    2a1a:	01 c0       	rjmp	.+2      	; 0x2a1e <f_open+0x2ca>
				fp->fptr = fp->obj.objsize;			/* Offset to seek */
				bcs = (DWORD)fs->csize * SS(fs);	/* Cluster size in byte */
				clst = fp->obj.sclust;				/* Follow the cluster chain */
				for (ofs = fp->obj.objsize; res == FR_OK && ofs > bcs; ofs -= bcs) {
					clst = get_fat(&fp->obj, clst);
					if (clst <= 1) res = FR_INT_ERR;
    2a1c:	82 e0       	ldi	r24, 0x02	; 2
					if (clst == 0xFFFFFFFF) res = FR_DISK_ERR;
    2a1e:	a0 0e       	add	r10, r16
    2a20:	b1 1e       	adc	r11, r17
    2a22:	c2 1e       	adc	r12, r18
    2a24:	d3 1e       	adc	r13, r19
				FSIZE_t ofs;

				fp->fptr = fp->obj.objsize;			/* Offset to seek */
				bcs = (DWORD)fs->csize * SS(fs);	/* Cluster size in byte */
				clst = fp->obj.sclust;				/* Follow the cluster chain */
				for (ofs = fp->obj.objsize; res == FR_OK && ofs > bcs; ofs -= bcs) {
    2a26:	88 23       	and	r24, r24
    2a28:	31 f4       	brne	.+12     	; 0x2a36 <f_open+0x2e2>
    2a2a:	6a 14       	cp	r6, r10
    2a2c:	7b 04       	cpc	r7, r11
    2a2e:	8c 04       	cpc	r8, r12
    2a30:	9d 04       	cpc	r9, r13
    2a32:	c8 f2       	brcs	.-78     	; 0x29e6 <f_open+0x292>
    2a34:	01 c0       	rjmp	.+2      	; 0x2a38 <f_open+0x2e4>
    2a36:	58 2e       	mov	r5, r24
					clst = get_fat(&fp->obj, clst);
					if (clst <= 1) res = FR_INT_ERR;
					if (clst == 0xFFFFFFFF) res = FR_DISK_ERR;
				}
				fp->clust = clst;
    2a38:	d7 01       	movw	r26, r14
    2a3a:	54 96       	adiw	r26, 0x14	; 20
    2a3c:	4d 93       	st	X+, r20
    2a3e:	5d 93       	st	X+, r21
    2a40:	6d 93       	st	X+, r22
    2a42:	7c 93       	st	X, r23
    2a44:	57 97       	sbiw	r26, 0x17	; 23
				if (res == FR_OK && ofs % SS(fs)) {	/* Fill sector buffer if not on the sector boundary */
    2a46:	55 20       	and	r5, r5
    2a48:	b1 f5       	brne	.+108    	; 0x2ab6 <f_open+0x362>
    2a4a:	d6 01       	movw	r26, r12
    2a4c:	c5 01       	movw	r24, r10
    2a4e:	91 70       	andi	r25, 0x01	; 1
    2a50:	a0 70       	andi	r26, 0x00	; 0
    2a52:	b0 70       	andi	r27, 0x00	; 0
    2a54:	00 97       	sbiw	r24, 0x00	; 0
    2a56:	a1 05       	cpc	r26, r1
    2a58:	b1 05       	cpc	r27, r1
    2a5a:	99 f1       	breq	.+102    	; 0x2ac2 <f_open+0x36e>
					LBA_t sec = clst2sect(fs, clst);
    2a5c:	09 81       	ldd	r16, Y+1	; 0x01
    2a5e:	1a 81       	ldd	r17, Y+2	; 0x02
    2a60:	c8 01       	movw	r24, r16
    2a62:	0e 94 fa 06 	call	0xdf4	; 0xdf4 <clst2sect>

					if (sec == 0) {
    2a66:	61 15       	cp	r22, r1
    2a68:	71 05       	cpc	r23, r1
    2a6a:	81 05       	cpc	r24, r1
    2a6c:	91 05       	cpc	r25, r1
    2a6e:	09 f1       	breq	.+66     	; 0x2ab2 <f_open+0x35e>
						res = FR_INT_ERR;
					} else {
						fp->sect = sec + (DWORD)(ofs / SS(fs));
    2a70:	a6 01       	movw	r20, r12
    2a72:	95 01       	movw	r18, r10
    2a74:	e9 e0       	ldi	r30, 0x09	; 9
    2a76:	56 95       	lsr	r21
    2a78:	47 95       	ror	r20
    2a7a:	37 95       	ror	r19
    2a7c:	27 95       	ror	r18
    2a7e:	ea 95       	dec	r30
    2a80:	d1 f7       	brne	.-12     	; 0x2a76 <f_open+0x322>
    2a82:	26 0f       	add	r18, r22
    2a84:	37 1f       	adc	r19, r23
    2a86:	48 1f       	adc	r20, r24
    2a88:	59 1f       	adc	r21, r25
    2a8a:	f7 01       	movw	r30, r14
    2a8c:	20 8f       	std	Z+24, r18	; 0x18
    2a8e:	31 8f       	std	Z+25, r19	; 0x19
    2a90:	42 8f       	std	Z+26, r20	; 0x1a
    2a92:	53 8f       	std	Z+27, r21	; 0x1b
#if !FF_FS_TINY
						if (disk_read(fs->pdrv, fp->buf, fp->sect, 1) != RES_OK) res = FR_DISK_ERR;
    2a94:	b7 01       	movw	r22, r14
    2a96:	6e 5d       	subi	r22, 0xDE	; 222
    2a98:	7f 4f       	sbci	r23, 0xFF	; 255
    2a9a:	d8 01       	movw	r26, r16
    2a9c:	11 96       	adiw	r26, 0x01	; 1
    2a9e:	8c 91       	ld	r24, X
    2aa0:	01 e0       	ldi	r16, 0x01	; 1
    2aa2:	10 e0       	ldi	r17, 0x00	; 0
    2aa4:	0e 94 07 06 	call	0xc0e	; 0xc0e <disk_read>
    2aa8:	88 23       	and	r24, r24
    2aaa:	59 f0       	breq	.+22     	; 0x2ac2 <f_open+0x36e>
    2aac:	55 24       	eor	r5, r5
    2aae:	53 94       	inc	r5
    2ab0:	02 c0       	rjmp	.+4      	; 0x2ab6 <f_open+0x362>
				fp->clust = clst;
				if (res == FR_OK && ofs % SS(fs)) {	/* Fill sector buffer if not on the sector boundary */
					LBA_t sec = clst2sect(fs, clst);

					if (sec == 0) {
						res = FR_INT_ERR;
    2ab2:	42 e0       	ldi	r20, 0x02	; 2
    2ab4:	54 2e       	mov	r5, r20
		}

		FREE_NAMEBUFF();
	}

	if (res != FR_OK) fp->obj.fs = 0;	/* Invalidate file object on error */
    2ab6:	f7 01       	movw	r30, r14
    2ab8:	11 82       	std	Z+1, r1	; 0x01
    2aba:	10 82       	st	Z, r1
    2abc:	02 c0       	rjmp	.+4      	; 0x2ac2 <f_open+0x36e>
	DIR dj;
	FATFS *fs;
	DEF_NAMEBUFF


	if (!fp) return FR_INVALID_OBJECT;	/* Reject null pointer */
    2abe:	39 e0       	ldi	r19, 0x09	; 9
    2ac0:	53 2e       	mov	r5, r19
	}

	if (res != FR_OK) fp->obj.fs = 0;	/* Invalidate file object on error */

	LEAVE_FF(fs, res);
}
    2ac2:	85 2d       	mov	r24, r5
    2ac4:	e2 96       	adiw	r28, 0x32	; 50
    2ac6:	0f b6       	in	r0, 0x3f	; 63
    2ac8:	f8 94       	cli
    2aca:	de bf       	out	0x3e, r29	; 62
    2acc:	0f be       	out	0x3f, r0	; 63
    2ace:	cd bf       	out	0x3d, r28	; 61
    2ad0:	cf 91       	pop	r28
    2ad2:	df 91       	pop	r29
    2ad4:	1f 91       	pop	r17
    2ad6:	0f 91       	pop	r16
    2ad8:	ff 90       	pop	r15
    2ada:	ef 90       	pop	r14
    2adc:	df 90       	pop	r13
    2ade:	cf 90       	pop	r12
    2ae0:	bf 90       	pop	r11
    2ae2:	af 90       	pop	r10
    2ae4:	9f 90       	pop	r9
    2ae6:	8f 90       	pop	r8
    2ae8:	7f 90       	pop	r7
    2aea:	6f 90       	pop	r6
    2aec:	5f 90       	pop	r5
    2aee:	08 95       	ret
				}
				mode |= FA_CREATE_ALWAYS;		/* File is created */
			}
			else {								/* An object with the same name is already existing */
				if (mode & FA_CREATE_NEW) {
					res = FR_EXIST;				/* Cannot create as new file */
    2af0:	88 e0       	ldi	r24, 0x08	; 8
    2af2:	4a cf       	rjmp	.-364    	; 0x2988 <f_open+0x234>
			}
		}
		else {	/* Open an existing file */
			if (res == FR_OK) {					/* Is the object exsiting? */
				if (dj.obj.attr & AM_DIR) {		/* File open against a directory */
					res = FR_NO_FILE;
    2af4:	84 e0       	ldi	r24, 0x04	; 4
    2af6:	48 cf       	rjmp	.-368    	; 0x2988 <f_open+0x234>
				} else {
					if ((mode & FA_WRITE) && (dj.obj.attr & AM_RDO)) { /* Write mode open against R/O file */
						res = FR_DENIED;
    2af8:	87 e0       	ldi	r24, 0x07	; 7
    2afa:	46 cf       	rjmp	.-372    	; 0x2988 <f_open+0x234>

00002afc <f_read>:
	FIL* fp, 	/* Open file to be read */
	void* buff,	/* Data buffer to store the read data */
	UINT btr,	/* Number of bytes to read */
	UINT* br	/* Number of bytes read */
)
{
    2afc:	2f 92       	push	r2
    2afe:	3f 92       	push	r3
    2b00:	4f 92       	push	r4
    2b02:	5f 92       	push	r5
    2b04:	6f 92       	push	r6
    2b06:	7f 92       	push	r7
    2b08:	8f 92       	push	r8
    2b0a:	9f 92       	push	r9
    2b0c:	af 92       	push	r10
    2b0e:	bf 92       	push	r11
    2b10:	df 92       	push	r13
    2b12:	ef 92       	push	r14
    2b14:	ff 92       	push	r15
    2b16:	0f 93       	push	r16
    2b18:	1f 93       	push	r17
    2b1a:	df 93       	push	r29
    2b1c:	cf 93       	push	r28
    2b1e:	cd b7       	in	r28, 0x3d	; 61
    2b20:	de b7       	in	r29, 0x3e	; 62
    2b22:	28 97       	sbiw	r28, 0x08	; 8
    2b24:	0f b6       	in	r0, 0x3f	; 63
    2b26:	f8 94       	cli
    2b28:	de bf       	out	0x3e, r29	; 62
    2b2a:	0f be       	out	0x3f, r0	; 63
    2b2c:	cd bf       	out	0x3d, r28	; 61
    2b2e:	7c 01       	movw	r14, r24
    2b30:	06 2f       	mov	r16, r22
    2b32:	a7 2e       	mov	r10, r23
    2b34:	2a 01       	movw	r4, r20
    2b36:	38 87       	std	Y+8, r19	; 0x08
    2b38:	2f 83       	std	Y+7, r18	; 0x07
	FSIZE_t remain;
	UINT rcnt, cc, csect;
	BYTE *rbuff = (BYTE*)buff;


	*br = 0;	/* Clear read byte counter */
    2b3a:	f9 01       	movw	r30, r18
    2b3c:	11 82       	std	Z+1, r1	; 0x01
    2b3e:	10 82       	st	Z, r1
	res = validate(&fp->obj, &fs);				/* Check validity of the file object */
    2b40:	be 01       	movw	r22, r28
    2b42:	6f 5f       	subi	r22, 0xFF	; 255
    2b44:	7f 4f       	sbci	r23, 0xFF	; 255
    2b46:	0e 94 4e 07 	call	0xe9c	; 0xe9c <validate>
    2b4a:	d8 2e       	mov	r13, r24
	if (res != FR_OK || (res = (FRESULT)fp->err) != FR_OK) LEAVE_FF(fs, res);	/* Check validity */
    2b4c:	88 23       	and	r24, r24
    2b4e:	09 f0       	breq	.+2      	; 0x2b52 <f_read+0x56>
    2b50:	4a c1       	rjmp	.+660    	; 0x2de6 <f_read+0x2ea>
    2b52:	f7 01       	movw	r30, r14
    2b54:	d7 84       	ldd	r13, Z+15	; 0x0f
    2b56:	dd 20       	and	r13, r13
    2b58:	09 f0       	breq	.+2      	; 0x2b5c <f_read+0x60>
    2b5a:	45 c1       	rjmp	.+650    	; 0x2de6 <f_read+0x2ea>
	if (!(fp->flag & FA_READ)) LEAVE_FF(fs, FR_DENIED); /* Check access mode */
    2b5c:	86 85       	ldd	r24, Z+14	; 0x0e
    2b5e:	80 ff       	sbrs	r24, 0
    2b60:	40 c1       	rjmp	.+640    	; 0x2de2 <f_read+0x2e6>
	remain = fp->obj.objsize - fp->fptr;
    2b62:	82 85       	ldd	r24, Z+10	; 0x0a
    2b64:	93 85       	ldd	r25, Z+11	; 0x0b
    2b66:	a4 85       	ldd	r26, Z+12	; 0x0c
    2b68:	b5 85       	ldd	r27, Z+13	; 0x0d
    2b6a:	20 89       	ldd	r18, Z+16	; 0x10
    2b6c:	31 89       	ldd	r19, Z+17	; 0x11
    2b6e:	42 89       	ldd	r20, Z+18	; 0x12
    2b70:	53 89       	ldd	r21, Z+19	; 0x13
    2b72:	82 1b       	sub	r24, r18
    2b74:	93 0b       	sbc	r25, r19
    2b76:	a4 0b       	sbc	r26, r20
    2b78:	b5 0b       	sbc	r27, r21
	if (btr > remain) btr = (UINT)remain;		/* Truncate btr by remaining bytes */
    2b7a:	92 01       	movw	r18, r4
    2b7c:	40 e0       	ldi	r20, 0x00	; 0
    2b7e:	50 e0       	ldi	r21, 0x00	; 0
    2b80:	82 17       	cp	r24, r18
    2b82:	93 07       	cpc	r25, r19
    2b84:	a4 07       	cpc	r26, r20
    2b86:	b5 07       	cpc	r27, r21
    2b88:	08 f4       	brcc	.+2      	; 0x2b8c <f_read+0x90>
    2b8a:	2c 01       	movw	r4, r24
	FRESULT res;
	FATFS *fs;
	LBA_t sect;
	FSIZE_t remain;
	UINT rcnt, cc, csect;
	BYTE *rbuff = (BYTE*)buff;
    2b8c:	80 2f       	mov	r24, r16
    2b8e:	9a 2d       	mov	r25, r10
    2b90:	9c 83       	std	Y+4, r25	; 0x04
    2b92:	8b 83       	std	Y+3, r24	; 0x03
		if (rcnt > btr) rcnt = btr;					/* Clip it by btr if needed */
#if FF_FS_TINY
		if (move_window(fs, fp->sect) != FR_OK) ABORT(fs, FR_DISK_ERR);	/* Move sector window */
		memcpy(rbuff, fs->win + fp->fptr % SS(fs), rcnt);	/* Extract partial sector */
#else
		memcpy(rbuff, fp->buf + fp->fptr % SS(fs), rcnt);	/* Extract partial sector */
    2b94:	b7 01       	movw	r22, r14
    2b96:	6e 5d       	subi	r22, 0xDE	; 222
    2b98:	7f 4f       	sbci	r23, 0xFF	; 255
    2b9a:	7e 83       	std	Y+6, r23	; 0x06
    2b9c:	6d 83       	std	Y+5, r22	; 0x05
    2b9e:	1c c1       	rjmp	.+568    	; 0x2dd8 <f_read+0x2dc>
	if (!(fp->flag & FA_READ)) LEAVE_FF(fs, FR_DENIED); /* Check access mode */
	remain = fp->obj.objsize - fp->fptr;
	if (btr > remain) btr = (UINT)remain;		/* Truncate btr by remaining bytes */

	for ( ; btr > 0; btr -= rcnt, *br += rcnt, rbuff += rcnt, fp->fptr += rcnt) {	/* Repeat until btr bytes read */
		if (fp->fptr % SS(fs) == 0) {			/* On the sector boundary? */
    2ba0:	f7 01       	movw	r30, r14
    2ba2:	80 89       	ldd	r24, Z+16	; 0x10
    2ba4:	91 89       	ldd	r25, Z+17	; 0x11
    2ba6:	a2 89       	ldd	r26, Z+18	; 0x12
    2ba8:	b3 89       	ldd	r27, Z+19	; 0x13
    2baa:	9c 01       	movw	r18, r24
    2bac:	ad 01       	movw	r20, r26
    2bae:	31 70       	andi	r19, 0x01	; 1
    2bb0:	40 70       	andi	r20, 0x00	; 0
    2bb2:	50 70       	andi	r21, 0x00	; 0
    2bb4:	21 15       	cp	r18, r1
    2bb6:	31 05       	cpc	r19, r1
    2bb8:	41 05       	cpc	r20, r1
    2bba:	51 05       	cpc	r21, r1
    2bbc:	09 f0       	breq	.+2      	; 0x2bc0 <f_read+0xc4>
    2bbe:	d2 c0       	rjmp	.+420    	; 0x2d64 <f_read+0x268>
			csect = (UINT)(fp->fptr / SS(fs) & (fs->csize - 1));	/* Sector offset in the cluster */
    2bc0:	9c 01       	movw	r18, r24
    2bc2:	ad 01       	movw	r20, r26
    2bc4:	69 e0       	ldi	r22, 0x09	; 9
    2bc6:	56 95       	lsr	r21
    2bc8:	47 95       	ror	r20
    2bca:	37 95       	ror	r19
    2bcc:	27 95       	ror	r18
    2bce:	6a 95       	dec	r22
    2bd0:	d1 f7       	brne	.-12     	; 0x2bc6 <f_read+0xca>
    2bd2:	e9 81       	ldd	r30, Y+1	; 0x01
    2bd4:	fa 81       	ldd	r31, Y+2	; 0x02
    2bd6:	02 85       	ldd	r16, Z+10	; 0x0a
    2bd8:	13 85       	ldd	r17, Z+11	; 0x0b
    2bda:	01 50       	subi	r16, 0x01	; 1
    2bdc:	10 40       	sbci	r17, 0x00	; 0
    2bde:	02 23       	and	r16, r18
    2be0:	13 23       	and	r17, r19
			if (csect == 0) {					/* On the cluster boundary? */
    2be2:	01 15       	cp	r16, r1
    2be4:	11 05       	cpc	r17, r1
    2be6:	31 f5       	brne	.+76     	; 0x2c34 <f_read+0x138>
				DWORD clst;

				if (fp->fptr == 0) {			/* On the top of the file? */
    2be8:	00 97       	sbiw	r24, 0x00	; 0
    2bea:	a1 05       	cpc	r26, r1
    2bec:	b1 05       	cpc	r27, r1
    2bee:	31 f4       	brne	.+12     	; 0x2bfc <f_read+0x100>
					clst = fp->obj.sclust;		/* Follow cluster chain from the origin */
    2bf0:	f7 01       	movw	r30, r14
    2bf2:	66 81       	ldd	r22, Z+6	; 0x06
    2bf4:	77 81       	ldd	r23, Z+7	; 0x07
    2bf6:	80 85       	ldd	r24, Z+8	; 0x08
    2bf8:	91 85       	ldd	r25, Z+9	; 0x09
    2bfa:	09 c0       	rjmp	.+18     	; 0x2c0e <f_read+0x112>
					if (fp->cltbl) {
						clst = clmt_clust(fp, fp->fptr);	/* Get cluster# from the CLMT */
					} else
#endif
					{
						clst = get_fat(&fp->obj, fp->clust);	/* Follow cluster chain on the FAT */
    2bfc:	f7 01       	movw	r30, r14
    2bfe:	44 89       	ldd	r20, Z+20	; 0x14
    2c00:	55 89       	ldd	r21, Z+21	; 0x15
    2c02:	66 89       	ldd	r22, Z+22	; 0x16
    2c04:	77 89       	ldd	r23, Z+23	; 0x17
    2c06:	80 81       	ld	r24, Z
    2c08:	91 81       	ldd	r25, Z+1	; 0x01
    2c0a:	0e 94 73 0d 	call	0x1ae6	; 0x1ae6 <get_fat.clone.2>
					}
				}
				if (clst < 2) ABORT(fs, FR_INT_ERR);
    2c0e:	62 30       	cpi	r22, 0x02	; 2
    2c10:	71 05       	cpc	r23, r1
    2c12:	81 05       	cpc	r24, r1
    2c14:	91 05       	cpc	r25, r1
    2c16:	e8 f0       	brcs	.+58     	; 0x2c52 <f_read+0x156>
				if (clst == 0xFFFFFFFF) ABORT(fs, FR_DISK_ERR);
    2c18:	6f 3f       	cpi	r22, 0xFF	; 255
    2c1a:	ff ef       	ldi	r31, 0xFF	; 255
    2c1c:	7f 07       	cpc	r23, r31
    2c1e:	ff ef       	ldi	r31, 0xFF	; 255
    2c20:	8f 07       	cpc	r24, r31
    2c22:	ff ef       	ldi	r31, 0xFF	; 255
    2c24:	9f 07       	cpc	r25, r31
    2c26:	09 f4       	brne	.+2      	; 0x2c2a <f_read+0x12e>
    2c28:	92 c0       	rjmp	.+292    	; 0x2d4e <f_read+0x252>
				fp->clust = clst;				/* Update current cluster */
    2c2a:	f7 01       	movw	r30, r14
    2c2c:	64 8b       	std	Z+20, r22	; 0x14
    2c2e:	75 8b       	std	Z+21, r23	; 0x15
    2c30:	86 8b       	std	Z+22, r24	; 0x16
    2c32:	97 8b       	std	Z+23, r25	; 0x17
			}
			sect = clst2sect(fs, fp->clust);	/* Get current sector */
    2c34:	29 80       	ldd	r2, Y+1	; 0x01
    2c36:	3a 80       	ldd	r3, Y+2	; 0x02
    2c38:	f7 01       	movw	r30, r14
    2c3a:	44 89       	ldd	r20, Z+20	; 0x14
    2c3c:	55 89       	ldd	r21, Z+21	; 0x15
    2c3e:	66 89       	ldd	r22, Z+22	; 0x16
    2c40:	77 89       	ldd	r23, Z+23	; 0x17
    2c42:	c1 01       	movw	r24, r2
    2c44:	0e 94 fa 06 	call	0xdf4	; 0xdf4 <clst2sect>
			if (sect == 0) ABORT(fs, FR_INT_ERR);
    2c48:	61 15       	cp	r22, r1
    2c4a:	71 05       	cpc	r23, r1
    2c4c:	81 05       	cpc	r24, r1
    2c4e:	91 05       	cpc	r25, r1
    2c50:	31 f4       	brne	.+12     	; 0x2c5e <f_read+0x162>
    2c52:	82 e0       	ldi	r24, 0x02	; 2
    2c54:	f7 01       	movw	r30, r14
    2c56:	87 87       	std	Z+15, r24	; 0x0f
    2c58:	32 e0       	ldi	r19, 0x02	; 2
    2c5a:	d3 2e       	mov	r13, r19
    2c5c:	c4 c0       	rjmp	.+392    	; 0x2de6 <f_read+0x2ea>
			sect += csect;
    2c5e:	38 01       	movw	r6, r16
    2c60:	88 24       	eor	r8, r8
    2c62:	99 24       	eor	r9, r9
    2c64:	66 0e       	add	r6, r22
    2c66:	77 1e       	adc	r7, r23
    2c68:	88 1e       	adc	r8, r24
    2c6a:	99 1e       	adc	r9, r25
			cc = btr / SS(fs);					/* When remaining bytes >= sector size, */
    2c6c:	52 01       	movw	r10, r4
    2c6e:	ab 2c       	mov	r10, r11
    2c70:	bb 24       	eor	r11, r11
    2c72:	a6 94       	lsr	r10
			if (cc > 0) {						/* Read maximum contiguous sectors directly */
    2c74:	a1 14       	cp	r10, r1
    2c76:	b1 04       	cpc	r11, r1
    2c78:	09 f4       	brne	.+2      	; 0x2c7c <f_read+0x180>
    2c7a:	41 c0       	rjmp	.+130    	; 0x2cfe <f_read+0x202>
				if (csect + cc > fs->csize) {	/* Clip at cluster boundary */
    2c7c:	f1 01       	movw	r30, r2
    2c7e:	22 85       	ldd	r18, Z+10	; 0x0a
    2c80:	33 85       	ldd	r19, Z+11	; 0x0b
    2c82:	c5 01       	movw	r24, r10
    2c84:	80 0f       	add	r24, r16
    2c86:	91 1f       	adc	r25, r17
    2c88:	28 17       	cp	r18, r24
    2c8a:	39 07       	cpc	r19, r25
    2c8c:	18 f4       	brcc	.+6      	; 0x2c94 <f_read+0x198>
					cc = fs->csize - csect;
    2c8e:	59 01       	movw	r10, r18
    2c90:	a0 1a       	sub	r10, r16
    2c92:	b1 0a       	sbc	r11, r17
				}
				if (disk_read(fs->pdrv, rbuff, sect, cc) != RES_OK) ABORT(fs, FR_DISK_ERR);
    2c94:	f1 01       	movw	r30, r2
    2c96:	81 81       	ldd	r24, Z+1	; 0x01
    2c98:	6b 81       	ldd	r22, Y+3	; 0x03
    2c9a:	7c 81       	ldd	r23, Y+4	; 0x04
    2c9c:	a4 01       	movw	r20, r8
    2c9e:	93 01       	movw	r18, r6
    2ca0:	85 01       	movw	r16, r10
    2ca2:	0e 94 07 06 	call	0xc0e	; 0xc0e <disk_read>
    2ca6:	88 23       	and	r24, r24
    2ca8:	09 f0       	breq	.+2      	; 0x2cac <f_read+0x1b0>
    2caa:	51 c0       	rjmp	.+162    	; 0x2d4e <f_read+0x252>
#if FF_FS_TINY
				if (fs->wflag && fs->winsect - sect < cc) {
					memcpy(rbuff + ((fs->winsect - sect) * SS(fs)), fs->win, SS(fs));
				}
#else
				if ((fp->flag & FA_DIRTY) && fp->sect - sect < cc) {
    2cac:	f7 01       	movw	r30, r14
    2cae:	86 85       	ldd	r24, Z+14	; 0x0e
    2cb0:	87 ff       	sbrs	r24, 7
    2cb2:	20 c0       	rjmp	.+64     	; 0x2cf4 <f_read+0x1f8>
    2cb4:	80 8d       	ldd	r24, Z+24	; 0x18
    2cb6:	91 8d       	ldd	r25, Z+25	; 0x19
    2cb8:	a2 8d       	ldd	r26, Z+26	; 0x1a
    2cba:	b3 8d       	ldd	r27, Z+27	; 0x1b
    2cbc:	86 19       	sub	r24, r6
    2cbe:	97 09       	sbc	r25, r7
    2cc0:	a8 09       	sbc	r26, r8
    2cc2:	b9 09       	sbc	r27, r9
    2cc4:	95 01       	movw	r18, r10
    2cc6:	40 e0       	ldi	r20, 0x00	; 0
    2cc8:	50 e0       	ldi	r21, 0x00	; 0
    2cca:	82 17       	cp	r24, r18
    2ccc:	93 07       	cpc	r25, r19
    2cce:	a4 07       	cpc	r26, r20
    2cd0:	b5 07       	cpc	r27, r21
    2cd2:	80 f4       	brcc	.+32     	; 0x2cf4 <f_read+0x1f8>
					memcpy(rbuff + ((fp->sect - sect) * SS(fs)), fp->buf, SS(fs));
    2cd4:	fc 01       	movw	r30, r24
    2cd6:	fe 2f       	mov	r31, r30
    2cd8:	ee 27       	eor	r30, r30
    2cda:	ff 0f       	add	r31, r31
    2cdc:	6b 81       	ldd	r22, Y+3	; 0x03
    2cde:	7c 81       	ldd	r23, Y+4	; 0x04
    2ce0:	e6 0f       	add	r30, r22
    2ce2:	f7 1f       	adc	r31, r23
    2ce4:	ad 81       	ldd	r26, Y+5	; 0x05
    2ce6:	be 81       	ldd	r27, Y+6	; 0x06
    2ce8:	80 e0       	ldi	r24, 0x00	; 0
    2cea:	92 e0       	ldi	r25, 0x02	; 2
    2cec:	0d 90       	ld	r0, X+
    2cee:	01 92       	st	Z+, r0
    2cf0:	01 97       	sbiw	r24, 0x01	; 1
    2cf2:	e1 f7       	brne	.-8      	; 0x2cec <f_read+0x1f0>
				}
#endif
#endif
				rcnt = SS(fs) * cc;				/* Number of bytes transferred */
    2cf4:	85 01       	movw	r16, r10
    2cf6:	10 2f       	mov	r17, r16
    2cf8:	00 27       	eor	r16, r16
    2cfa:	11 0f       	add	r17, r17
				continue;
    2cfc:	4e c0       	rjmp	.+156    	; 0x2d9a <f_read+0x29e>
			}
#if !FF_FS_TINY
			if (fp->sect != sect) {			/* Load data sector if not in cache */
    2cfe:	f7 01       	movw	r30, r14
    2d00:	20 8d       	ldd	r18, Z+24	; 0x18
    2d02:	31 8d       	ldd	r19, Z+25	; 0x19
    2d04:	42 8d       	ldd	r20, Z+26	; 0x1a
    2d06:	53 8d       	ldd	r21, Z+27	; 0x1b
    2d08:	26 15       	cp	r18, r6
    2d0a:	37 05       	cpc	r19, r7
    2d0c:	48 05       	cpc	r20, r8
    2d0e:	59 05       	cpc	r21, r9
    2d10:	21 f1       	breq	.+72     	; 0x2d5a <f_read+0x25e>
#if !FF_FS_READONLY
				if (fp->flag & FA_DIRTY) {		/* Write-back dirty sector cache */
    2d12:	86 85       	ldd	r24, Z+14	; 0x0e
    2d14:	87 ff       	sbrs	r24, 7
    2d16:	0e c0       	rjmp	.+28     	; 0x2d34 <f_read+0x238>
					if (disk_write(fs->pdrv, fp->buf, fp->sect, 1) != RES_OK) ABORT(fs, FR_DISK_ERR);
    2d18:	f1 01       	movw	r30, r2
    2d1a:	81 81       	ldd	r24, Z+1	; 0x01
    2d1c:	6d 81       	ldd	r22, Y+5	; 0x05
    2d1e:	7e 81       	ldd	r23, Y+6	; 0x06
    2d20:	01 e0       	ldi	r16, 0x01	; 1
    2d22:	10 e0       	ldi	r17, 0x00	; 0
    2d24:	0e 94 4d 06 	call	0xc9a	; 0xc9a <disk_write>
    2d28:	88 23       	and	r24, r24
    2d2a:	89 f4       	brne	.+34     	; 0x2d4e <f_read+0x252>
					fp->flag &= (BYTE)~FA_DIRTY;
    2d2c:	f7 01       	movw	r30, r14
    2d2e:	86 85       	ldd	r24, Z+14	; 0x0e
    2d30:	8f 77       	andi	r24, 0x7F	; 127
    2d32:	86 87       	std	Z+14, r24	; 0x0e
				}
#endif
				if (disk_read(fs->pdrv, fp->buf, sect, 1) != RES_OK) ABORT(fs, FR_DISK_ERR);	/* Fill sector cache */
    2d34:	e9 81       	ldd	r30, Y+1	; 0x01
    2d36:	fa 81       	ldd	r31, Y+2	; 0x02
    2d38:	81 81       	ldd	r24, Z+1	; 0x01
    2d3a:	6d 81       	ldd	r22, Y+5	; 0x05
    2d3c:	7e 81       	ldd	r23, Y+6	; 0x06
    2d3e:	a4 01       	movw	r20, r8
    2d40:	93 01       	movw	r18, r6
    2d42:	01 e0       	ldi	r16, 0x01	; 1
    2d44:	10 e0       	ldi	r17, 0x00	; 0
    2d46:	0e 94 07 06 	call	0xc0e	; 0xc0e <disk_read>
    2d4a:	88 23       	and	r24, r24
    2d4c:	31 f0       	breq	.+12     	; 0x2d5a <f_read+0x25e>
    2d4e:	81 e0       	ldi	r24, 0x01	; 1
    2d50:	f7 01       	movw	r30, r14
    2d52:	87 87       	std	Z+15, r24	; 0x0f
    2d54:	dd 24       	eor	r13, r13
    2d56:	d3 94       	inc	r13
    2d58:	46 c0       	rjmp	.+140    	; 0x2de6 <f_read+0x2ea>
			}
#endif
			fp->sect = sect;
    2d5a:	f7 01       	movw	r30, r14
    2d5c:	60 8e       	std	Z+24, r6	; 0x18
    2d5e:	71 8e       	std	Z+25, r7	; 0x19
    2d60:	82 8e       	std	Z+26, r8	; 0x1a
    2d62:	93 8e       	std	Z+27, r9	; 0x1b
		}
		rcnt = SS(fs) - (UINT)fp->fptr % SS(fs);	/* Number of bytes remains in the sector */
    2d64:	f7 01       	movw	r30, r14
    2d66:	20 89       	ldd	r18, Z+16	; 0x10
    2d68:	31 89       	ldd	r19, Z+17	; 0x11
    2d6a:	42 89       	ldd	r20, Z+18	; 0x12
    2d6c:	53 89       	ldd	r21, Z+19	; 0x13
    2d6e:	c9 01       	movw	r24, r18
    2d70:	91 70       	andi	r25, 0x01	; 1
    2d72:	60 e0       	ldi	r22, 0x00	; 0
    2d74:	72 e0       	ldi	r23, 0x02	; 2
    2d76:	68 1b       	sub	r22, r24
    2d78:	79 0b       	sbc	r23, r25
    2d7a:	82 01       	movw	r16, r4
    2d7c:	64 15       	cp	r22, r4
    2d7e:	75 05       	cpc	r23, r5
    2d80:	08 f4       	brcc	.+2      	; 0x2d84 <f_read+0x288>
    2d82:	8b 01       	movw	r16, r22
		if (rcnt > btr) rcnt = btr;					/* Clip it by btr if needed */
#if FF_FS_TINY
		if (move_window(fs, fp->sect) != FR_OK) ABORT(fs, FR_DISK_ERR);	/* Move sector window */
		memcpy(rbuff, fs->win + fp->fptr % SS(fs), rcnt);	/* Extract partial sector */
#else
		memcpy(rbuff, fp->buf + fp->fptr % SS(fs), rcnt);	/* Extract partial sector */
    2d84:	31 70       	andi	r19, 0x01	; 1
    2d86:	8d 81       	ldd	r24, Y+5	; 0x05
    2d88:	9e 81       	ldd	r25, Y+6	; 0x06
    2d8a:	28 0f       	add	r18, r24
    2d8c:	39 1f       	adc	r19, r25
    2d8e:	8b 81       	ldd	r24, Y+3	; 0x03
    2d90:	9c 81       	ldd	r25, Y+4	; 0x04
    2d92:	b9 01       	movw	r22, r18
    2d94:	a8 01       	movw	r20, r16
    2d96:	0e 94 b7 21 	call	0x436e	; 0x436e <memcpy>
	if (res != FR_OK || (res = (FRESULT)fp->err) != FR_OK) LEAVE_FF(fs, res);	/* Check validity */
	if (!(fp->flag & FA_READ)) LEAVE_FF(fs, FR_DENIED); /* Check access mode */
	remain = fp->obj.objsize - fp->fptr;
	if (btr > remain) btr = (UINT)remain;		/* Truncate btr by remaining bytes */

	for ( ; btr > 0; btr -= rcnt, *br += rcnt, rbuff += rcnt, fp->fptr += rcnt) {	/* Repeat until btr bytes read */
    2d9a:	40 1a       	sub	r4, r16
    2d9c:	51 0a       	sbc	r5, r17
    2d9e:	ef 81       	ldd	r30, Y+7	; 0x07
    2da0:	f8 85       	ldd	r31, Y+8	; 0x08
    2da2:	80 81       	ld	r24, Z
    2da4:	91 81       	ldd	r25, Z+1	; 0x01
    2da6:	80 0f       	add	r24, r16
    2da8:	91 1f       	adc	r25, r17
    2daa:	91 83       	std	Z+1, r25	; 0x01
    2dac:	80 83       	st	Z, r24
    2dae:	6b 81       	ldd	r22, Y+3	; 0x03
    2db0:	7c 81       	ldd	r23, Y+4	; 0x04
    2db2:	60 0f       	add	r22, r16
    2db4:	71 1f       	adc	r23, r17
    2db6:	7c 83       	std	Y+4, r23	; 0x04
    2db8:	6b 83       	std	Y+3, r22	; 0x03
    2dba:	20 e0       	ldi	r18, 0x00	; 0
    2dbc:	30 e0       	ldi	r19, 0x00	; 0
    2dbe:	f7 01       	movw	r30, r14
    2dc0:	80 89       	ldd	r24, Z+16	; 0x10
    2dc2:	91 89       	ldd	r25, Z+17	; 0x11
    2dc4:	a2 89       	ldd	r26, Z+18	; 0x12
    2dc6:	b3 89       	ldd	r27, Z+19	; 0x13
    2dc8:	80 0f       	add	r24, r16
    2dca:	91 1f       	adc	r25, r17
    2dcc:	a2 1f       	adc	r26, r18
    2dce:	b3 1f       	adc	r27, r19
    2dd0:	80 8b       	std	Z+16, r24	; 0x10
    2dd2:	91 8b       	std	Z+17, r25	; 0x11
    2dd4:	a2 8b       	std	Z+18, r26	; 0x12
    2dd6:	b3 8b       	std	Z+19, r27	; 0x13
    2dd8:	41 14       	cp	r4, r1
    2dda:	51 04       	cpc	r5, r1
    2ddc:	09 f0       	breq	.+2      	; 0x2de0 <f_read+0x2e4>
    2dde:	e0 ce       	rjmp	.-576    	; 0x2ba0 <f_read+0xa4>
    2de0:	02 c0       	rjmp	.+4      	; 0x2de6 <f_read+0x2ea>


	*br = 0;	/* Clear read byte counter */
	res = validate(&fp->obj, &fs);				/* Check validity of the file object */
	if (res != FR_OK || (res = (FRESULT)fp->err) != FR_OK) LEAVE_FF(fs, res);	/* Check validity */
	if (!(fp->flag & FA_READ)) LEAVE_FF(fs, FR_DENIED); /* Check access mode */
    2de2:	b7 e0       	ldi	r27, 0x07	; 7
    2de4:	db 2e       	mov	r13, r27
		memcpy(rbuff, fp->buf + fp->fptr % SS(fs), rcnt);	/* Extract partial sector */
#endif
	}

	LEAVE_FF(fs, FR_OK);
}
    2de6:	8d 2d       	mov	r24, r13
    2de8:	28 96       	adiw	r28, 0x08	; 8
    2dea:	0f b6       	in	r0, 0x3f	; 63
    2dec:	f8 94       	cli
    2dee:	de bf       	out	0x3e, r29	; 62
    2df0:	0f be       	out	0x3f, r0	; 63
    2df2:	cd bf       	out	0x3d, r28	; 61
    2df4:	cf 91       	pop	r28
    2df6:	df 91       	pop	r29
    2df8:	1f 91       	pop	r17
    2dfa:	0f 91       	pop	r16
    2dfc:	ff 90       	pop	r15
    2dfe:	ef 90       	pop	r14
    2e00:	df 90       	pop	r13
    2e02:	bf 90       	pop	r11
    2e04:	af 90       	pop	r10
    2e06:	9f 90       	pop	r9
    2e08:	8f 90       	pop	r8
    2e0a:	7f 90       	pop	r7
    2e0c:	6f 90       	pop	r6
    2e0e:	5f 90       	pop	r5
    2e10:	4f 90       	pop	r4
    2e12:	3f 90       	pop	r3
    2e14:	2f 90       	pop	r2
    2e16:	08 95       	ret

00002e18 <f_write>:
	FIL* fp,			/* Open file to be written */
	const void* buff,	/* Data to be written */
	UINT btw,			/* Number of bytes to write */
	UINT* bw			/* Number of bytes written */
)
{
    2e18:	2f 92       	push	r2
    2e1a:	3f 92       	push	r3
    2e1c:	4f 92       	push	r4
    2e1e:	5f 92       	push	r5
    2e20:	6f 92       	push	r6
    2e22:	7f 92       	push	r7
    2e24:	8f 92       	push	r8
    2e26:	9f 92       	push	r9
    2e28:	af 92       	push	r10
    2e2a:	bf 92       	push	r11
    2e2c:	df 92       	push	r13
    2e2e:	ef 92       	push	r14
    2e30:	ff 92       	push	r15
    2e32:	0f 93       	push	r16
    2e34:	1f 93       	push	r17
    2e36:	df 93       	push	r29
    2e38:	cf 93       	push	r28
    2e3a:	cd b7       	in	r28, 0x3d	; 61
    2e3c:	de b7       	in	r29, 0x3e	; 62
    2e3e:	28 97       	sbiw	r28, 0x08	; 8
    2e40:	0f b6       	in	r0, 0x3f	; 63
    2e42:	f8 94       	cli
    2e44:	de bf       	out	0x3e, r29	; 62
    2e46:	0f be       	out	0x3f, r0	; 63
    2e48:	cd bf       	out	0x3d, r28	; 61
    2e4a:	7c 01       	movw	r14, r24
    2e4c:	06 2f       	mov	r16, r22
    2e4e:	87 2e       	mov	r8, r23
    2e50:	1a 01       	movw	r2, r20
    2e52:	38 87       	std	Y+8, r19	; 0x08
    2e54:	2f 83       	std	Y+7, r18	; 0x07
	LBA_t sect;
	UINT wcnt, cc, csect;
	const BYTE *wbuff = (const BYTE*)buff;


	*bw = 0;	/* Clear write byte counter */
    2e56:	d9 01       	movw	r26, r18
    2e58:	1d 92       	st	X+, r1
    2e5a:	1c 92       	st	X, r1
	res = validate(&fp->obj, &fs);			/* Check validity of the file object */
    2e5c:	be 01       	movw	r22, r28
    2e5e:	6f 5f       	subi	r22, 0xFF	; 255
    2e60:	7f 4f       	sbci	r23, 0xFF	; 255
    2e62:	0e 94 4e 07 	call	0xe9c	; 0xe9c <validate>
    2e66:	d8 2e       	mov	r13, r24
	if (res != FR_OK || (res = (FRESULT)fp->err) != FR_OK) LEAVE_FF(fs, res);	/* Check validity */
    2e68:	88 23       	and	r24, r24
    2e6a:	09 f0       	breq	.+2      	; 0x2e6e <f_write+0x56>
    2e6c:	b7 c1       	rjmp	.+878    	; 0x31dc <f_write+0x3c4>
    2e6e:	f7 01       	movw	r30, r14
    2e70:	d7 84       	ldd	r13, Z+15	; 0x0f
    2e72:	dd 20       	and	r13, r13
    2e74:	09 f0       	breq	.+2      	; 0x2e78 <f_write+0x60>
    2e76:	b2 c1       	rjmp	.+868    	; 0x31dc <f_write+0x3c4>
	if (!(fp->flag & FA_WRITE)) LEAVE_FF(fs, FR_DENIED);	/* Check access mode */
    2e78:	86 85       	ldd	r24, Z+14	; 0x0e
    2e7a:	81 ff       	sbrs	r24, 1
    2e7c:	ad c1       	rjmp	.+858    	; 0x31d8 <f_write+0x3c0>

	/* Check fptr wrap-around (file size cannot reach 4 GiB at FAT volume) */
	if ((!FF_FS_EXFAT || fs->fs_type != FS_EXFAT) && (DWORD)(fp->fptr + btw) < (DWORD)fp->fptr) {
    2e7e:	80 89       	ldd	r24, Z+16	; 0x10
    2e80:	91 89       	ldd	r25, Z+17	; 0x11
    2e82:	a2 89       	ldd	r26, Z+18	; 0x12
    2e84:	b3 89       	ldd	r27, Z+19	; 0x13
    2e86:	91 01       	movw	r18, r2
    2e88:	40 e0       	ldi	r20, 0x00	; 0
    2e8a:	50 e0       	ldi	r21, 0x00	; 0
    2e8c:	28 0f       	add	r18, r24
    2e8e:	39 1f       	adc	r19, r25
    2e90:	4a 1f       	adc	r20, r26
    2e92:	5b 1f       	adc	r21, r27
    2e94:	28 17       	cp	r18, r24
    2e96:	39 07       	cpc	r19, r25
    2e98:	4a 07       	cpc	r20, r26
    2e9a:	5b 07       	cpc	r21, r27
    2e9c:	18 f4       	brcc	.+6      	; 0x2ea4 <f_write+0x8c>
		btw = (UINT)(0xFFFFFFFF - (DWORD)fp->fptr);
    2e9e:	1c 01       	movw	r2, r24
    2ea0:	20 94       	com	r2
    2ea2:	30 94       	com	r3
	FRESULT res;
	FATFS *fs;
	DWORD clst;
	LBA_t sect;
	UINT wcnt, cc, csect;
	const BYTE *wbuff = (const BYTE*)buff;
    2ea4:	80 2f       	mov	r24, r16
    2ea6:	98 2d       	mov	r25, r8
    2ea8:	9c 83       	std	Y+4, r25	; 0x04
    2eaa:	8b 83       	std	Y+3, r24	; 0x03
#if FF_FS_TINY
		if (move_window(fs, fp->sect) != FR_OK) ABORT(fs, FR_DISK_ERR);	/* Move sector window */
		memcpy(fs->win + fp->fptr % SS(fs), wbuff, wcnt);	/* Fit data to the sector */
		fs->wflag = 1;
#else
		memcpy(fp->buf + fp->fptr % SS(fs), wbuff, wcnt);	/* Fit data to the sector */
    2eac:	a7 01       	movw	r20, r14
    2eae:	4e 5d       	subi	r20, 0xDE	; 222
    2eb0:	5f 4f       	sbci	r21, 0xFF	; 255
    2eb2:	5e 83       	std	Y+6, r21	; 0x06
    2eb4:	4d 83       	std	Y+5, r20	; 0x05
    2eb6:	83 c1       	rjmp	.+774    	; 0x31be <f_write+0x3a6>
	if ((!FF_FS_EXFAT || fs->fs_type != FS_EXFAT) && (DWORD)(fp->fptr + btw) < (DWORD)fp->fptr) {
		btw = (UINT)(0xFFFFFFFF - (DWORD)fp->fptr);
	}

	for ( ; btw > 0; btw -= wcnt, *bw += wcnt, wbuff += wcnt, fp->fptr += wcnt, fp->obj.objsize = (fp->fptr > fp->obj.objsize) ? fp->fptr : fp->obj.objsize) {	/* Repeat until all data written */
		if (fp->fptr % SS(fs) == 0) {		/* On the sector boundary? */
    2eb8:	f7 01       	movw	r30, r14
    2eba:	80 89       	ldd	r24, Z+16	; 0x10
    2ebc:	91 89       	ldd	r25, Z+17	; 0x11
    2ebe:	a2 89       	ldd	r26, Z+18	; 0x12
    2ec0:	b3 89       	ldd	r27, Z+19	; 0x13
    2ec2:	9c 01       	movw	r18, r24
    2ec4:	ad 01       	movw	r20, r26
    2ec6:	31 70       	andi	r19, 0x01	; 1
    2ec8:	40 70       	andi	r20, 0x00	; 0
    2eca:	50 70       	andi	r21, 0x00	; 0
    2ecc:	21 15       	cp	r18, r1
    2ece:	31 05       	cpc	r19, r1
    2ed0:	41 05       	cpc	r20, r1
    2ed2:	51 05       	cpc	r21, r1
    2ed4:	09 f0       	breq	.+2      	; 0x2ed8 <f_write+0xc0>
    2ed6:	1c c1       	rjmp	.+568    	; 0x3110 <f_write+0x2f8>
			csect = (UINT)(fp->fptr / SS(fs)) & (fs->csize - 1);	/* Sector offset in the cluster */
    2ed8:	9c 01       	movw	r18, r24
    2eda:	ad 01       	movw	r20, r26
    2edc:	09 e0       	ldi	r16, 0x09	; 9
    2ede:	56 95       	lsr	r21
    2ee0:	47 95       	ror	r20
    2ee2:	37 95       	ror	r19
    2ee4:	27 95       	ror	r18
    2ee6:	0a 95       	dec	r16
    2ee8:	d1 f7       	brne	.-12     	; 0x2ede <f_write+0xc6>
    2eea:	e9 81       	ldd	r30, Y+1	; 0x01
    2eec:	fa 81       	ldd	r31, Y+2	; 0x02
    2eee:	62 84       	ldd	r6, Z+10	; 0x0a
    2ef0:	73 84       	ldd	r7, Z+11	; 0x0b
    2ef2:	08 94       	sec
    2ef4:	61 08       	sbc	r6, r1
    2ef6:	71 08       	sbc	r7, r1
    2ef8:	62 22       	and	r6, r18
    2efa:	73 22       	and	r7, r19
			if (csect == 0) {				/* On the cluster boundary? */
    2efc:	61 14       	cp	r6, r1
    2efe:	71 04       	cpc	r7, r1
    2f00:	09 f0       	breq	.+2      	; 0x2f04 <f_write+0xec>
    2f02:	49 c0       	rjmp	.+146    	; 0x2f96 <f_write+0x17e>
				if (fp->fptr == 0) {		/* On the top of the file? */
    2f04:	00 97       	sbiw	r24, 0x00	; 0
    2f06:	a1 05       	cpc	r26, r1
    2f08:	b1 05       	cpc	r27, r1
    2f0a:	89 f4       	brne	.+34     	; 0x2f2e <f_write+0x116>
					clst = fp->obj.sclust;	/* Follow from the origin */
    2f0c:	d7 01       	movw	r26, r14
    2f0e:	16 96       	adiw	r26, 0x06	; 6
    2f10:	6d 91       	ld	r22, X+
    2f12:	7d 91       	ld	r23, X+
    2f14:	8d 91       	ld	r24, X+
    2f16:	9c 91       	ld	r25, X
    2f18:	19 97       	sbiw	r26, 0x09	; 9
					if (clst == 0) {		/* If no cluster is allocated, */
    2f1a:	61 15       	cp	r22, r1
    2f1c:	71 05       	cpc	r23, r1
    2f1e:	81 05       	cpc	r24, r1
    2f20:	91 05       	cpc	r25, r1
    2f22:	99 f4       	brne	.+38     	; 0x2f4a <f_write+0x132>
						clst = create_chain(&fp->obj, 0);	/* create a new cluster chain */
    2f24:	c7 01       	movw	r24, r14
    2f26:	40 e0       	ldi	r20, 0x00	; 0
    2f28:	50 e0       	ldi	r21, 0x00	; 0
    2f2a:	ba 01       	movw	r22, r20
    2f2c:	06 c0       	rjmp	.+12     	; 0x2f3a <f_write+0x122>
					if (fp->cltbl) {
						clst = clmt_clust(fp, fp->fptr);	/* Get cluster# from the CLMT */
					} else
#endif
					{
						clst = create_chain(&fp->obj, fp->clust);	/* Follow or stretch cluster chain on the FAT */
    2f2e:	f7 01       	movw	r30, r14
    2f30:	44 89       	ldd	r20, Z+20	; 0x14
    2f32:	55 89       	ldd	r21, Z+21	; 0x15
    2f34:	66 89       	ldd	r22, Z+22	; 0x16
    2f36:	77 89       	ldd	r23, Z+23	; 0x17
    2f38:	c7 01       	movw	r24, r14
    2f3a:	0e 94 3e 0e 	call	0x1c7c	; 0x1c7c <create_chain.clone.3>
					}
				}
				if (clst == 0) break;		/* Could not allocate a new cluster (disk full) */
    2f3e:	61 15       	cp	r22, r1
    2f40:	71 05       	cpc	r23, r1
    2f42:	81 05       	cpc	r24, r1
    2f44:	91 05       	cpc	r25, r1
    2f46:	09 f4       	brne	.+2      	; 0x2f4a <f_write+0x132>
    2f48:	3e c1       	rjmp	.+636    	; 0x31c6 <f_write+0x3ae>
				if (clst == 1) ABORT(fs, FR_INT_ERR);
    2f4a:	61 30       	cpi	r22, 0x01	; 1
    2f4c:	71 05       	cpc	r23, r1
    2f4e:	81 05       	cpc	r24, r1
    2f50:	91 05       	cpc	r25, r1
    2f52:	09 f4       	brne	.+2      	; 0x2f56 <f_write+0x13e>
    2f54:	4e c0       	rjmp	.+156    	; 0x2ff2 <f_write+0x1da>
				if (clst == 0xFFFFFFFF) ABORT(fs, FR_DISK_ERR);
    2f56:	6f 3f       	cpi	r22, 0xFF	; 255
    2f58:	bf ef       	ldi	r27, 0xFF	; 255
    2f5a:	7b 07       	cpc	r23, r27
    2f5c:	bf ef       	ldi	r27, 0xFF	; 255
    2f5e:	8b 07       	cpc	r24, r27
    2f60:	bf ef       	ldi	r27, 0xFF	; 255
    2f62:	9b 07       	cpc	r25, r27
    2f64:	09 f4       	brne	.+2      	; 0x2f68 <f_write+0x150>
    2f66:	c7 c0       	rjmp	.+398    	; 0x30f6 <f_write+0x2de>
				fp->clust = clst;			/* Update current cluster */
    2f68:	d7 01       	movw	r26, r14
    2f6a:	54 96       	adiw	r26, 0x14	; 20
    2f6c:	6d 93       	st	X+, r22
    2f6e:	7d 93       	st	X+, r23
    2f70:	8d 93       	st	X+, r24
    2f72:	9c 93       	st	X, r25
    2f74:	57 97       	sbiw	r26, 0x17	; 23
				if (fp->obj.sclust == 0) fp->obj.sclust = clst;	/* Set start cluster if the first write */
    2f76:	16 96       	adiw	r26, 0x06	; 6
    2f78:	2d 91       	ld	r18, X+
    2f7a:	3d 91       	ld	r19, X+
    2f7c:	4d 91       	ld	r20, X+
    2f7e:	5c 91       	ld	r21, X
    2f80:	19 97       	sbiw	r26, 0x09	; 9
    2f82:	21 15       	cp	r18, r1
    2f84:	31 05       	cpc	r19, r1
    2f86:	41 05       	cpc	r20, r1
    2f88:	51 05       	cpc	r21, r1
    2f8a:	29 f4       	brne	.+10     	; 0x2f96 <f_write+0x17e>
    2f8c:	f7 01       	movw	r30, r14
    2f8e:	66 83       	std	Z+6, r22	; 0x06
    2f90:	77 83       	std	Z+7, r23	; 0x07
    2f92:	80 87       	std	Z+8, r24	; 0x08
    2f94:	91 87       	std	Z+9, r25	; 0x09
			}
#if FF_FS_TINY
			if (fs->winsect == fp->sect && sync_window(fs) != FR_OK) ABORT(fs, FR_DISK_ERR);	/* Write-back sector cache */
#else
			if (fp->flag & FA_DIRTY) {		/* Write-back sector cache */
    2f96:	d7 01       	movw	r26, r14
    2f98:	1e 96       	adiw	r26, 0x0e	; 14
    2f9a:	8c 91       	ld	r24, X
    2f9c:	1e 97       	sbiw	r26, 0x0e	; 14
    2f9e:	87 ff       	sbrs	r24, 7
    2fa0:	19 c0       	rjmp	.+50     	; 0x2fd4 <f_write+0x1bc>
				if (disk_write(fs->pdrv, fp->buf, fp->sect, 1) != RES_OK) ABORT(fs, FR_DISK_ERR);
    2fa2:	e9 81       	ldd	r30, Y+1	; 0x01
    2fa4:	fa 81       	ldd	r31, Y+2	; 0x02
    2fa6:	58 96       	adiw	r26, 0x18	; 24
    2fa8:	2d 91       	ld	r18, X+
    2faa:	3d 91       	ld	r19, X+
    2fac:	4d 91       	ld	r20, X+
    2fae:	5c 91       	ld	r21, X
    2fb0:	5b 97       	sbiw	r26, 0x1b	; 27
    2fb2:	81 81       	ldd	r24, Z+1	; 0x01
    2fb4:	6d 81       	ldd	r22, Y+5	; 0x05
    2fb6:	7e 81       	ldd	r23, Y+6	; 0x06
    2fb8:	01 e0       	ldi	r16, 0x01	; 1
    2fba:	10 e0       	ldi	r17, 0x00	; 0
    2fbc:	0e 94 4d 06 	call	0xc9a	; 0xc9a <disk_write>
    2fc0:	88 23       	and	r24, r24
    2fc2:	09 f0       	breq	.+2      	; 0x2fc6 <f_write+0x1ae>
    2fc4:	98 c0       	rjmp	.+304    	; 0x30f6 <f_write+0x2de>
				fp->flag &= (BYTE)~FA_DIRTY;
    2fc6:	d7 01       	movw	r26, r14
    2fc8:	1e 96       	adiw	r26, 0x0e	; 14
    2fca:	8c 91       	ld	r24, X
    2fcc:	1e 97       	sbiw	r26, 0x0e	; 14
    2fce:	8f 77       	andi	r24, 0x7F	; 127
    2fd0:	1e 96       	adiw	r26, 0x0e	; 14
    2fd2:	8c 93       	st	X, r24
			}
#endif
			sect = clst2sect(fs, fp->clust);	/* Get current sector */
    2fd4:	09 81       	ldd	r16, Y+1	; 0x01
    2fd6:	1a 81       	ldd	r17, Y+2	; 0x02
    2fd8:	f7 01       	movw	r30, r14
    2fda:	44 89       	ldd	r20, Z+20	; 0x14
    2fdc:	55 89       	ldd	r21, Z+21	; 0x15
    2fde:	66 89       	ldd	r22, Z+22	; 0x16
    2fe0:	77 89       	ldd	r23, Z+23	; 0x17
    2fe2:	c8 01       	movw	r24, r16
    2fe4:	0e 94 fa 06 	call	0xdf4	; 0xdf4 <clst2sect>
			if (sect == 0) ABORT(fs, FR_INT_ERR);
    2fe8:	61 15       	cp	r22, r1
    2fea:	71 05       	cpc	r23, r1
    2fec:	81 05       	cpc	r24, r1
    2fee:	91 05       	cpc	r25, r1
    2ff0:	41 f4       	brne	.+16     	; 0x3002 <f_write+0x1ea>
    2ff2:	82 e0       	ldi	r24, 0x02	; 2
    2ff4:	d7 01       	movw	r26, r14
    2ff6:	1f 96       	adiw	r26, 0x0f	; 15
    2ff8:	8c 93       	st	X, r24
    2ffa:	1f 97       	sbiw	r26, 0x0f	; 15
    2ffc:	12 e0       	ldi	r17, 0x02	; 2
    2ffe:	d1 2e       	mov	r13, r17
    3000:	ed c0       	rjmp	.+474    	; 0x31dc <f_write+0x3c4>
			sect += csect;
    3002:	43 01       	movw	r8, r6
    3004:	aa 24       	eor	r10, r10
    3006:	bb 24       	eor	r11, r11
    3008:	86 0e       	add	r8, r22
    300a:	97 1e       	adc	r9, r23
    300c:	a8 1e       	adc	r10, r24
    300e:	b9 1e       	adc	r11, r25
			cc = btw / SS(fs);				/* When remaining bytes >= sector size, */
    3010:	21 01       	movw	r4, r2
    3012:	45 2c       	mov	r4, r5
    3014:	55 24       	eor	r5, r5
    3016:	46 94       	lsr	r4
			if (cc > 0) {					/* Write maximum contiguous sectors directly */
    3018:	41 14       	cp	r4, r1
    301a:	51 04       	cpc	r5, r1
    301c:	09 f4       	brne	.+2      	; 0x3020 <f_write+0x208>
    301e:	47 c0       	rjmp	.+142    	; 0x30ae <f_write+0x296>
				if (csect + cc > fs->csize) {	/* Clip at cluster boundary */
    3020:	f8 01       	movw	r30, r16
    3022:	22 85       	ldd	r18, Z+10	; 0x0a
    3024:	33 85       	ldd	r19, Z+11	; 0x0b
    3026:	c2 01       	movw	r24, r4
    3028:	86 0d       	add	r24, r6
    302a:	97 1d       	adc	r25, r7
    302c:	28 17       	cp	r18, r24
    302e:	39 07       	cpc	r19, r25
    3030:	18 f4       	brcc	.+6      	; 0x3038 <f_write+0x220>
					cc = fs->csize - csect;
    3032:	29 01       	movw	r4, r18
    3034:	46 18       	sub	r4, r6
    3036:	57 08       	sbc	r5, r7
				}
				if (disk_write(fs->pdrv, wbuff, sect, cc) != RES_OK) ABORT(fs, FR_DISK_ERR);
    3038:	d8 01       	movw	r26, r16
    303a:	11 96       	adiw	r26, 0x01	; 1
    303c:	8c 91       	ld	r24, X
    303e:	6b 81       	ldd	r22, Y+3	; 0x03
    3040:	7c 81       	ldd	r23, Y+4	; 0x04
    3042:	a5 01       	movw	r20, r10
    3044:	94 01       	movw	r18, r8
    3046:	82 01       	movw	r16, r4
    3048:	0e 94 4d 06 	call	0xc9a	; 0xc9a <disk_write>
    304c:	88 23       	and	r24, r24
    304e:	09 f0       	breq	.+2      	; 0x3052 <f_write+0x23a>
    3050:	52 c0       	rjmp	.+164    	; 0x30f6 <f_write+0x2de>
				if (fs->winsect - sect < cc) {	/* Refill sector cache if it gets invalidated by the direct write */
					memcpy(fs->win, wbuff + ((fs->winsect - sect) * SS(fs)), SS(fs));
					fs->wflag = 0;
				}
#else
				if (fp->sect - sect < cc) { /* Refill sector cache if it gets invalidated by the direct write */
    3052:	f7 01       	movw	r30, r14
    3054:	80 8d       	ldd	r24, Z+24	; 0x18
    3056:	91 8d       	ldd	r25, Z+25	; 0x19
    3058:	a2 8d       	ldd	r26, Z+26	; 0x1a
    305a:	b3 8d       	ldd	r27, Z+27	; 0x1b
    305c:	88 19       	sub	r24, r8
    305e:	99 09       	sbc	r25, r9
    3060:	aa 09       	sbc	r26, r10
    3062:	bb 09       	sbc	r27, r11
    3064:	92 01       	movw	r18, r4
    3066:	40 e0       	ldi	r20, 0x00	; 0
    3068:	50 e0       	ldi	r21, 0x00	; 0
    306a:	82 17       	cp	r24, r18
    306c:	93 07       	cpc	r25, r19
    306e:	a4 07       	cpc	r26, r20
    3070:	b5 07       	cpc	r27, r21
    3072:	c0 f4       	brcc	.+48     	; 0x30a4 <f_write+0x28c>
					memcpy(fp->buf, wbuff + ((fp->sect - sect) * SS(fs)), SS(fs));
    3074:	fc 01       	movw	r30, r24
    3076:	fe 2f       	mov	r31, r30
    3078:	ee 27       	eor	r30, r30
    307a:	ff 0f       	add	r31, r31
    307c:	ad 81       	ldd	r26, Y+5	; 0x05
    307e:	be 81       	ldd	r27, Y+6	; 0x06
    3080:	4b 81       	ldd	r20, Y+3	; 0x03
    3082:	5c 81       	ldd	r21, Y+4	; 0x04
    3084:	e4 0f       	add	r30, r20
    3086:	f5 1f       	adc	r31, r21
    3088:	80 e0       	ldi	r24, 0x00	; 0
    308a:	92 e0       	ldi	r25, 0x02	; 2
    308c:	01 90       	ld	r0, Z+
    308e:	0d 92       	st	X+, r0
    3090:	01 97       	sbiw	r24, 0x01	; 1
    3092:	e1 f7       	brne	.-8      	; 0x308c <f_write+0x274>
					fp->flag &= (BYTE)~FA_DIRTY;
    3094:	d7 01       	movw	r26, r14
    3096:	1e 96       	adiw	r26, 0x0e	; 14
    3098:	8c 91       	ld	r24, X
    309a:	1e 97       	sbiw	r26, 0x0e	; 14
    309c:	8f 77       	andi	r24, 0x7F	; 127
    309e:	1e 96       	adiw	r26, 0x0e	; 14
    30a0:	8c 93       	st	X, r24
    30a2:	1e 97       	sbiw	r26, 0x0e	; 14
				}
#endif
#endif
				wcnt = SS(fs) * cc;		/* Number of bytes transferred */
    30a4:	82 01       	movw	r16, r4
    30a6:	10 2f       	mov	r17, r16
    30a8:	00 27       	eor	r16, r16
    30aa:	11 0f       	add	r17, r17
				continue;
    30ac:	54 c0       	rjmp	.+168    	; 0x3156 <f_write+0x33e>
			if (fp->fptr >= fp->obj.objsize) {	/* Avoid silly cache filling on the growing edge */
				if (sync_window(fs) != FR_OK) ABORT(fs, FR_DISK_ERR);
				fs->winsect = sect;
			}
#else
			if (fp->sect != sect && 		/* Fill sector cache with file data */
    30ae:	f7 01       	movw	r30, r14
    30b0:	80 8d       	ldd	r24, Z+24	; 0x18
    30b2:	91 8d       	ldd	r25, Z+25	; 0x19
    30b4:	a2 8d       	ldd	r26, Z+26	; 0x1a
    30b6:	b3 8d       	ldd	r27, Z+27	; 0x1b
    30b8:	88 15       	cp	r24, r8
    30ba:	99 05       	cpc	r25, r9
    30bc:	aa 05       	cpc	r26, r10
    30be:	bb 05       	cpc	r27, r11
    30c0:	01 f1       	breq	.+64     	; 0x3102 <f_write+0x2ea>
    30c2:	20 89       	ldd	r18, Z+16	; 0x10
    30c4:	31 89       	ldd	r19, Z+17	; 0x11
    30c6:	42 89       	ldd	r20, Z+18	; 0x12
    30c8:	53 89       	ldd	r21, Z+19	; 0x13
    30ca:	82 85       	ldd	r24, Z+10	; 0x0a
    30cc:	93 85       	ldd	r25, Z+11	; 0x0b
    30ce:	a4 85       	ldd	r26, Z+12	; 0x0c
    30d0:	b5 85       	ldd	r27, Z+13	; 0x0d
    30d2:	28 17       	cp	r18, r24
    30d4:	39 07       	cpc	r19, r25
    30d6:	4a 07       	cpc	r20, r26
    30d8:	5b 07       	cpc	r21, r27
    30da:	98 f4       	brcc	.+38     	; 0x3102 <f_write+0x2ea>
				fp->fptr < fp->obj.objsize &&
				disk_read(fs->pdrv, fp->buf, sect, 1) != RES_OK) {
    30dc:	d8 01       	movw	r26, r16
    30de:	11 96       	adiw	r26, 0x01	; 1
    30e0:	8c 91       	ld	r24, X
    30e2:	6d 81       	ldd	r22, Y+5	; 0x05
    30e4:	7e 81       	ldd	r23, Y+6	; 0x06
    30e6:	a5 01       	movw	r20, r10
    30e8:	94 01       	movw	r18, r8
    30ea:	01 e0       	ldi	r16, 0x01	; 1
    30ec:	10 e0       	ldi	r17, 0x00	; 0
    30ee:	0e 94 07 06 	call	0xc0e	; 0xc0e <disk_read>
				if (sync_window(fs) != FR_OK) ABORT(fs, FR_DISK_ERR);
				fs->winsect = sect;
			}
#else
			if (fp->sect != sect && 		/* Fill sector cache with file data */
				fp->fptr < fp->obj.objsize &&
    30f2:	88 23       	and	r24, r24
    30f4:	31 f0       	breq	.+12     	; 0x3102 <f_write+0x2ea>
				disk_read(fs->pdrv, fp->buf, sect, 1) != RES_OK) {
					ABORT(fs, FR_DISK_ERR);
    30f6:	81 e0       	ldi	r24, 0x01	; 1
    30f8:	f7 01       	movw	r30, r14
    30fa:	87 87       	std	Z+15, r24	; 0x0f
    30fc:	dd 24       	eor	r13, r13
    30fe:	d3 94       	inc	r13
    3100:	6d c0       	rjmp	.+218    	; 0x31dc <f_write+0x3c4>
			}
#endif
			fp->sect = sect;
    3102:	d7 01       	movw	r26, r14
    3104:	58 96       	adiw	r26, 0x18	; 24
    3106:	8d 92       	st	X+, r8
    3108:	9d 92       	st	X+, r9
    310a:	ad 92       	st	X+, r10
    310c:	bc 92       	st	X, r11
    310e:	5b 97       	sbiw	r26, 0x1b	; 27
		}
		wcnt = SS(fs) - (UINT)fp->fptr % SS(fs);	/* Number of bytes remains in the sector */
    3110:	f7 01       	movw	r30, r14
    3112:	80 89       	ldd	r24, Z+16	; 0x10
    3114:	91 89       	ldd	r25, Z+17	; 0x11
    3116:	a2 89       	ldd	r26, Z+18	; 0x12
    3118:	b3 89       	ldd	r27, Z+19	; 0x13
    311a:	9c 01       	movw	r18, r24
    311c:	31 70       	andi	r19, 0x01	; 1
    311e:	40 e0       	ldi	r20, 0x00	; 0
    3120:	52 e0       	ldi	r21, 0x02	; 2
    3122:	42 1b       	sub	r20, r18
    3124:	53 0b       	sbc	r21, r19
    3126:	81 01       	movw	r16, r2
    3128:	42 15       	cp	r20, r2
    312a:	53 05       	cpc	r21, r3
    312c:	08 f4       	brcc	.+2      	; 0x3130 <f_write+0x318>
    312e:	8a 01       	movw	r16, r20
#if FF_FS_TINY
		if (move_window(fs, fp->sect) != FR_OK) ABORT(fs, FR_DISK_ERR);	/* Move sector window */
		memcpy(fs->win + fp->fptr % SS(fs), wbuff, wcnt);	/* Fit data to the sector */
		fs->wflag = 1;
#else
		memcpy(fp->buf + fp->fptr % SS(fs), wbuff, wcnt);	/* Fit data to the sector */
    3130:	9c 01       	movw	r18, r24
    3132:	31 70       	andi	r19, 0x01	; 1
    3134:	8d 81       	ldd	r24, Y+5	; 0x05
    3136:	9e 81       	ldd	r25, Y+6	; 0x06
    3138:	28 0f       	add	r18, r24
    313a:	39 1f       	adc	r19, r25
    313c:	c9 01       	movw	r24, r18
    313e:	6b 81       	ldd	r22, Y+3	; 0x03
    3140:	7c 81       	ldd	r23, Y+4	; 0x04
    3142:	a8 01       	movw	r20, r16
    3144:	0e 94 b7 21 	call	0x436e	; 0x436e <memcpy>
		fp->flag |= FA_DIRTY;
    3148:	d7 01       	movw	r26, r14
    314a:	1e 96       	adiw	r26, 0x0e	; 14
    314c:	8c 91       	ld	r24, X
    314e:	1e 97       	sbiw	r26, 0x0e	; 14
    3150:	80 68       	ori	r24, 0x80	; 128
    3152:	1e 96       	adiw	r26, 0x0e	; 14
    3154:	8c 93       	st	X, r24
	/* Check fptr wrap-around (file size cannot reach 4 GiB at FAT volume) */
	if ((!FF_FS_EXFAT || fs->fs_type != FS_EXFAT) && (DWORD)(fp->fptr + btw) < (DWORD)fp->fptr) {
		btw = (UINT)(0xFFFFFFFF - (DWORD)fp->fptr);
	}

	for ( ; btw > 0; btw -= wcnt, *bw += wcnt, wbuff += wcnt, fp->fptr += wcnt, fp->obj.objsize = (fp->fptr > fp->obj.objsize) ? fp->fptr : fp->obj.objsize) {	/* Repeat until all data written */
    3156:	20 1a       	sub	r2, r16
    3158:	31 0a       	sbc	r3, r17
    315a:	ef 81       	ldd	r30, Y+7	; 0x07
    315c:	f8 85       	ldd	r31, Y+8	; 0x08
    315e:	80 81       	ld	r24, Z
    3160:	91 81       	ldd	r25, Z+1	; 0x01
    3162:	80 0f       	add	r24, r16
    3164:	91 1f       	adc	r25, r17
    3166:	91 83       	std	Z+1, r25	; 0x01
    3168:	80 83       	st	Z, r24
    316a:	4b 81       	ldd	r20, Y+3	; 0x03
    316c:	5c 81       	ldd	r21, Y+4	; 0x04
    316e:	40 0f       	add	r20, r16
    3170:	51 1f       	adc	r21, r17
    3172:	5c 83       	std	Y+4, r21	; 0x04
    3174:	4b 83       	std	Y+3, r20	; 0x03
    3176:	20 e0       	ldi	r18, 0x00	; 0
    3178:	30 e0       	ldi	r19, 0x00	; 0
    317a:	f7 01       	movw	r30, r14
    317c:	80 89       	ldd	r24, Z+16	; 0x10
    317e:	91 89       	ldd	r25, Z+17	; 0x11
    3180:	a2 89       	ldd	r26, Z+18	; 0x12
    3182:	b3 89       	ldd	r27, Z+19	; 0x13
    3184:	08 0f       	add	r16, r24
    3186:	19 1f       	adc	r17, r25
    3188:	2a 1f       	adc	r18, r26
    318a:	3b 1f       	adc	r19, r27
    318c:	d7 01       	movw	r26, r14
    318e:	50 96       	adiw	r26, 0x10	; 16
    3190:	0d 93       	st	X+, r16
    3192:	1d 93       	st	X+, r17
    3194:	2d 93       	st	X+, r18
    3196:	3c 93       	st	X, r19
    3198:	53 97       	sbiw	r26, 0x13	; 19
    319a:	1a 96       	adiw	r26, 0x0a	; 10
    319c:	8d 91       	ld	r24, X+
    319e:	9d 91       	ld	r25, X+
    31a0:	0d 90       	ld	r0, X+
    31a2:	bc 91       	ld	r27, X
    31a4:	a0 2d       	mov	r26, r0
    31a6:	08 17       	cp	r16, r24
    31a8:	19 07       	cpc	r17, r25
    31aa:	2a 07       	cpc	r18, r26
    31ac:	3b 07       	cpc	r19, r27
    31ae:	10 f4       	brcc	.+4      	; 0x31b4 <f_write+0x39c>
    31b0:	8c 01       	movw	r16, r24
    31b2:	9d 01       	movw	r18, r26
    31b4:	f7 01       	movw	r30, r14
    31b6:	02 87       	std	Z+10, r16	; 0x0a
    31b8:	13 87       	std	Z+11, r17	; 0x0b
    31ba:	24 87       	std	Z+12, r18	; 0x0c
    31bc:	35 87       	std	Z+13, r19	; 0x0d
    31be:	21 14       	cp	r2, r1
    31c0:	31 04       	cpc	r3, r1
    31c2:	09 f0       	breq	.+2      	; 0x31c6 <f_write+0x3ae>
    31c4:	79 ce       	rjmp	.-782    	; 0x2eb8 <f_write+0xa0>
		memcpy(fp->buf + fp->fptr % SS(fs), wbuff, wcnt);	/* Fit data to the sector */
		fp->flag |= FA_DIRTY;
#endif
	}

	fp->flag |= FA_MODIFIED;				/* Set file change flag */
    31c6:	d7 01       	movw	r26, r14
    31c8:	1e 96       	adiw	r26, 0x0e	; 14
    31ca:	8c 91       	ld	r24, X
    31cc:	1e 97       	sbiw	r26, 0x0e	; 14
    31ce:	80 64       	ori	r24, 0x40	; 64
    31d0:	1e 96       	adiw	r26, 0x0e	; 14
    31d2:	8c 93       	st	X, r24
    31d4:	1e 97       	sbiw	r26, 0x0e	; 14

	LEAVE_FF(fs, FR_OK);
    31d6:	02 c0       	rjmp	.+4      	; 0x31dc <f_write+0x3c4>


	*bw = 0;	/* Clear write byte counter */
	res = validate(&fp->obj, &fs);			/* Check validity of the file object */
	if (res != FR_OK || (res = (FRESULT)fp->err) != FR_OK) LEAVE_FF(fs, res);	/* Check validity */
	if (!(fp->flag & FA_WRITE)) LEAVE_FF(fs, FR_DENIED);	/* Check access mode */
    31d8:	77 e0       	ldi	r23, 0x07	; 7
    31da:	d7 2e       	mov	r13, r23
	}

	fp->flag |= FA_MODIFIED;				/* Set file change flag */

	LEAVE_FF(fs, FR_OK);
}
    31dc:	8d 2d       	mov	r24, r13
    31de:	28 96       	adiw	r28, 0x08	; 8
    31e0:	0f b6       	in	r0, 0x3f	; 63
    31e2:	f8 94       	cli
    31e4:	de bf       	out	0x3e, r29	; 62
    31e6:	0f be       	out	0x3f, r0	; 63
    31e8:	cd bf       	out	0x3d, r28	; 61
    31ea:	cf 91       	pop	r28
    31ec:	df 91       	pop	r29
    31ee:	1f 91       	pop	r17
    31f0:	0f 91       	pop	r16
    31f2:	ff 90       	pop	r15
    31f4:	ef 90       	pop	r14
    31f6:	df 90       	pop	r13
    31f8:	bf 90       	pop	r11
    31fa:	af 90       	pop	r10
    31fc:	9f 90       	pop	r9
    31fe:	8f 90       	pop	r8
    3200:	7f 90       	pop	r7
    3202:	6f 90       	pop	r6
    3204:	5f 90       	pop	r5
    3206:	4f 90       	pop	r4
    3208:	3f 90       	pop	r3
    320a:	2f 90       	pop	r2
    320c:	08 95       	ret

0000320e <f_sync>:
/*-----------------------------------------------------------------------*/

FRESULT f_sync (
	FIL* fp		/* Open file to be synced */
)
{
    320e:	ef 92       	push	r14
    3210:	ff 92       	push	r15
    3212:	0f 93       	push	r16
    3214:	1f 93       	push	r17
    3216:	df 93       	push	r29
    3218:	cf 93       	push	r28
    321a:	00 d0       	rcall	.+0      	; 0x321c <f_sync+0xe>
    321c:	cd b7       	in	r28, 0x3d	; 61
    321e:	de b7       	in	r29, 0x3e	; 62
    3220:	7c 01       	movw	r14, r24
	FRESULT res;
	FATFS *fs;


	res = validate(&fp->obj, &fs);	/* Check validity of the file object */
    3222:	be 01       	movw	r22, r28
    3224:	6f 5f       	subi	r22, 0xFF	; 255
    3226:	7f 4f       	sbci	r23, 0xFF	; 255
    3228:	0e 94 4e 07 	call	0xe9c	; 0xe9c <validate>
	if (res == FR_OK) {
    322c:	88 23       	and	r24, r24
    322e:	09 f0       	breq	.+2      	; 0x3232 <f_sync+0x24>
    3230:	67 c0       	rjmp	.+206    	; 0x3300 <f_sync+0xf2>
		if (fp->flag & FA_MODIFIED) {	/* Is there any change to the file? */
    3232:	d7 01       	movw	r26, r14
    3234:	1e 96       	adiw	r26, 0x0e	; 14
    3236:	9c 91       	ld	r25, X
    3238:	1e 97       	sbiw	r26, 0x0e	; 14
    323a:	96 ff       	sbrs	r25, 6
    323c:	61 c0       	rjmp	.+194    	; 0x3300 <f_sync+0xf2>
#if !FF_FS_TINY
			if (fp->flag & FA_DIRTY) {	/* Write-back cached data if needed */
    323e:	97 ff       	sbrs	r25, 7
    3240:	17 c0       	rjmp	.+46     	; 0x3270 <f_sync+0x62>
				if (disk_write(fs->pdrv, fp->buf, fp->sect, 1) != RES_OK) LEAVE_FF(fs, FR_DISK_ERR);
    3242:	e9 81       	ldd	r30, Y+1	; 0x01
    3244:	fa 81       	ldd	r31, Y+2	; 0x02
    3246:	b7 01       	movw	r22, r14
    3248:	6e 5d       	subi	r22, 0xDE	; 222
    324a:	7f 4f       	sbci	r23, 0xFF	; 255
    324c:	58 96       	adiw	r26, 0x18	; 24
    324e:	2d 91       	ld	r18, X+
    3250:	3d 91       	ld	r19, X+
    3252:	4d 91       	ld	r20, X+
    3254:	5c 91       	ld	r21, X
    3256:	5b 97       	sbiw	r26, 0x1b	; 27
    3258:	81 81       	ldd	r24, Z+1	; 0x01
    325a:	01 e0       	ldi	r16, 0x01	; 1
    325c:	10 e0       	ldi	r17, 0x00	; 0
    325e:	0e 94 4d 06 	call	0xc9a	; 0xc9a <disk_write>
    3262:	88 23       	and	r24, r24
    3264:	09 f0       	breq	.+2      	; 0x3268 <f_sync+0x5a>
    3266:	4b c0       	rjmp	.+150    	; 0x32fe <f_sync+0xf0>
				fp->flag &= (BYTE)~FA_DIRTY;
    3268:	f7 01       	movw	r30, r14
    326a:	86 85       	ldd	r24, Z+14	; 0x0e
    326c:	8f 77       	andi	r24, 0x7F	; 127
    326e:	86 87       	std	Z+14, r24	; 0x0e
					FREE_NAMEBUFF();
				}
			} else
#endif
			{
				res = move_window(fs, fp->dir_sect);
    3270:	d7 01       	movw	r26, r14
    3272:	5c 96       	adiw	r26, 0x1c	; 28
    3274:	4d 91       	ld	r20, X+
    3276:	5d 91       	ld	r21, X+
    3278:	6d 91       	ld	r22, X+
    327a:	7c 91       	ld	r23, X
    327c:	5f 97       	sbiw	r26, 0x1f	; 31
    327e:	89 81       	ldd	r24, Y+1	; 0x01
    3280:	9a 81       	ldd	r25, Y+2	; 0x02
    3282:	0e 94 2a 08 	call	0x1054	; 0x1054 <move_window>
				if (res == FR_OK) {
    3286:	88 23       	and	r24, r24
    3288:	d9 f5       	brne	.+118    	; 0x3300 <f_sync+0xf2>
					BYTE *dir = fp->dir_ptr;
    328a:	f7 01       	movw	r30, r14
    328c:	00 a1       	ldd	r16, Z+32	; 0x20
    328e:	11 a1       	ldd	r17, Z+33	; 0x21

					dir[DIR_Attr] |= AM_ARC;					/* Set archive attribute to indicate that the file has been changed */
    3290:	d8 01       	movw	r26, r16
    3292:	1b 96       	adiw	r26, 0x0b	; 11
    3294:	8c 91       	ld	r24, X
    3296:	1b 97       	sbiw	r26, 0x0b	; 11
    3298:	80 62       	ori	r24, 0x20	; 32
    329a:	1b 96       	adiw	r26, 0x0b	; 11
    329c:	8c 93       	st	X, r24
					st_clust(fp->obj.fs, dir, fp->obj.sclust);	/* Update file allocation information  */
    329e:	26 81       	ldd	r18, Z+6	; 0x06
    32a0:	37 81       	ldd	r19, Z+7	; 0x07
    32a2:	40 85       	ldd	r20, Z+8	; 0x08
    32a4:	51 85       	ldd	r21, Z+9	; 0x09
    32a6:	80 81       	ld	r24, Z
    32a8:	91 81       	ldd	r25, Z+1	; 0x01
    32aa:	b8 01       	movw	r22, r16
    32ac:	0e 94 66 0d 	call	0x1acc	; 0x1acc <st_clust.clone.1>
					st_32(dir + DIR_FileSize, (DWORD)fp->obj.objsize);	/* Update file size */
    32b0:	f7 01       	movw	r30, r14
    32b2:	42 85       	ldd	r20, Z+10	; 0x0a
    32b4:	53 85       	ldd	r21, Z+11	; 0x0b
    32b6:	64 85       	ldd	r22, Z+12	; 0x0c
    32b8:	75 85       	ldd	r23, Z+13	; 0x0d
    32ba:	c8 01       	movw	r24, r16
    32bc:	4c 96       	adiw	r24, 0x1c	; 28
    32be:	0e 94 f1 06 	call	0xde2	; 0xde2 <st_32>
					st_32(dir + DIR_ModTime, GET_FATTIME());	/* Update modified time */
    32c2:	0e 94 b7 06 	call	0xd6e	; 0xd6e <get_fattime>
    32c6:	ab 01       	movw	r20, r22
    32c8:	bc 01       	movw	r22, r24
    32ca:	c8 01       	movw	r24, r16
    32cc:	46 96       	adiw	r24, 0x16	; 22
    32ce:	0e 94 f1 06 	call	0xde2	; 0xde2 <st_32>
#endif

#if !FF_FS_READONLY
static void st_16 (BYTE* ptr, WORD val)	/* Store a 2-byte word in little-endian */
{
	*ptr++ = (BYTE)val; val >>= 8;
    32d2:	d8 01       	movw	r26, r16
    32d4:	52 96       	adiw	r26, 0x12	; 18
    32d6:	1c 92       	st	X, r1
    32d8:	52 97       	sbiw	r26, 0x12	; 18
	*ptr++ = (BYTE)val;
    32da:	53 96       	adiw	r26, 0x13	; 19
    32dc:	1c 92       	st	X, r1
					dir[DIR_Attr] |= AM_ARC;					/* Set archive attribute to indicate that the file has been changed */
					st_clust(fp->obj.fs, dir, fp->obj.sclust);	/* Update file allocation information  */
					st_32(dir + DIR_FileSize, (DWORD)fp->obj.objsize);	/* Update file size */
					st_32(dir + DIR_ModTime, GET_FATTIME());	/* Update modified time */
					st_16(dir + DIR_LstAccDate, 0);				/* Invalidate last access date */
					fs->wflag = 1;
    32de:	89 81       	ldd	r24, Y+1	; 0x01
    32e0:	9a 81       	ldd	r25, Y+2	; 0x02
    32e2:	21 e0       	ldi	r18, 0x01	; 1
    32e4:	fc 01       	movw	r30, r24
    32e6:	24 83       	std	Z+4, r18	; 0x04
					res = sync_fs(fs);							/* Restore it to the directory */
    32e8:	0e 94 d0 0c 	call	0x19a0	; 0x19a0 <sync_fs>
					fp->flag &= (BYTE)~FA_MODIFIED;
    32ec:	d7 01       	movw	r26, r14
    32ee:	1e 96       	adiw	r26, 0x0e	; 14
    32f0:	9c 91       	ld	r25, X
    32f2:	1e 97       	sbiw	r26, 0x0e	; 14
    32f4:	9f 7b       	andi	r25, 0xBF	; 191
    32f6:	1e 96       	adiw	r26, 0x0e	; 14
    32f8:	9c 93       	st	X, r25
    32fa:	1e 97       	sbiw	r26, 0x0e	; 14
    32fc:	01 c0       	rjmp	.+2      	; 0x3300 <f_sync+0xf2>
	res = validate(&fp->obj, &fs);	/* Check validity of the file object */
	if (res == FR_OK) {
		if (fp->flag & FA_MODIFIED) {	/* Is there any change to the file? */
#if !FF_FS_TINY
			if (fp->flag & FA_DIRTY) {	/* Write-back cached data if needed */
				if (disk_write(fs->pdrv, fp->buf, fp->sect, 1) != RES_OK) LEAVE_FF(fs, FR_DISK_ERR);
    32fe:	81 e0       	ldi	r24, 0x01	; 1
			}
		}
	}

	LEAVE_FF(fs, res);
}
    3300:	0f 90       	pop	r0
    3302:	0f 90       	pop	r0
    3304:	cf 91       	pop	r28
    3306:	df 91       	pop	r29
    3308:	1f 91       	pop	r17
    330a:	0f 91       	pop	r16
    330c:	ff 90       	pop	r15
    330e:	ef 90       	pop	r14
    3310:	08 95       	ret

00003312 <f_close>:
/*-----------------------------------------------------------------------*/

FRESULT f_close (
	FIL* fp		/* Open file to be closed */
)
{
    3312:	0f 93       	push	r16
    3314:	1f 93       	push	r17
    3316:	df 93       	push	r29
    3318:	cf 93       	push	r28
    331a:	00 d0       	rcall	.+0      	; 0x331c <f_close+0xa>
    331c:	cd b7       	in	r28, 0x3d	; 61
    331e:	de b7       	in	r29, 0x3e	; 62
    3320:	8c 01       	movw	r16, r24
	FRESULT res;
	FATFS *fs;

#if !FF_FS_READONLY
	res = f_sync(fp);					/* Flush cached data */
    3322:	0e 94 07 19 	call	0x320e	; 0x320e <f_sync>
	if (res == FR_OK)
    3326:	88 23       	and	r24, r24
    3328:	59 f4       	brne	.+22     	; 0x3340 <f_close+0x2e>
#endif
	{
		res = validate(&fp->obj, &fs);	/* Lock volume */
    332a:	c8 01       	movw	r24, r16
    332c:	be 01       	movw	r22, r28
    332e:	6f 5f       	subi	r22, 0xFF	; 255
    3330:	7f 4f       	sbci	r23, 0xFF	; 255
    3332:	0e 94 4e 07 	call	0xe9c	; 0xe9c <validate>
		if (res == FR_OK) {
    3336:	88 23       	and	r24, r24
    3338:	19 f4       	brne	.+6      	; 0x3340 <f_close+0x2e>
#if FF_FS_LOCK
			res = dec_share(fp->obj.lockid);		/* Decrement file open counter */
			if (res == FR_OK) fp->obj.fs = 0;	/* Invalidate file object */
#else
			fp->obj.fs = 0;	/* Invalidate file object */
    333a:	f8 01       	movw	r30, r16
    333c:	11 82       	std	Z+1, r1	; 0x01
    333e:	10 82       	st	Z, r1
			unlock_volume(fs, FR_OK);		/* Unlock volume */
#endif
		}
	}
	return res;
}
    3340:	0f 90       	pop	r0
    3342:	0f 90       	pop	r0
    3344:	cf 91       	pop	r28
    3346:	df 91       	pop	r29
    3348:	1f 91       	pop	r17
    334a:	0f 91       	pop	r16
    334c:	08 95       	ret

0000334e <f_lseek>:

FRESULT f_lseek (
	FIL* fp,		/* Pointer to the file object */
	FSIZE_t ofs		/* File pointer from top of file */
)
{
    334e:	5f 92       	push	r5
    3350:	6f 92       	push	r6
    3352:	7f 92       	push	r7
    3354:	8f 92       	push	r8
    3356:	9f 92       	push	r9
    3358:	af 92       	push	r10
    335a:	bf 92       	push	r11
    335c:	cf 92       	push	r12
    335e:	df 92       	push	r13
    3360:	ef 92       	push	r14
    3362:	ff 92       	push	r15
    3364:	0f 93       	push	r16
    3366:	1f 93       	push	r17
    3368:	df 93       	push	r29
    336a:	cf 93       	push	r28
    336c:	cd b7       	in	r28, 0x3d	; 61
    336e:	de b7       	in	r29, 0x3e	; 62
    3370:	2a 97       	sbiw	r28, 0x0a	; 10
    3372:	0f b6       	in	r0, 0x3f	; 63
    3374:	f8 94       	cli
    3376:	de bf       	out	0x3e, r29	; 62
    3378:	0f be       	out	0x3f, r0	; 63
    337a:	cd bf       	out	0x3d, r28	; 61
    337c:	7c 01       	movw	r14, r24
    337e:	5a 01       	movw	r10, r20
    3380:	6b 01       	movw	r12, r22
	DWORD clst, bcs;
	LBA_t nsect;
	FSIZE_t ifptr;


	res = validate(&fp->obj, &fs);		/* Check validity of the file object */
    3382:	be 01       	movw	r22, r28
    3384:	6f 5f       	subi	r22, 0xFF	; 255
    3386:	7f 4f       	sbci	r23, 0xFF	; 255
    3388:	0e 94 4e 07 	call	0xe9c	; 0xe9c <validate>
    338c:	58 2e       	mov	r5, r24
	if (res == FR_OK) res = (FRESULT)fp->err;
    338e:	88 23       	and	r24, r24
    3390:	09 f0       	breq	.+2      	; 0x3394 <f_lseek+0x46>
    3392:	b0 c1       	rjmp	.+864    	; 0x36f4 <f_lseek+0x3a6>
    3394:	d7 01       	movw	r26, r14
    3396:	1f 96       	adiw	r26, 0x0f	; 15
    3398:	5c 90       	ld	r5, X
    339a:	1f 97       	sbiw	r26, 0x0f	; 15
#if FF_FS_EXFAT && !FF_FS_READONLY
	if (res == FR_OK && fs->fs_type == FS_EXFAT) {
		res = fill_last_frag(&fp->obj, fp->clust, 0xFFFFFFFF);	/* Fill last fragment on the FAT if needed */
	}
#endif
	if (res != FR_OK) LEAVE_FF(fs, res);
    339c:	55 20       	and	r5, r5
    339e:	09 f0       	breq	.+2      	; 0x33a2 <f_lseek+0x54>
    33a0:	a9 c1       	rjmp	.+850    	; 0x36f4 <f_lseek+0x3a6>
	/* Normal Seek */
	{
#if FF_FS_EXFAT
		if (fs->fs_type != FS_EXFAT && ofs >= 0x100000000) ofs = 0xFFFFFFFF;	/* Clip at 4 GiB - 1 if at FATxx */
#endif
		if (ofs > fp->obj.objsize && (FF_FS_READONLY || !(fp->flag & FA_WRITE))) {	/* In read-only mode, clip offset with the file size */
    33a2:	1a 96       	adiw	r26, 0x0a	; 10
    33a4:	8d 91       	ld	r24, X+
    33a6:	9d 91       	ld	r25, X+
    33a8:	0d 90       	ld	r0, X+
    33aa:	bc 91       	ld	r27, X
    33ac:	a0 2d       	mov	r26, r0
    33ae:	8a 15       	cp	r24, r10
    33b0:	9b 05       	cpc	r25, r11
    33b2:	ac 05       	cpc	r26, r12
    33b4:	bd 05       	cpc	r27, r13
    33b6:	30 f4       	brcc	.+12     	; 0x33c4 <f_lseek+0x76>
    33b8:	f7 01       	movw	r30, r14
    33ba:	26 85       	ldd	r18, Z+14	; 0x0e
    33bc:	21 fd       	sbrc	r18, 1
    33be:	02 c0       	rjmp	.+4      	; 0x33c4 <f_lseek+0x76>
    33c0:	5c 01       	movw	r10, r24
    33c2:	6d 01       	movw	r12, r26
			ofs = fp->obj.objsize;
		}
		ifptr = fp->fptr;
    33c4:	f7 01       	movw	r30, r14
    33c6:	80 89       	ldd	r24, Z+16	; 0x10
    33c8:	91 89       	ldd	r25, Z+17	; 0x11
    33ca:	a2 89       	ldd	r26, Z+18	; 0x12
    33cc:	b3 89       	ldd	r27, Z+19	; 0x13
		fp->fptr = nsect = 0;
    33ce:	10 8a       	std	Z+16, r1	; 0x10
    33d0:	11 8a       	std	Z+17, r1	; 0x11
    33d2:	12 8a       	std	Z+18, r1	; 0x12
    33d4:	13 8a       	std	Z+19, r1	; 0x13
		if (ofs > 0) {
    33d6:	a1 14       	cp	r10, r1
    33d8:	b1 04       	cpc	r11, r1
    33da:	c1 04       	cpc	r12, r1
    33dc:	d1 04       	cpc	r13, r1
    33de:	09 f4       	brne	.+2      	; 0x33e2 <f_lseek+0x94>
    33e0:	2a c1       	rjmp	.+596    	; 0x3636 <f_lseek+0x2e8>
			bcs = (DWORD)fs->csize * SS(fs);	/* Cluster size (byte) */
    33e2:	e9 81       	ldd	r30, Y+1	; 0x01
    33e4:	fa 81       	ldd	r31, Y+2	; 0x02
    33e6:	62 84       	ldd	r6, Z+10	; 0x0a
    33e8:	73 84       	ldd	r7, Z+11	; 0x0b
    33ea:	88 24       	eor	r8, r8
    33ec:	99 24       	eor	r9, r9
    33ee:	49 e0       	ldi	r20, 0x09	; 9
    33f0:	66 0c       	add	r6, r6
    33f2:	77 1c       	adc	r7, r7
    33f4:	88 1c       	adc	r8, r8
    33f6:	99 1c       	adc	r9, r9
    33f8:	4a 95       	dec	r20
    33fa:	d1 f7       	brne	.-12     	; 0x33f0 <f_lseek+0xa2>
			if (ifptr > 0 &&
    33fc:	00 97       	sbiw	r24, 0x00	; 0
    33fe:	a1 05       	cpc	r26, r1
    3400:	b1 05       	cpc	r27, r1
    3402:	09 f4       	brne	.+2      	; 0x3406 <f_lseek+0xb8>
    3404:	46 c0       	rjmp	.+140    	; 0x3492 <f_lseek+0x144>
				(ofs - 1) / bcs >= (ifptr - 1) / bcs) {	/* When seek to same or following cluster, */
    3406:	9c 01       	movw	r18, r24
    3408:	ad 01       	movw	r20, r26
    340a:	21 50       	subi	r18, 0x01	; 1
    340c:	30 40       	sbci	r19, 0x00	; 0
    340e:	40 40       	sbci	r20, 0x00	; 0
    3410:	50 40       	sbci	r21, 0x00	; 0
    3412:	2b 83       	std	Y+3, r18	; 0x03
    3414:	3c 83       	std	Y+4, r19	; 0x04
    3416:	4d 83       	std	Y+5, r20	; 0x05
    3418:	5e 83       	std	Y+6, r21	; 0x06
    341a:	c6 01       	movw	r24, r12
    341c:	b5 01       	movw	r22, r10
    341e:	61 50       	subi	r22, 0x01	; 1
    3420:	70 40       	sbci	r23, 0x00	; 0
    3422:	80 40       	sbci	r24, 0x00	; 0
    3424:	90 40       	sbci	r25, 0x00	; 0
    3426:	a4 01       	movw	r20, r8
    3428:	93 01       	movw	r18, r6
    342a:	0e 94 88 21 	call	0x4310	; 0x4310 <__udivmodsi4>
    342e:	2f 83       	std	Y+7, r18	; 0x07
    3430:	38 87       	std	Y+8, r19	; 0x08
    3432:	49 87       	std	Y+9, r20	; 0x09
    3434:	5a 87       	std	Y+10, r21	; 0x0a
    3436:	6b 81       	ldd	r22, Y+3	; 0x03
    3438:	7c 81       	ldd	r23, Y+4	; 0x04
    343a:	8d 81       	ldd	r24, Y+5	; 0x05
    343c:	9e 81       	ldd	r25, Y+6	; 0x06
    343e:	a4 01       	movw	r20, r8
    3440:	93 01       	movw	r18, r6
    3442:	0e 94 88 21 	call	0x4310	; 0x4310 <__udivmodsi4>
		}
		ifptr = fp->fptr;
		fp->fptr = nsect = 0;
		if (ofs > 0) {
			bcs = (DWORD)fs->csize * SS(fs);	/* Cluster size (byte) */
			if (ifptr > 0 &&
    3446:	8f 81       	ldd	r24, Y+7	; 0x07
    3448:	98 85       	ldd	r25, Y+8	; 0x08
    344a:	a9 85       	ldd	r26, Y+9	; 0x09
    344c:	ba 85       	ldd	r27, Y+10	; 0x0a
    344e:	82 17       	cp	r24, r18
    3450:	93 07       	cpc	r25, r19
    3452:	a4 07       	cpc	r26, r20
    3454:	b5 07       	cpc	r27, r21
    3456:	e8 f0       	brcs	.+58     	; 0x3492 <f_lseek+0x144>
				(ofs - 1) / bcs >= (ifptr - 1) / bcs) {	/* When seek to same or following cluster, */
				fp->fptr = (ifptr - 1) & ~(FSIZE_t)(bcs - 1);	/* start from the current cluster */
    3458:	88 27       	eor	r24, r24
    345a:	99 27       	eor	r25, r25
    345c:	dc 01       	movw	r26, r24
    345e:	86 19       	sub	r24, r6
    3460:	97 09       	sbc	r25, r7
    3462:	a8 09       	sbc	r26, r8
    3464:	b9 09       	sbc	r27, r9
    3466:	2b 81       	ldd	r18, Y+3	; 0x03
    3468:	3c 81       	ldd	r19, Y+4	; 0x04
    346a:	4d 81       	ldd	r20, Y+5	; 0x05
    346c:	5e 81       	ldd	r21, Y+6	; 0x06
    346e:	82 23       	and	r24, r18
    3470:	93 23       	and	r25, r19
    3472:	a4 23       	and	r26, r20
    3474:	b5 23       	and	r27, r21
    3476:	f7 01       	movw	r30, r14
    3478:	80 8b       	std	Z+16, r24	; 0x10
    347a:	91 8b       	std	Z+17, r25	; 0x11
    347c:	a2 8b       	std	Z+18, r26	; 0x12
    347e:	b3 8b       	std	Z+19, r27	; 0x13
				ofs -= fp->fptr;
    3480:	a8 1a       	sub	r10, r24
    3482:	b9 0a       	sbc	r11, r25
    3484:	ca 0a       	sbc	r12, r26
    3486:	db 0a       	sbc	r13, r27
				clst = fp->clust;
    3488:	44 89       	ldd	r20, Z+20	; 0x14
    348a:	55 89       	ldd	r21, Z+21	; 0x15
    348c:	66 89       	ldd	r22, Z+22	; 0x16
    348e:	77 89       	ldd	r23, Z+23	; 0x17
    3490:	37 c0       	rjmp	.+110    	; 0x3500 <f_lseek+0x1b2>
			} else {									/* When seek to back cluster, */
				clst = fp->obj.sclust;					/* start from the first cluster */
    3492:	d7 01       	movw	r26, r14
    3494:	16 96       	adiw	r26, 0x06	; 6
    3496:	4d 91       	ld	r20, X+
    3498:	5d 91       	ld	r21, X+
    349a:	6d 91       	ld	r22, X+
    349c:	7c 91       	ld	r23, X
    349e:	19 97       	sbiw	r26, 0x09	; 9
#if !FF_FS_READONLY
				if (clst == 0) {						/* If no cluster chain, create a new chain */
    34a0:	41 15       	cp	r20, r1
    34a2:	51 05       	cpc	r21, r1
    34a4:	61 05       	cpc	r22, r1
    34a6:	71 05       	cpc	r23, r1
    34a8:	21 f5       	brne	.+72     	; 0x34f2 <f_lseek+0x1a4>
					clst = create_chain(&fp->obj, 0);
    34aa:	c7 01       	movw	r24, r14
    34ac:	40 e0       	ldi	r20, 0x00	; 0
    34ae:	50 e0       	ldi	r21, 0x00	; 0
    34b0:	ba 01       	movw	r22, r20
    34b2:	0e 94 3e 0e 	call	0x1c7c	; 0x1c7c <create_chain.clone.3>
    34b6:	ab 01       	movw	r20, r22
    34b8:	bc 01       	movw	r22, r24
					if (clst == 1) ABORT(fs, FR_INT_ERR);
    34ba:	41 30       	cpi	r20, 0x01	; 1
    34bc:	51 05       	cpc	r21, r1
    34be:	61 05       	cpc	r22, r1
    34c0:	71 05       	cpc	r23, r1
    34c2:	21 f4       	brne	.+8      	; 0x34cc <f_lseek+0x17e>
    34c4:	82 e0       	ldi	r24, 0x02	; 2
    34c6:	f7 01       	movw	r30, r14
    34c8:	87 87       	std	Z+15, r24	; 0x0f
    34ca:	61 c0       	rjmp	.+194    	; 0x358e <f_lseek+0x240>
					if (clst == 0xFFFFFFFF) ABORT(fs, FR_DISK_ERR);
    34cc:	4f 3f       	cpi	r20, 0xFF	; 255
    34ce:	ff ef       	ldi	r31, 0xFF	; 255
    34d0:	5f 07       	cpc	r21, r31
    34d2:	ff ef       	ldi	r31, 0xFF	; 255
    34d4:	6f 07       	cpc	r22, r31
    34d6:	ff ef       	ldi	r31, 0xFF	; 255
    34d8:	7f 07       	cpc	r23, r31
    34da:	31 f4       	brne	.+12     	; 0x34e8 <f_lseek+0x19a>
    34dc:	81 e0       	ldi	r24, 0x01	; 1
    34de:	d7 01       	movw	r26, r14
    34e0:	1f 96       	adiw	r26, 0x0f	; 15
    34e2:	8c 93       	st	X, r24
    34e4:	1f 97       	sbiw	r26, 0x0f	; 15
    34e6:	fc c0       	rjmp	.+504    	; 0x36e0 <f_lseek+0x392>
					fp->obj.sclust = clst;
    34e8:	f7 01       	movw	r30, r14
    34ea:	46 83       	std	Z+6, r20	; 0x06
    34ec:	57 83       	std	Z+7, r21	; 0x07
    34ee:	60 87       	std	Z+8, r22	; 0x08
    34f0:	71 87       	std	Z+9, r23	; 0x09
				}
#endif
				fp->clust = clst;
    34f2:	d7 01       	movw	r26, r14
    34f4:	54 96       	adiw	r26, 0x14	; 20
    34f6:	4d 93       	st	X+, r20
    34f8:	5d 93       	st	X+, r21
    34fa:	6d 93       	st	X+, r22
    34fc:	7c 93       	st	X, r23
    34fe:	57 97       	sbiw	r26, 0x17	; 23
			}
			if (clst != 0) {
    3500:	41 15       	cp	r20, r1
    3502:	51 05       	cpc	r21, r1
    3504:	61 05       	cpc	r22, r1
    3506:	71 05       	cpc	r23, r1
    3508:	09 f4       	brne	.+2      	; 0x350c <f_lseek+0x1be>
    350a:	95 c0       	rjmp	.+298    	; 0x3636 <f_lseek+0x2e8>
    350c:	53 c0       	rjmp	.+166    	; 0x35b4 <f_lseek+0x266>
				while (ofs > bcs) {						/* Cluster following loop */
					ofs -= bcs; fp->fptr += bcs;
    350e:	f7 01       	movw	r30, r14
    3510:	80 89       	ldd	r24, Z+16	; 0x10
    3512:	91 89       	ldd	r25, Z+17	; 0x11
    3514:	a2 89       	ldd	r26, Z+18	; 0x12
    3516:	b3 89       	ldd	r27, Z+19	; 0x13
    3518:	86 0d       	add	r24, r6
    351a:	97 1d       	adc	r25, r7
    351c:	a8 1d       	adc	r26, r8
    351e:	b9 1d       	adc	r27, r9
    3520:	80 8b       	std	Z+16, r24	; 0x10
    3522:	91 8b       	std	Z+17, r25	; 0x11
    3524:	a2 8b       	std	Z+18, r26	; 0x12
    3526:	b3 8b       	std	Z+19, r27	; 0x13
#if !FF_FS_READONLY
					if (fp->flag & FA_WRITE) {			/* Check if in write mode or not */
    3528:	86 85       	ldd	r24, Z+14	; 0x0e
    352a:	81 ff       	sbrs	r24, 1
    352c:	0b c0       	rjmp	.+22     	; 0x3544 <f_lseek+0x1f6>
						if (FF_FS_EXFAT && fp->fptr > fp->obj.objsize) {	/* No FAT chain object needs correct objsize to generate FAT value */
							fp->obj.objsize = fp->fptr;
							fp->flag |= FA_MODIFIED;
						}
						clst = create_chain(&fp->obj, clst);	/* Follow chain with forceed stretch */
    352e:	c7 01       	movw	r24, r14
    3530:	0e 94 3e 0e 	call	0x1c7c	; 0x1c7c <create_chain.clone.3>
    3534:	ab 01       	movw	r20, r22
    3536:	bc 01       	movw	r22, r24
						if (clst == 0) {				/* Clip file size in case of disk full */
    3538:	41 15       	cp	r20, r1
    353a:	51 05       	cpc	r21, r1
    353c:	61 05       	cpc	r22, r1
    353e:	71 05       	cpc	r23, r1
    3540:	41 f4       	brne	.+16     	; 0x3552 <f_lseek+0x204>
    3542:	4a c0       	rjmp	.+148    	; 0x35d8 <f_lseek+0x28a>
							ofs = 0; break;
						}
					} else
#endif
					{
						clst = get_fat(&fp->obj, clst);	/* Follow cluster chain if not in write mode */
    3544:	d7 01       	movw	r26, r14
    3546:	8d 91       	ld	r24, X+
    3548:	9c 91       	ld	r25, X
    354a:	0e 94 73 0d 	call	0x1ae6	; 0x1ae6 <get_fat.clone.2>
    354e:	ab 01       	movw	r20, r22
    3550:	bc 01       	movw	r22, r24
					}
					if (clst == 0xFFFFFFFF) ABORT(fs, FR_DISK_ERR);
    3552:	4f 3f       	cpi	r20, 0xFF	; 255
    3554:	bf ef       	ldi	r27, 0xFF	; 255
    3556:	5b 07       	cpc	r21, r27
    3558:	bf ef       	ldi	r27, 0xFF	; 255
    355a:	6b 07       	cpc	r22, r27
    355c:	bf ef       	ldi	r27, 0xFF	; 255
    355e:	7b 07       	cpc	r23, r27
    3560:	09 f4       	brne	.+2      	; 0x3564 <f_lseek+0x216>
    3562:	bb c0       	rjmp	.+374    	; 0x36da <f_lseek+0x38c>
					if (clst <= 1 || clst >= fs->n_fatent) ABORT(fs, FR_INT_ERR);
    3564:	42 30       	cpi	r20, 0x02	; 2
    3566:	51 05       	cpc	r21, r1
    3568:	61 05       	cpc	r22, r1
    356a:	71 05       	cpc	r23, r1
    356c:	58 f0       	brcs	.+22     	; 0x3584 <f_lseek+0x236>
    356e:	e9 81       	ldd	r30, Y+1	; 0x01
    3570:	fa 81       	ldd	r31, Y+2	; 0x02
    3572:	84 89       	ldd	r24, Z+20	; 0x14
    3574:	95 89       	ldd	r25, Z+21	; 0x15
    3576:	a6 89       	ldd	r26, Z+22	; 0x16
    3578:	b7 89       	ldd	r27, Z+23	; 0x17
    357a:	48 17       	cp	r20, r24
    357c:	59 07       	cpc	r21, r25
    357e:	6a 07       	cpc	r22, r26
    3580:	7b 07       	cpc	r23, r27
    3582:	40 f0       	brcs	.+16     	; 0x3594 <f_lseek+0x246>
    3584:	82 e0       	ldi	r24, 0x02	; 2
    3586:	d7 01       	movw	r26, r14
    3588:	1f 96       	adiw	r26, 0x0f	; 15
    358a:	8c 93       	st	X, r24
    358c:	1f 97       	sbiw	r26, 0x0f	; 15
    358e:	32 e0       	ldi	r19, 0x02	; 2
    3590:	53 2e       	mov	r5, r19
    3592:	b0 c0       	rjmp	.+352    	; 0x36f4 <f_lseek+0x3a6>
    3594:	8b 81       	ldd	r24, Y+3	; 0x03
    3596:	9c 81       	ldd	r25, Y+4	; 0x04
    3598:	ad 81       	ldd	r26, Y+5	; 0x05
    359a:	be 81       	ldd	r27, Y+6	; 0x06
    359c:	a8 0e       	add	r10, r24
    359e:	b9 1e       	adc	r11, r25
    35a0:	ca 1e       	adc	r12, r26
    35a2:	db 1e       	adc	r13, r27
					fp->clust = clst;
    35a4:	d7 01       	movw	r26, r14
    35a6:	54 96       	adiw	r26, 0x14	; 20
    35a8:	4d 93       	st	X+, r20
    35aa:	5d 93       	st	X+, r21
    35ac:	6d 93       	st	X+, r22
    35ae:	7c 93       	st	X, r23
    35b0:	57 97       	sbiw	r26, 0x17	; 23
    35b2:	0b c0       	rjmp	.+22     	; 0x35ca <f_lseek+0x27c>
#if FF_FS_MINIMIZE <= 2
/*-----------------------------------------------------------------------*/
/* API: Seek File Read/Write Pointer                                     */
/*-----------------------------------------------------------------------*/

FRESULT f_lseek (
    35b4:	88 27       	eor	r24, r24
    35b6:	99 27       	eor	r25, r25
    35b8:	dc 01       	movw	r26, r24
    35ba:	86 19       	sub	r24, r6
    35bc:	97 09       	sbc	r25, r7
    35be:	a8 09       	sbc	r26, r8
    35c0:	b9 09       	sbc	r27, r9
    35c2:	8b 83       	std	Y+3, r24	; 0x03
    35c4:	9c 83       	std	Y+4, r25	; 0x04
    35c6:	ad 83       	std	Y+5, r26	; 0x05
    35c8:	be 83       	std	Y+6, r27	; 0x06
				}
#endif
				fp->clust = clst;
			}
			if (clst != 0) {
				while (ofs > bcs) {						/* Cluster following loop */
    35ca:	6a 14       	cp	r6, r10
    35cc:	7b 04       	cpc	r7, r11
    35ce:	8c 04       	cpc	r8, r12
    35d0:	9d 04       	cpc	r9, r13
    35d2:	08 f4       	brcc	.+2      	; 0x35d6 <f_lseek+0x288>
    35d4:	9c cf       	rjmp	.-200    	; 0x350e <f_lseek+0x1c0>
    35d6:	03 c0       	rjmp	.+6      	; 0x35de <f_lseek+0x290>
							fp->obj.objsize = fp->fptr;
							fp->flag |= FA_MODIFIED;
						}
						clst = create_chain(&fp->obj, clst);	/* Follow chain with forceed stretch */
						if (clst == 0) {				/* Clip file size in case of disk full */
							ofs = 0; break;
    35d8:	aa 24       	eor	r10, r10
    35da:	bb 24       	eor	r11, r11
    35dc:	65 01       	movw	r12, r10
					}
					if (clst == 0xFFFFFFFF) ABORT(fs, FR_DISK_ERR);
					if (clst <= 1 || clst >= fs->n_fatent) ABORT(fs, FR_INT_ERR);
					fp->clust = clst;
				}
				fp->fptr += ofs;
    35de:	f7 01       	movw	r30, r14
    35e0:	80 89       	ldd	r24, Z+16	; 0x10
    35e2:	91 89       	ldd	r25, Z+17	; 0x11
    35e4:	a2 89       	ldd	r26, Z+18	; 0x12
    35e6:	b3 89       	ldd	r27, Z+19	; 0x13
    35e8:	8a 0d       	add	r24, r10
    35ea:	9b 1d       	adc	r25, r11
    35ec:	ac 1d       	adc	r26, r12
    35ee:	bd 1d       	adc	r27, r13
    35f0:	80 8b       	std	Z+16, r24	; 0x10
    35f2:	91 8b       	std	Z+17, r25	; 0x11
    35f4:	a2 8b       	std	Z+18, r26	; 0x12
    35f6:	b3 8b       	std	Z+19, r27	; 0x13
				if (ofs % SS(fs)) {
    35f8:	d6 01       	movw	r26, r12
    35fa:	c5 01       	movw	r24, r10
    35fc:	91 70       	andi	r25, 0x01	; 1
    35fe:	a0 70       	andi	r26, 0x00	; 0
    3600:	b0 70       	andi	r27, 0x00	; 0
    3602:	00 97       	sbiw	r24, 0x00	; 0
    3604:	a1 05       	cpc	r26, r1
    3606:	b1 05       	cpc	r27, r1
    3608:	b1 f0       	breq	.+44     	; 0x3636 <f_lseek+0x2e8>
					nsect = clst2sect(fs, clst);	/* Current sector */
    360a:	89 81       	ldd	r24, Y+1	; 0x01
    360c:	9a 81       	ldd	r25, Y+2	; 0x02
    360e:	0e 94 fa 06 	call	0xdf4	; 0xdf4 <clst2sect>
					if (nsect == 0) ABORT(fs, FR_INT_ERR);
    3612:	61 15       	cp	r22, r1
    3614:	71 05       	cpc	r23, r1
    3616:	81 05       	cpc	r24, r1
    3618:	91 05       	cpc	r25, r1
    361a:	09 f4       	brne	.+2      	; 0x361e <f_lseek+0x2d0>
    361c:	b3 cf       	rjmp	.-154    	; 0x3584 <f_lseek+0x236>
					nsect += (DWORD)(ofs / SS(fs));
    361e:	29 e0       	ldi	r18, 0x09	; 9
    3620:	d6 94       	lsr	r13
    3622:	c7 94       	ror	r12
    3624:	b7 94       	ror	r11
    3626:	a7 94       	ror	r10
    3628:	2a 95       	dec	r18
    362a:	d1 f7       	brne	.-12     	; 0x3620 <f_lseek+0x2d2>
    362c:	a6 0e       	add	r10, r22
    362e:	b7 1e       	adc	r11, r23
    3630:	c8 1e       	adc	r12, r24
    3632:	d9 1e       	adc	r13, r25
    3634:	03 c0       	rjmp	.+6      	; 0x363c <f_lseek+0x2ee>
#endif
		if (ofs > fp->obj.objsize && (FF_FS_READONLY || !(fp->flag & FA_WRITE))) {	/* In read-only mode, clip offset with the file size */
			ofs = fp->obj.objsize;
		}
		ifptr = fp->fptr;
		fp->fptr = nsect = 0;
    3636:	aa 24       	eor	r10, r10
    3638:	bb 24       	eor	r11, r11
    363a:	65 01       	movw	r12, r10
					if (nsect == 0) ABORT(fs, FR_INT_ERR);
					nsect += (DWORD)(ofs / SS(fs));
				}
			}
		}
		if (!FF_FS_READONLY && fp->fptr > fp->obj.objsize) {	/* Set file change flag if the file size is extended */
    363c:	f7 01       	movw	r30, r14
    363e:	80 89       	ldd	r24, Z+16	; 0x10
    3640:	91 89       	ldd	r25, Z+17	; 0x11
    3642:	a2 89       	ldd	r26, Z+18	; 0x12
    3644:	b3 89       	ldd	r27, Z+19	; 0x13
    3646:	22 85       	ldd	r18, Z+10	; 0x0a
    3648:	33 85       	ldd	r19, Z+11	; 0x0b
    364a:	44 85       	ldd	r20, Z+12	; 0x0c
    364c:	55 85       	ldd	r21, Z+13	; 0x0d
    364e:	28 17       	cp	r18, r24
    3650:	39 07       	cpc	r19, r25
    3652:	4a 07       	cpc	r20, r26
    3654:	5b 07       	cpc	r21, r27
    3656:	38 f4       	brcc	.+14     	; 0x3666 <f_lseek+0x318>
			fp->obj.objsize = fp->fptr;
    3658:	82 87       	std	Z+10, r24	; 0x0a
    365a:	93 87       	std	Z+11, r25	; 0x0b
    365c:	a4 87       	std	Z+12, r26	; 0x0c
    365e:	b5 87       	std	Z+13, r27	; 0x0d
			fp->flag |= FA_MODIFIED;
    3660:	26 85       	ldd	r18, Z+14	; 0x0e
    3662:	20 64       	ori	r18, 0x40	; 64
    3664:	26 87       	std	Z+14, r18	; 0x0e
		}
		if (fp->fptr % SS(fs) && nsect != fp->sect) {	/* Fill sector cache if needed */
    3666:	91 70       	andi	r25, 0x01	; 1
    3668:	a0 70       	andi	r26, 0x00	; 0
    366a:	b0 70       	andi	r27, 0x00	; 0
    366c:	00 97       	sbiw	r24, 0x00	; 0
    366e:	a1 05       	cpc	r26, r1
    3670:	b1 05       	cpc	r27, r1
    3672:	09 f4       	brne	.+2      	; 0x3676 <f_lseek+0x328>
    3674:	3f c0       	rjmp	.+126    	; 0x36f4 <f_lseek+0x3a6>
    3676:	d7 01       	movw	r26, r14
    3678:	58 96       	adiw	r26, 0x18	; 24
    367a:	2d 91       	ld	r18, X+
    367c:	3d 91       	ld	r19, X+
    367e:	4d 91       	ld	r20, X+
    3680:	5c 91       	ld	r21, X
    3682:	5b 97       	sbiw	r26, 0x1b	; 27
    3684:	a2 16       	cp	r10, r18
    3686:	b3 06       	cpc	r11, r19
    3688:	c4 06       	cpc	r12, r20
    368a:	d5 06       	cpc	r13, r21
    368c:	99 f1       	breq	.+102    	; 0x36f4 <f_lseek+0x3a6>
#if !FF_FS_TINY
#if !FF_FS_READONLY
			if (fp->flag & FA_DIRTY) {			/* Write-back dirty sector cache */
    368e:	1e 96       	adiw	r26, 0x0e	; 14
    3690:	8c 91       	ld	r24, X
    3692:	1e 97       	sbiw	r26, 0x0e	; 14
    3694:	87 ff       	sbrs	r24, 7
    3696:	13 c0       	rjmp	.+38     	; 0x36be <f_lseek+0x370>
				if (disk_write(fs->pdrv, fp->buf, fp->sect, 1) != RES_OK) ABORT(fs, FR_DISK_ERR);
    3698:	e9 81       	ldd	r30, Y+1	; 0x01
    369a:	fa 81       	ldd	r31, Y+2	; 0x02
    369c:	b7 01       	movw	r22, r14
    369e:	6e 5d       	subi	r22, 0xDE	; 222
    36a0:	7f 4f       	sbci	r23, 0xFF	; 255
    36a2:	81 81       	ldd	r24, Z+1	; 0x01
    36a4:	01 e0       	ldi	r16, 0x01	; 1
    36a6:	10 e0       	ldi	r17, 0x00	; 0
    36a8:	0e 94 4d 06 	call	0xc9a	; 0xc9a <disk_write>
    36ac:	88 23       	and	r24, r24
    36ae:	a9 f4       	brne	.+42     	; 0x36da <f_lseek+0x38c>
				fp->flag &= (BYTE)~FA_DIRTY;
    36b0:	d7 01       	movw	r26, r14
    36b2:	1e 96       	adiw	r26, 0x0e	; 14
    36b4:	8c 91       	ld	r24, X
    36b6:	1e 97       	sbiw	r26, 0x0e	; 14
    36b8:	8f 77       	andi	r24, 0x7F	; 127
    36ba:	1e 96       	adiw	r26, 0x0e	; 14
    36bc:	8c 93       	st	X, r24
			}
#endif
			if (disk_read(fs->pdrv, fp->buf, nsect, 1) != RES_OK) ABORT(fs, FR_DISK_ERR);	/* Fill sector cache */
    36be:	e9 81       	ldd	r30, Y+1	; 0x01
    36c0:	fa 81       	ldd	r31, Y+2	; 0x02
    36c2:	b7 01       	movw	r22, r14
    36c4:	6e 5d       	subi	r22, 0xDE	; 222
    36c6:	7f 4f       	sbci	r23, 0xFF	; 255
    36c8:	81 81       	ldd	r24, Z+1	; 0x01
    36ca:	a6 01       	movw	r20, r12
    36cc:	95 01       	movw	r18, r10
    36ce:	01 e0       	ldi	r16, 0x01	; 1
    36d0:	10 e0       	ldi	r17, 0x00	; 0
    36d2:	0e 94 07 06 	call	0xc0e	; 0xc0e <disk_read>
    36d6:	88 23       	and	r24, r24
    36d8:	31 f0       	breq	.+12     	; 0x36e6 <f_lseek+0x398>
    36da:	81 e0       	ldi	r24, 0x01	; 1
    36dc:	f7 01       	movw	r30, r14
    36de:	87 87       	std	Z+15, r24	; 0x0f
    36e0:	55 24       	eor	r5, r5
    36e2:	53 94       	inc	r5
    36e4:	07 c0       	rjmp	.+14     	; 0x36f4 <f_lseek+0x3a6>
#endif
			fp->sect = nsect;
    36e6:	d7 01       	movw	r26, r14
    36e8:	58 96       	adiw	r26, 0x18	; 24
    36ea:	ad 92       	st	X+, r10
    36ec:	bd 92       	st	X+, r11
    36ee:	cd 92       	st	X+, r12
    36f0:	dc 92       	st	X, r13
    36f2:	5b 97       	sbiw	r26, 0x1b	; 27
		}
	}

	LEAVE_FF(fs, res);
}
    36f4:	85 2d       	mov	r24, r5
    36f6:	2a 96       	adiw	r28, 0x0a	; 10
    36f8:	0f b6       	in	r0, 0x3f	; 63
    36fa:	f8 94       	cli
    36fc:	de bf       	out	0x3e, r29	; 62
    36fe:	0f be       	out	0x3f, r0	; 63
    3700:	cd bf       	out	0x3d, r28	; 61
    3702:	cf 91       	pop	r28
    3704:	df 91       	pop	r29
    3706:	1f 91       	pop	r17
    3708:	0f 91       	pop	r16
    370a:	ff 90       	pop	r15
    370c:	ef 90       	pop	r14
    370e:	df 90       	pop	r13
    3710:	cf 90       	pop	r12
    3712:	bf 90       	pop	r11
    3714:	af 90       	pop	r10
    3716:	9f 90       	pop	r9
    3718:	8f 90       	pop	r8
    371a:	7f 90       	pop	r7
    371c:	6f 90       	pop	r6
    371e:	5f 90       	pop	r5
    3720:	08 95       	ret

00003722 <f_opendir>:

FRESULT f_opendir (
	DIR* dp,			/* Pointer to directory object to create */
	const TCHAR* path	/* Pointer to the directory path */
)
{
    3722:	0f 93       	push	r16
    3724:	1f 93       	push	r17
    3726:	df 93       	push	r29
    3728:	cf 93       	push	r28
    372a:	00 d0       	rcall	.+0      	; 0x372c <f_opendir+0xa>
    372c:	00 d0       	rcall	.+0      	; 0x372e <f_opendir+0xc>
    372e:	cd b7       	in	r28, 0x3d	; 61
    3730:	de b7       	in	r29, 0x3e	; 62
    3732:	8c 01       	movw	r16, r24
    3734:	7c 83       	std	Y+4, r23	; 0x04
    3736:	6b 83       	std	Y+3, r22	; 0x03
	FRESULT res;
	FATFS *fs;
	DEF_NAMEBUFF


	if (!dp) return FR_INVALID_OBJECT;	/* Reject null pointer */
    3738:	00 97       	sbiw	r24, 0x00	; 0
    373a:	09 f4       	brne	.+2      	; 0x373e <f_opendir+0x1c>
    373c:	42 c0       	rjmp	.+132    	; 0x37c2 <f_opendir+0xa0>

	res = mount_volume(&path, &fs, 0);	/* Get logical drive and mount the volume if needed */
    373e:	ce 01       	movw	r24, r28
    3740:	03 96       	adiw	r24, 0x03	; 3
    3742:	be 01       	movw	r22, r28
    3744:	6f 5f       	subi	r22, 0xFF	; 255
    3746:	7f 4f       	sbci	r23, 0xFF	; 255
    3748:	40 e0       	ldi	r20, 0x00	; 0
    374a:	0e 94 0b 09 	call	0x1216	; 0x1216 <mount_volume>
	if (res == FR_OK) {
    374e:	88 23       	and	r24, r24
    3750:	a1 f5       	brne	.+104    	; 0x37ba <f_opendir+0x98>
		dp->obj.fs = fs;
    3752:	89 81       	ldd	r24, Y+1	; 0x01
    3754:	9a 81       	ldd	r25, Y+2	; 0x02
    3756:	d8 01       	movw	r26, r16
    3758:	8d 93       	st	X+, r24
    375a:	9c 93       	st	X, r25
		INIT_NAMEBUFF(fs);
		res = follow_path(dp, path);			/* Follow the path to the directory */
    375c:	6b 81       	ldd	r22, Y+3	; 0x03
    375e:	7c 81       	ldd	r23, Y+4	; 0x04
    3760:	c8 01       	movw	r24, r16
    3762:	0e 94 1f 12 	call	0x243e	; 0x243e <follow_path>
		if (res == FR_OK) {						/* Follow completed */
    3766:	88 23       	and	r24, r24
    3768:	11 f5       	brne	.+68     	; 0x37ae <f_opendir+0x8c>
			if (!(dp->fn[NSFLAG] & NS_NONAME)) {	/* It is neither the origin directory itself nor dot name in exFAT */
    376a:	f8 01       	movw	r30, r16
    376c:	87 a1       	ldd	r24, Z+39	; 0x27
    376e:	87 fd       	sbrc	r24, 7
    3770:	12 c0       	rjmp	.+36     	; 0x3796 <f_opendir+0x74>
				if (dp->obj.attr & AM_DIR) {		/* This object is a sub-directory */
    3772:	84 81       	ldd	r24, Z+4	; 0x04
    3774:	84 ff       	sbrs	r24, 4
    3776:	20 c0       	rjmp	.+64     	; 0x37b8 <f_opendir+0x96>
		}
		FREE_NAMEBUFF();
	}

	LEAVE_FF(fs, res);
}
    3778:	e9 81       	ldd	r30, Y+1	; 0x01
    377a:	fa 81       	ldd	r31, Y+2	; 0x02
					if (fs->fs_type == FS_EXFAT) {
						init_alloc_info(&dp->obj, dp);	/* Get object allocation info */
					} else
#endif
					{
						dp->obj.sclust = ld_clust(fs, dp->dir);	/* Get object allocation info */
    377c:	d8 01       	movw	r26, r16
    377e:	5a 96       	adiw	r26, 0x1a	; 26
    3780:	6d 91       	ld	r22, X+
    3782:	7c 91       	ld	r23, X
    3784:	5b 97       	sbiw	r26, 0x1b	; 27
    3786:	80 81       	ld	r24, Z
    3788:	0e 94 3c 0d 	call	0x1a78	; 0x1a78 <ld_clust.clone.0>
    378c:	f8 01       	movw	r30, r16
    378e:	66 83       	std	Z+6, r22	; 0x06
    3790:	77 83       	std	Z+7, r23	; 0x07
    3792:	80 87       	std	Z+8, r24	; 0x08
    3794:	91 87       	std	Z+9, r25	; 0x09
				} else {						/* This object is a file */
					res = FR_NO_PATH;
				}
			}
			if (res == FR_OK) {
				dp->obj.id = fs->id;		/* Set current volume mount ID */
    3796:	e9 81       	ldd	r30, Y+1	; 0x01
    3798:	fa 81       	ldd	r31, Y+2	; 0x02
    379a:	86 81       	ldd	r24, Z+6	; 0x06
    379c:	97 81       	ldd	r25, Z+7	; 0x07
    379e:	d8 01       	movw	r26, r16
    37a0:	13 96       	adiw	r26, 0x03	; 3
    37a2:	9c 93       	st	X, r25
    37a4:	8e 93       	st	-X, r24
    37a6:	12 97       	sbiw	r26, 0x02	; 2
				res = dir_sdi(dp, 0);		/* Rewind directory */
    37a8:	c8 01       	movw	r24, r16
    37aa:	0e 94 54 11 	call	0x22a8	; 0x22a8 <dir_sdi.clone.5>
				}
#endif
			}
		}
		FREE_NAMEBUFF();
		if (res == FR_NO_FILE) res = FR_NO_PATH;
    37ae:	84 30       	cpi	r24, 0x04	; 4
    37b0:	19 f0       	breq	.+6      	; 0x37b8 <f_opendir+0x96>
	}
	if (res != FR_OK) dp->obj.fs = 0;		/* Invalidate the directory object if function failed */
    37b2:	88 23       	and	r24, r24
    37b4:	39 f0       	breq	.+14     	; 0x37c4 <f_opendir+0xa2>
    37b6:	01 c0       	rjmp	.+2      	; 0x37ba <f_opendir+0x98>
#endif
					{
						dp->obj.sclust = ld_clust(fs, dp->dir);	/* Get object allocation info */
					}
				} else {						/* This object is a file */
					res = FR_NO_PATH;
    37b8:	85 e0       	ldi	r24, 0x05	; 5
			}
		}
		FREE_NAMEBUFF();
		if (res == FR_NO_FILE) res = FR_NO_PATH;
	}
	if (res != FR_OK) dp->obj.fs = 0;		/* Invalidate the directory object if function failed */
    37ba:	f8 01       	movw	r30, r16
    37bc:	11 82       	std	Z+1, r1	; 0x01
    37be:	10 82       	st	Z, r1
    37c0:	01 c0       	rjmp	.+2      	; 0x37c4 <f_opendir+0xa2>
	FRESULT res;
	FATFS *fs;
	DEF_NAMEBUFF


	if (!dp) return FR_INVALID_OBJECT;	/* Reject null pointer */
    37c2:	89 e0       	ldi	r24, 0x09	; 9
		if (res == FR_NO_FILE) res = FR_NO_PATH;
	}
	if (res != FR_OK) dp->obj.fs = 0;		/* Invalidate the directory object if function failed */

	LEAVE_FF(fs, res);
}
    37c4:	0f 90       	pop	r0
    37c6:	0f 90       	pop	r0
    37c8:	0f 90       	pop	r0
    37ca:	0f 90       	pop	r0
    37cc:	cf 91       	pop	r28
    37ce:	df 91       	pop	r29
    37d0:	1f 91       	pop	r17
    37d2:	0f 91       	pop	r16
    37d4:	08 95       	ret

000037d6 <f_closedir>:
/*-----------------------------------------------------------------------*/

FRESULT f_closedir (
	DIR *dp		/* Pointer to the directory object to be closed */
)
{
    37d6:	0f 93       	push	r16
    37d8:	1f 93       	push	r17
    37da:	df 93       	push	r29
    37dc:	cf 93       	push	r28
    37de:	00 d0       	rcall	.+0      	; 0x37e0 <f_closedir+0xa>
    37e0:	cd b7       	in	r28, 0x3d	; 61
    37e2:	de b7       	in	r29, 0x3e	; 62
    37e4:	8c 01       	movw	r16, r24
	FRESULT res;
	FATFS *fs;


	res = validate(&dp->obj, &fs);	/* Check validity of the file object */
    37e6:	be 01       	movw	r22, r28
    37e8:	6f 5f       	subi	r22, 0xFF	; 255
    37ea:	7f 4f       	sbci	r23, 0xFF	; 255
    37ec:	0e 94 4e 07 	call	0xe9c	; 0xe9c <validate>
	if (res == FR_OK) {
    37f0:	88 23       	and	r24, r24
    37f2:	19 f4       	brne	.+6      	; 0x37fa <f_closedir+0x24>
#if FF_FS_LOCK
		if (dp->obj.lockid) res = dec_share(dp->obj.lockid);	/* Decrement sub-directory open counter */
		if (res == FR_OK) dp->obj.fs = 0;	/* Invalidate directory object */
#else
		dp->obj.fs = 0;	/* Invalidate directory object */
    37f4:	f8 01       	movw	r30, r16
    37f6:	11 82       	std	Z+1, r1	; 0x01
    37f8:	10 82       	st	Z, r1
#if FF_FS_REENTRANT
		unlock_volume(fs, FR_OK);	/* Unlock volume */
#endif
	}
	return res;
}
    37fa:	0f 90       	pop	r0
    37fc:	0f 90       	pop	r0
    37fe:	cf 91       	pop	r28
    3800:	df 91       	pop	r29
    3802:	1f 91       	pop	r17
    3804:	0f 91       	pop	r16
    3806:	08 95       	ret

00003808 <f_stat>:

FRESULT f_stat (
	const TCHAR* path,	/* Pointer to the file path */
	FILINFO* fno		/* Pointer to file information to return */
)
{
    3808:	df 92       	push	r13
    380a:	ef 92       	push	r14
    380c:	ff 92       	push	r15
    380e:	0f 93       	push	r16
    3810:	1f 93       	push	r17
    3812:	df 93       	push	r29
    3814:	cf 93       	push	r28
    3816:	cd b7       	in	r28, 0x3d	; 61
    3818:	de b7       	in	r29, 0x3e	; 62
    381a:	aa 97       	sbiw	r28, 0x2a	; 42
    381c:	0f b6       	in	r0, 0x3f	; 63
    381e:	f8 94       	cli
    3820:	de bf       	out	0x3e, r29	; 62
    3822:	0f be       	out	0x3f, r0	; 63
    3824:	cd bf       	out	0x3d, r28	; 61
    3826:	9a a7       	std	Y+42, r25	; 0x2a
    3828:	89 a7       	std	Y+41, r24	; 0x29
    382a:	8b 01       	movw	r16, r22
	DIR dj;
	DEF_NAMEBUFF


	/* Get logical drive and mount the volume if needed */
	res = mount_volume(&path, &dj.obj.fs, 0);
    382c:	ce 01       	movw	r24, r28
    382e:	89 96       	adiw	r24, 0x29	; 41
    3830:	7e 01       	movw	r14, r28
    3832:	08 94       	sec
    3834:	e1 1c       	adc	r14, r1
    3836:	f1 1c       	adc	r15, r1
    3838:	b7 01       	movw	r22, r14
    383a:	40 e0       	ldi	r20, 0x00	; 0
    383c:	0e 94 0b 09 	call	0x1216	; 0x1216 <mount_volume>
    3840:	d8 2e       	mov	r13, r24

	if (res == FR_OK) {
    3842:	88 23       	and	r24, r24
    3844:	09 f0       	breq	.+2      	; 0x3848 <f_stat+0x40>
    3846:	61 c0       	rjmp	.+194    	; 0x390a <f_stat+0x102>
		INIT_NAMEBUFF(dj.obj.fs);
		res = follow_path(&dj, path);	/* Follow the file path */
    3848:	69 a5       	ldd	r22, Y+41	; 0x29
    384a:	7a a5       	ldd	r23, Y+42	; 0x2a
    384c:	c7 01       	movw	r24, r14
    384e:	0e 94 1f 12 	call	0x243e	; 0x243e <follow_path>
    3852:	d8 2e       	mov	r13, r24
		if (res == FR_OK) {				/* Follow completed */
    3854:	88 23       	and	r24, r24
    3856:	09 f0       	breq	.+2      	; 0x385a <f_stat+0x52>
    3858:	58 c0       	rjmp	.+176    	; 0x390a <f_stat+0x102>
			if (dj.fn[NSFLAG] & NS_NONAME) {	/* It is origin directory */
    385a:	88 a5       	ldd	r24, Y+40	; 0x28
    385c:	87 fd       	sbrc	r24, 7
    385e:	53 c0       	rjmp	.+166    	; 0x3906 <f_stat+0xfe>
				res = FR_INVALID_NAME;
			} else {							/* Found an object */
				if (fno) get_fileinfo(&dj, fno);
    3860:	01 15       	cp	r16, r1
    3862:	11 05       	cpc	r17, r1
    3864:	09 f4       	brne	.+2      	; 0x3868 <f_stat+0x60>
    3866:	56 c0       	rjmp	.+172    	; 0x3914 <f_stat+0x10c>
#else
	TCHAR c;
#endif


	fno->fname[0] = 0;
    3868:	f8 01       	movw	r30, r16
    386a:	11 86       	std	Z+9, r1	; 0x09
	if (dp->sect == 0) return;	/* Exit if read pointer has reached end of directory */
    386c:	8f 89       	ldd	r24, Y+23	; 0x17
    386e:	98 8d       	ldd	r25, Y+24	; 0x18
    3870:	a9 8d       	ldd	r26, Y+25	; 0x19
    3872:	ba 8d       	ldd	r27, Y+26	; 0x1a
    3874:	00 97       	sbiw	r24, 0x00	; 0
    3876:	a1 05       	cpc	r26, r1
    3878:	b1 05       	cpc	r27, r1
    387a:	09 f4       	brne	.+2      	; 0x387e <f_stat+0x76>
    387c:	4b c0       	rjmp	.+150    	; 0x3914 <f_stat+0x10c>
	}

#else	/* Non-LFN configuration */
	si = di = 0;
	while (si < 11) {		/* Copy name body and extension */
		c = (TCHAR)dp->dir[si++];
    387e:	eb 8c       	ldd	r14, Y+27	; 0x1b
    3880:	fc 8c       	ldd	r15, Y+28	; 0x1c
    3882:	f7 01       	movw	r30, r14
    3884:	80 e0       	ldi	r24, 0x00	; 0
    3886:	90 e0       	ldi	r25, 0x00	; 0
    3888:	20 e0       	ldi	r18, 0x00	; 0
    388a:	30 e0       	ldi	r19, 0x00	; 0
		if (c == ' ') continue;		/* Skip padding spaces */
		if (c == RDDEM) c = DDEM;	/* Restore replaced DDEM character */
		if (si == 9) fno->fname[di++] = '.';/* Insert a . if extension is exist */
    388c:	5e e2       	ldi	r21, 0x2E	; 46
	}

#else	/* Non-LFN configuration */
	si = di = 0;
	while (si < 11) {		/* Copy name body and extension */
		c = (TCHAR)dp->dir[si++];
    388e:	41 91       	ld	r20, Z+
    3890:	2f 5f       	subi	r18, 0xFF	; 255
    3892:	3f 4f       	sbci	r19, 0xFF	; 255
		if (c == ' ') continue;		/* Skip padding spaces */
    3894:	40 32       	cpi	r20, 0x20	; 32
    3896:	99 f0       	breq	.+38     	; 0x38be <f_stat+0xb6>
		if (c == RDDEM) c = DDEM;	/* Restore replaced DDEM character */
    3898:	45 30       	cpi	r20, 0x05	; 5
    389a:	09 f4       	brne	.+2      	; 0x389e <f_stat+0x96>
    389c:	45 ee       	ldi	r20, 0xE5	; 229
		if (si == 9) fno->fname[di++] = '.';/* Insert a . if extension is exist */
    389e:	29 30       	cpi	r18, 0x09	; 9
    38a0:	31 05       	cpc	r19, r1
    38a2:	31 f4       	brne	.+12     	; 0x38b0 <f_stat+0xa8>
    38a4:	d8 01       	movw	r26, r16
    38a6:	a8 0f       	add	r26, r24
    38a8:	b9 1f       	adc	r27, r25
    38aa:	19 96       	adiw	r26, 0x09	; 9
    38ac:	5c 93       	st	X, r21
    38ae:	01 96       	adiw	r24, 0x01	; 1
		fno->fname[di++] = c;
    38b0:	d8 01       	movw	r26, r16
    38b2:	a8 0f       	add	r26, r24
    38b4:	b9 1f       	adc	r27, r25
    38b6:	19 96       	adiw	r26, 0x09	; 9
    38b8:	4c 93       	st	X, r20
    38ba:	19 97       	sbiw	r26, 0x09	; 9
    38bc:	01 96       	adiw	r24, 0x01	; 1
		if (!dp->dir[DIR_NTres]) fno->altname[0] = 0;	/* Altname is not needed if neither LFN nor case info is exist. */
	}

#else	/* Non-LFN configuration */
	si = di = 0;
	while (si < 11) {		/* Copy name body and extension */
    38be:	2b 30       	cpi	r18, 0x0B	; 11
    38c0:	31 05       	cpc	r19, r1
    38c2:	29 f7       	brne	.-54     	; 0x388e <f_stat+0x86>
		if (c == ' ') continue;		/* Skip padding spaces */
		if (c == RDDEM) c = DDEM;	/* Restore replaced DDEM character */
		if (si == 9) fno->fname[di++] = '.';/* Insert a . if extension is exist */
		fno->fname[di++] = c;
	}
	fno->fname[di] = 0;		/* Terminate the SFN */
    38c4:	80 0f       	add	r24, r16
    38c6:	91 1f       	adc	r25, r17
    38c8:	fc 01       	movw	r30, r24
    38ca:	11 86       	std	Z+9, r1	; 0x09
#endif

	fno->fattrib = dp->dir[DIR_Attr] & AM_MASK;		/* Attribute */
    38cc:	f7 01       	movw	r30, r14
    38ce:	83 85       	ldd	r24, Z+11	; 0x0b
    38d0:	8f 73       	andi	r24, 0x3F	; 63
    38d2:	f8 01       	movw	r30, r16
    38d4:	80 87       	std	Z+8, r24	; 0x08
	fno->fsize = ld_32(dp->dir + DIR_FileSize);		/* Size */
    38d6:	c7 01       	movw	r24, r14
    38d8:	4c 96       	adiw	r24, 0x1c	; 28
    38da:	0e 94 c5 06 	call	0xd8a	; 0xd8a <ld_32>
    38de:	f8 01       	movw	r30, r16
    38e0:	60 83       	st	Z, r22
    38e2:	71 83       	std	Z+1, r23	; 0x01
    38e4:	82 83       	std	Z+2, r24	; 0x02
    38e6:	93 83       	std	Z+3, r25	; 0x03
	fno->ftime = ld_16(dp->dir + DIR_ModTime + 0);	/* Last modified time */
    38e8:	c7 01       	movw	r24, r14
    38ea:	46 96       	adiw	r24, 0x16	; 22
    38ec:	0e 94 bc 06 	call	0xd78	; 0xd78 <ld_16>
    38f0:	f8 01       	movw	r30, r16
    38f2:	97 83       	std	Z+7, r25	; 0x07
    38f4:	86 83       	std	Z+6, r24	; 0x06
	fno->fdate = ld_16(dp->dir + DIR_ModTime + 2);	/* Last Modified date */
    38f6:	c7 01       	movw	r24, r14
    38f8:	48 96       	adiw	r24, 0x18	; 24
    38fa:	0e 94 bc 06 	call	0xd78	; 0xd78 <ld_16>
    38fe:	f8 01       	movw	r30, r16
    3900:	95 83       	std	Z+5, r25	; 0x05
    3902:	84 83       	std	Z+4, r24	; 0x04
    3904:	07 c0       	rjmp	.+14     	; 0x3914 <f_stat+0x10c>
	if (res == FR_OK) {
		INIT_NAMEBUFF(dj.obj.fs);
		res = follow_path(&dj, path);	/* Follow the file path */
		if (res == FR_OK) {				/* Follow completed */
			if (dj.fn[NSFLAG] & NS_NONAME) {	/* It is origin directory */
				res = FR_INVALID_NAME;
    3906:	56 e0       	ldi	r21, 0x06	; 6
    3908:	d5 2e       	mov	r13, r21
			}
		}
		FREE_NAMEBUFF();
	}

	if (fno && res != FR_OK) fno->fname[0] = 0;	/* Invalidate the file information if an error occured */
    390a:	01 15       	cp	r16, r1
    390c:	11 05       	cpc	r17, r1
    390e:	11 f0       	breq	.+4      	; 0x3914 <f_stat+0x10c>
    3910:	f8 01       	movw	r30, r16
    3912:	11 86       	std	Z+9, r1	; 0x09
	LEAVE_FF(dj.obj.fs, res);
}
    3914:	8d 2d       	mov	r24, r13
    3916:	aa 96       	adiw	r28, 0x2a	; 42
    3918:	0f b6       	in	r0, 0x3f	; 63
    391a:	f8 94       	cli
    391c:	de bf       	out	0x3e, r29	; 62
    391e:	0f be       	out	0x3f, r0	; 63
    3920:	cd bf       	out	0x3d, r28	; 61
    3922:	cf 91       	pop	r28
    3924:	df 91       	pop	r29
    3926:	1f 91       	pop	r17
    3928:	0f 91       	pop	r16
    392a:	ff 90       	pop	r15
    392c:	ef 90       	pop	r14
    392e:	df 90       	pop	r13
    3930:	08 95       	ret

00003932 <f_getfree>:
FRESULT f_getfree (
	const TCHAR* path,	/* Logical drive number */
	DWORD* nclst,		/* Pointer to a variable to return number of free clusters */
	FATFS** fatfs		/* Pointer to a pointer to return corresponding filesystem object */
)
{
    3932:	3f 92       	push	r3
    3934:	4f 92       	push	r4
    3936:	5f 92       	push	r5
    3938:	6f 92       	push	r6
    393a:	7f 92       	push	r7
    393c:	8f 92       	push	r8
    393e:	9f 92       	push	r9
    3940:	af 92       	push	r10
    3942:	bf 92       	push	r11
    3944:	cf 92       	push	r12
    3946:	df 92       	push	r13
    3948:	ef 92       	push	r14
    394a:	ff 92       	push	r15
    394c:	0f 93       	push	r16
    394e:	1f 93       	push	r17
    3950:	df 93       	push	r29
    3952:	cf 93       	push	r28
    3954:	00 d0       	rcall	.+0      	; 0x3956 <f_getfree+0x24>
    3956:	00 d0       	rcall	.+0      	; 0x3958 <f_getfree+0x26>
    3958:	00 d0       	rcall	.+0      	; 0x395a <f_getfree+0x28>
    395a:	cd b7       	in	r28, 0x3d	; 61
    395c:	de b7       	in	r29, 0x3e	; 62
    395e:	9c 83       	std	Y+4, r25	; 0x04
    3960:	8b 83       	std	Y+3, r24	; 0x03
    3962:	7e 83       	std	Y+6, r23	; 0x06
    3964:	6d 83       	std	Y+5, r22	; 0x05
    3966:	7a 01       	movw	r14, r20
	UINT i;
	FFOBJID obj;


	/* Get logical drive and mount the volume if needed */
	res = mount_volume(&path, &fs, 0);
    3968:	ce 01       	movw	r24, r28
    396a:	03 96       	adiw	r24, 0x03	; 3
    396c:	be 01       	movw	r22, r28
    396e:	6f 5f       	subi	r22, 0xFF	; 255
    3970:	7f 4f       	sbci	r23, 0xFF	; 255
    3972:	40 e0       	ldi	r20, 0x00	; 0
    3974:	0e 94 0b 09 	call	0x1216	; 0x1216 <mount_volume>
    3978:	38 2e       	mov	r3, r24

	if (res == FR_OK) {
    397a:	88 23       	and	r24, r24
    397c:	09 f0       	breq	.+2      	; 0x3980 <f_getfree+0x4e>
    397e:	b1 c0       	rjmp	.+354    	; 0x3ae2 <f_getfree+0x1b0>
		*fatfs = fs;				/* Return ptr to the fs object */
    3980:	c9 80       	ldd	r12, Y+1	; 0x01
    3982:	da 80       	ldd	r13, Y+2	; 0x02
    3984:	f7 01       	movw	r30, r14
    3986:	d1 82       	std	Z+1, r13	; 0x01
    3988:	c0 82       	st	Z, r12
		/* If free_clst is valid, return it without full FAT scan */
		if (fs->free_clst <= fs->n_fatent - 2) {
    398a:	f6 01       	movw	r30, r12
    398c:	80 89       	ldd	r24, Z+16	; 0x10
    398e:	91 89       	ldd	r25, Z+17	; 0x11
    3990:	a2 89       	ldd	r26, Z+18	; 0x12
    3992:	b3 89       	ldd	r27, Z+19	; 0x13
    3994:	44 88       	ldd	r4, Z+20	; 0x14
    3996:	55 88       	ldd	r5, Z+21	; 0x15
    3998:	66 88       	ldd	r6, Z+22	; 0x16
    399a:	77 88       	ldd	r7, Z+23	; 0x17
    399c:	a3 01       	movw	r20, r6
    399e:	92 01       	movw	r18, r4
    39a0:	22 50       	subi	r18, 0x02	; 2
    39a2:	30 40       	sbci	r19, 0x00	; 0
    39a4:	40 40       	sbci	r20, 0x00	; 0
    39a6:	50 40       	sbci	r21, 0x00	; 0
    39a8:	28 17       	cp	r18, r24
    39aa:	39 07       	cpc	r19, r25
    39ac:	4a 07       	cpc	r20, r26
    39ae:	5b 07       	cpc	r21, r27
    39b0:	38 f0       	brcs	.+14     	; 0x39c0 <f_getfree+0x8e>
			*nclst = fs->free_clst;
    39b2:	ed 81       	ldd	r30, Y+5	; 0x05
    39b4:	fe 81       	ldd	r31, Y+6	; 0x06
    39b6:	80 83       	st	Z, r24
    39b8:	91 83       	std	Z+1, r25	; 0x01
    39ba:	a2 83       	std	Z+2, r26	; 0x02
    39bc:	b3 83       	std	Z+3, r27	; 0x03
    39be:	91 c0       	rjmp	.+290    	; 0x3ae2 <f_getfree+0x1b0>
		} else {
			/* Scan FAT to obtain the correct free cluster count */
			nfree = 0;
			if (fs->fs_type == FS_FAT12) {	/* FAT12: Scan bit field FAT entries */
    39c0:	f6 01       	movw	r30, r12
    39c2:	80 81       	ld	r24, Z
    39c4:	81 30       	cpi	r24, 0x01	; 1
    39c6:	b9 f5       	brne	.+110    	; 0x3a36 <f_getfree+0x104>
    39c8:	72 e0       	ldi	r23, 0x02	; 2
    39ca:	87 2e       	mov	r8, r23
    39cc:	91 2c       	mov	r9, r1
    39ce:	a1 2c       	mov	r10, r1
    39d0:	b1 2c       	mov	r11, r1
    39d2:	ee 24       	eor	r14, r14
    39d4:	ff 24       	eor	r15, r15
    39d6:	87 01       	movw	r16, r14
				clst = 2; obj.fs = fs;
				do {
					stat = get_fat(&obj, clst);
    39d8:	c6 01       	movw	r24, r12
    39da:	b5 01       	movw	r22, r10
    39dc:	a4 01       	movw	r20, r8
    39de:	0e 94 73 0d 	call	0x1ae6	; 0x1ae6 <get_fat.clone.2>
					if (stat == 0xFFFFFFFF) {
    39e2:	6f 3f       	cpi	r22, 0xFF	; 255
    39e4:	ff ef       	ldi	r31, 0xFF	; 255
    39e6:	7f 07       	cpc	r23, r31
    39e8:	ff ef       	ldi	r31, 0xFF	; 255
    39ea:	8f 07       	cpc	r24, r31
    39ec:	ff ef       	ldi	r31, 0xFF	; 255
    39ee:	9f 07       	cpc	r25, r31
    39f0:	09 f4       	brne	.+2      	; 0x39f4 <f_getfree+0xc2>
    39f2:	73 c0       	rjmp	.+230    	; 0x3ada <f_getfree+0x1a8>
						res = FR_DISK_ERR; break;
					}
					if (stat == 1) {
    39f4:	61 30       	cpi	r22, 0x01	; 1
    39f6:	71 05       	cpc	r23, r1
    39f8:	81 05       	cpc	r24, r1
    39fa:	91 05       	cpc	r25, r1
    39fc:	09 f4       	brne	.+2      	; 0x3a00 <f_getfree+0xce>
    39fe:	6f c0       	rjmp	.+222    	; 0x3ade <f_getfree+0x1ac>
						res = FR_INT_ERR; break;
					}
					if (stat == 0) nfree++;
    3a00:	61 15       	cp	r22, r1
    3a02:	71 05       	cpc	r23, r1
    3a04:	81 05       	cpc	r24, r1
    3a06:	91 05       	cpc	r25, r1
    3a08:	29 f4       	brne	.+10     	; 0x3a14 <f_getfree+0xe2>
    3a0a:	08 94       	sec
    3a0c:	e1 1c       	adc	r14, r1
    3a0e:	f1 1c       	adc	r15, r1
    3a10:	01 1d       	adc	r16, r1
    3a12:	11 1d       	adc	r17, r1
				} while (++clst < fs->n_fatent);
    3a14:	08 94       	sec
    3a16:	81 1c       	adc	r8, r1
    3a18:	91 1c       	adc	r9, r1
    3a1a:	a1 1c       	adc	r10, r1
    3a1c:	b1 1c       	adc	r11, r1
    3a1e:	e9 81       	ldd	r30, Y+1	; 0x01
    3a20:	fa 81       	ldd	r31, Y+2	; 0x02
    3a22:	84 89       	ldd	r24, Z+20	; 0x14
    3a24:	95 89       	ldd	r25, Z+21	; 0x15
    3a26:	a6 89       	ldd	r26, Z+22	; 0x16
    3a28:	b7 89       	ldd	r27, Z+23	; 0x17
    3a2a:	88 16       	cp	r8, r24
    3a2c:	99 06       	cpc	r9, r25
    3a2e:	aa 06       	cpc	r10, r26
    3a30:	bb 06       	cpc	r11, r27
    3a32:	90 f2       	brcs	.-92     	; 0x39d8 <f_getfree+0xa6>
    3a34:	6f c0       	rjmp	.+222    	; 0x3b14 <f_getfree+0x1e2>
					} while (clst);
				} else
#endif
				{	/* FAT16/32: Scan WORD/DWORD FAT entries */
					clst = fs->n_fatent;	/* Number of entries */
					sect = fs->fatbase;		/* Top of the FAT */
    3a36:	f6 01       	movw	r30, r12
    3a38:	84 a0       	ldd	r8, Z+36	; 0x24
    3a3a:	95 a0       	ldd	r9, Z+37	; 0x25
    3a3c:	a6 a0       	ldd	r10, Z+38	; 0x26
    3a3e:	b7 a0       	ldd	r11, Z+39	; 0x27
					i = 0;					/* Offset in the sector */
    3a40:	cc 24       	eor	r12, r12
    3a42:	dd 24       	eor	r13, r13
		/* If free_clst is valid, return it without full FAT scan */
		if (fs->free_clst <= fs->n_fatent - 2) {
			*nclst = fs->free_clst;
		} else {
			/* Scan FAT to obtain the correct free cluster count */
			nfree = 0;
    3a44:	ee 24       	eor	r14, r14
    3a46:	ff 24       	eor	r15, r15
    3a48:	87 01       	movw	r16, r14
				{	/* FAT16/32: Scan WORD/DWORD FAT entries */
					clst = fs->n_fatent;	/* Number of entries */
					sect = fs->fatbase;		/* Top of the FAT */
					i = 0;					/* Offset in the sector */
					do {	/* Counts numbuer of entries with zero in the FAT */
						if (i == 0) {	/* New sector? */
    3a4a:	c1 14       	cp	r12, r1
    3a4c:	d1 04       	cpc	r13, r1
    3a4e:	71 f4       	brne	.+28     	; 0x3a6c <f_getfree+0x13a>
							res = move_window(fs, sect++);
    3a50:	89 81       	ldd	r24, Y+1	; 0x01
    3a52:	9a 81       	ldd	r25, Y+2	; 0x02
    3a54:	b5 01       	movw	r22, r10
    3a56:	a4 01       	movw	r20, r8
    3a58:	0e 94 2a 08 	call	0x1054	; 0x1054 <move_window>
							if (res != FR_OK) break;
    3a5c:	88 23       	and	r24, r24
    3a5e:	09 f0       	breq	.+2      	; 0x3a62 <f_getfree+0x130>
    3a60:	3f c0       	rjmp	.+126    	; 0x3ae0 <f_getfree+0x1ae>
					clst = fs->n_fatent;	/* Number of entries */
					sect = fs->fatbase;		/* Top of the FAT */
					i = 0;					/* Offset in the sector */
					do {	/* Counts numbuer of entries with zero in the FAT */
						if (i == 0) {	/* New sector? */
							res = move_window(fs, sect++);
    3a62:	08 94       	sec
    3a64:	81 1c       	adc	r8, r1
    3a66:	91 1c       	adc	r9, r1
    3a68:	a1 1c       	adc	r10, r1
    3a6a:	b1 1c       	adc	r11, r1
							if (res != FR_OK) break;
						}
						if (fs->fs_type == FS_FAT16) {
    3a6c:	e9 81       	ldd	r30, Y+1	; 0x01
    3a6e:	fa 81       	ldd	r31, Y+2	; 0x02
    3a70:	20 81       	ld	r18, Z
    3a72:	c6 01       	movw	r24, r12
    3a74:	c0 96       	adiw	r24, 0x30	; 48
    3a76:	22 30       	cpi	r18, 0x02	; 2
    3a78:	71 f4       	brne	.+28     	; 0x3a96 <f_getfree+0x164>
							if (ld_16(fs->win + i) == 0) nfree++;	/* FAT16: Is this cluster free? */
    3a7a:	8e 0f       	add	r24, r30
    3a7c:	9f 1f       	adc	r25, r31
    3a7e:	0e 94 bc 06 	call	0xd78	; 0xd78 <ld_16>
    3a82:	00 97       	sbiw	r24, 0x00	; 0
    3a84:	29 f4       	brne	.+10     	; 0x3a90 <f_getfree+0x15e>
    3a86:	08 94       	sec
    3a88:	e1 1c       	adc	r14, r1
    3a8a:	f1 1c       	adc	r15, r1
    3a8c:	01 1d       	adc	r16, r1
    3a8e:	11 1d       	adc	r17, r1
							i += 2;	/* Next entry */
    3a90:	c6 01       	movw	r24, r12
    3a92:	02 96       	adiw	r24, 0x02	; 2
    3a94:	11 c0       	rjmp	.+34     	; 0x3ab8 <f_getfree+0x186>
						} else {
							if ((ld_32(fs->win + i) & 0x0FFFFFFF) == 0) nfree++;	/* FAT32: Is this cluster free? */
    3a96:	8e 0f       	add	r24, r30
    3a98:	9f 1f       	adc	r25, r31
    3a9a:	0e 94 c5 06 	call	0xd8a	; 0xd8a <ld_32>
    3a9e:	9f 70       	andi	r25, 0x0F	; 15
    3aa0:	61 15       	cp	r22, r1
    3aa2:	71 05       	cpc	r23, r1
    3aa4:	81 05       	cpc	r24, r1
    3aa6:	91 05       	cpc	r25, r1
    3aa8:	29 f4       	brne	.+10     	; 0x3ab4 <f_getfree+0x182>
    3aaa:	08 94       	sec
    3aac:	e1 1c       	adc	r14, r1
    3aae:	f1 1c       	adc	r15, r1
    3ab0:	01 1d       	adc	r16, r1
    3ab2:	11 1d       	adc	r17, r1
							i += 4;	/* Next entry */
    3ab4:	c6 01       	movw	r24, r12
    3ab6:	04 96       	adiw	r24, 0x04	; 4
						}
						i %= SS(fs);
					} while (--clst);
    3ab8:	08 94       	sec
    3aba:	41 08       	sbc	r4, r1
    3abc:	51 08       	sbc	r5, r1
    3abe:	61 08       	sbc	r6, r1
    3ac0:	71 08       	sbc	r7, r1
    3ac2:	41 14       	cp	r4, r1
    3ac4:	51 04       	cpc	r5, r1
    3ac6:	61 04       	cpc	r6, r1
    3ac8:	71 04       	cpc	r7, r1
    3aca:	21 f1       	breq	.+72     	; 0x3b14 <f_getfree+0x1e2>
							i += 2;	/* Next entry */
						} else {
							if ((ld_32(fs->win + i) & 0x0FFFFFFF) == 0) nfree++;	/* FAT32: Is this cluster free? */
							i += 4;	/* Next entry */
						}
						i %= SS(fs);
    3acc:	6f ef       	ldi	r22, 0xFF	; 255
    3ace:	c6 2e       	mov	r12, r22
    3ad0:	61 e0       	ldi	r22, 0x01	; 1
    3ad2:	d6 2e       	mov	r13, r22
    3ad4:	c8 22       	and	r12, r24
    3ad6:	d9 22       	and	r13, r25
    3ad8:	b8 cf       	rjmp	.-144    	; 0x3a4a <f_getfree+0x118>
			if (fs->fs_type == FS_FAT12) {	/* FAT12: Scan bit field FAT entries */
				clst = 2; obj.fs = fs;
				do {
					stat = get_fat(&obj, clst);
					if (stat == 0xFFFFFFFF) {
						res = FR_DISK_ERR; break;
    3ada:	81 e0       	ldi	r24, 0x01	; 1
    3adc:	01 c0       	rjmp	.+2      	; 0x3ae0 <f_getfree+0x1ae>
					}
					if (stat == 1) {
						res = FR_INT_ERR; break;
    3ade:	82 e0       	ldi	r24, 0x02	; 2
			if (fs->fs_type == FS_FAT12) {	/* FAT12: Scan bit field FAT entries */
				clst = 2; obj.fs = fs;
				do {
					stat = get_fat(&obj, clst);
					if (stat == 0xFFFFFFFF) {
						res = FR_DISK_ERR; break;
    3ae0:	38 2e       	mov	r3, r24
			}
		}
	}

	LEAVE_FF(fs, res);
}
    3ae2:	83 2d       	mov	r24, r3
    3ae4:	26 96       	adiw	r28, 0x06	; 6
    3ae6:	0f b6       	in	r0, 0x3f	; 63
    3ae8:	f8 94       	cli
    3aea:	de bf       	out	0x3e, r29	; 62
    3aec:	0f be       	out	0x3f, r0	; 63
    3aee:	cd bf       	out	0x3d, r28	; 61
    3af0:	cf 91       	pop	r28
    3af2:	df 91       	pop	r29
    3af4:	1f 91       	pop	r17
    3af6:	0f 91       	pop	r16
    3af8:	ff 90       	pop	r15
    3afa:	ef 90       	pop	r14
    3afc:	df 90       	pop	r13
    3afe:	cf 90       	pop	r12
    3b00:	bf 90       	pop	r11
    3b02:	af 90       	pop	r10
    3b04:	9f 90       	pop	r9
    3b06:	8f 90       	pop	r8
    3b08:	7f 90       	pop	r7
    3b0a:	6f 90       	pop	r6
    3b0c:	5f 90       	pop	r5
    3b0e:	4f 90       	pop	r4
    3b10:	3f 90       	pop	r3
    3b12:	08 95       	ret
						i %= SS(fs);
					} while (--clst);
				}
			}
			if (res == FR_OK) {		/* Update parameters if succeeded */
				*nclst = nfree;			/* Return the free clusters */
    3b14:	ed 81       	ldd	r30, Y+5	; 0x05
    3b16:	fe 81       	ldd	r31, Y+6	; 0x06
    3b18:	e0 82       	st	Z, r14
    3b1a:	f1 82       	std	Z+1, r15	; 0x01
    3b1c:	02 83       	std	Z+2, r16	; 0x02
    3b1e:	13 83       	std	Z+3, r17	; 0x03
				fs->free_clst = nfree;	/* Now free cluster count is valid */
    3b20:	e9 81       	ldd	r30, Y+1	; 0x01
    3b22:	fa 81       	ldd	r31, Y+2	; 0x02
    3b24:	e0 8a       	std	Z+16, r14	; 0x10
    3b26:	f1 8a       	std	Z+17, r15	; 0x11
    3b28:	02 8b       	std	Z+18, r16	; 0x12
    3b2a:	13 8b       	std	Z+19, r17	; 0x13
				fs->fsi_flag |= 1;		/* FAT32/exfAT : Allocation information is to be updated */
    3b2c:	85 81       	ldd	r24, Z+5	; 0x05
    3b2e:	81 60       	ori	r24, 0x01	; 1
    3b30:	85 83       	std	Z+5, r24	; 0x05
    3b32:	d7 cf       	rjmp	.-82     	; 0x3ae2 <f_getfree+0x1b0>

00003b34 <f_truncate>:
/*-----------------------------------------------------------------------*/

FRESULT f_truncate (
	FIL* fp		/* Pointer to the file object */
)
{
    3b34:	df 92       	push	r13
    3b36:	ef 92       	push	r14
    3b38:	ff 92       	push	r15
    3b3a:	0f 93       	push	r16
    3b3c:	1f 93       	push	r17
    3b3e:	df 93       	push	r29
    3b40:	cf 93       	push	r28
    3b42:	00 d0       	rcall	.+0      	; 0x3b44 <f_truncate+0x10>
    3b44:	cd b7       	in	r28, 0x3d	; 61
    3b46:	de b7       	in	r29, 0x3e	; 62
    3b48:	7c 01       	movw	r14, r24
	FATFS *fs;
	DWORD ncl;


	/* Check validity of the file object */
	res = validate(&fp->obj, &fs);
    3b4a:	be 01       	movw	r22, r28
    3b4c:	6f 5f       	subi	r22, 0xFF	; 255
    3b4e:	7f 4f       	sbci	r23, 0xFF	; 255
    3b50:	0e 94 4e 07 	call	0xe9c	; 0xe9c <validate>
    3b54:	d8 2e       	mov	r13, r24
	if (res != FR_OK || (res = (FRESULT)fp->err) != FR_OK) LEAVE_FF(fs, res);
    3b56:	88 23       	and	r24, r24
    3b58:	09 f0       	breq	.+2      	; 0x3b5c <f_truncate+0x28>
    3b5a:	90 c0       	rjmp	.+288    	; 0x3c7c <f_truncate+0x148>
    3b5c:	d7 01       	movw	r26, r14
    3b5e:	1f 96       	adiw	r26, 0x0f	; 15
    3b60:	dc 90       	ld	r13, X
    3b62:	1f 97       	sbiw	r26, 0x0f	; 15
    3b64:	dd 20       	and	r13, r13
    3b66:	09 f0       	breq	.+2      	; 0x3b6a <f_truncate+0x36>
    3b68:	89 c0       	rjmp	.+274    	; 0x3c7c <f_truncate+0x148>
	if (!(fp->flag & FA_WRITE)) LEAVE_FF(fs, FR_DENIED);	/* Check access mode */
    3b6a:	1e 96       	adiw	r26, 0x0e	; 14
    3b6c:	8c 91       	ld	r24, X
    3b6e:	1e 97       	sbiw	r26, 0x0e	; 14
    3b70:	81 ff       	sbrs	r24, 1
    3b72:	82 c0       	rjmp	.+260    	; 0x3c78 <f_truncate+0x144>

	if (fp->fptr < fp->obj.objsize) {	/* Process when fptr is not on the eof */
    3b74:	50 96       	adiw	r26, 0x10	; 16
    3b76:	8d 91       	ld	r24, X+
    3b78:	9d 91       	ld	r25, X+
    3b7a:	0d 90       	ld	r0, X+
    3b7c:	bc 91       	ld	r27, X
    3b7e:	a0 2d       	mov	r26, r0
    3b80:	f7 01       	movw	r30, r14
    3b82:	22 85       	ldd	r18, Z+10	; 0x0a
    3b84:	33 85       	ldd	r19, Z+11	; 0x0b
    3b86:	44 85       	ldd	r20, Z+12	; 0x0c
    3b88:	55 85       	ldd	r21, Z+13	; 0x0d
    3b8a:	82 17       	cp	r24, r18
    3b8c:	93 07       	cpc	r25, r19
    3b8e:	a4 07       	cpc	r26, r20
    3b90:	b5 07       	cpc	r27, r21
    3b92:	08 f0       	brcs	.+2      	; 0x3b96 <f_truncate+0x62>
    3b94:	73 c0       	rjmp	.+230    	; 0x3c7c <f_truncate+0x148>
		if (fp->fptr == 0) {	/* When set file size to zero, remove entire cluster chain */
    3b96:	00 97       	sbiw	r24, 0x00	; 0
    3b98:	a1 05       	cpc	r26, r1
    3b9a:	b1 05       	cpc	r27, r1
    3b9c:	99 f4       	brne	.+38     	; 0x3bc4 <f_truncate+0x90>
			res = remove_chain(&fp->obj, fp->obj.sclust, 0);
    3b9e:	46 81       	ldd	r20, Z+6	; 0x06
    3ba0:	57 81       	ldd	r21, Z+7	; 0x07
    3ba2:	60 85       	ldd	r22, Z+8	; 0x08
    3ba4:	71 85       	ldd	r23, Z+9	; 0x09
    3ba6:	c7 01       	movw	r24, r14
    3ba8:	00 e0       	ldi	r16, 0x00	; 0
    3baa:	10 e0       	ldi	r17, 0x00	; 0
    3bac:	98 01       	movw	r18, r16
    3bae:	0e 94 bb 10 	call	0x2176	; 0x2176 <remove_chain.clone.4>
    3bb2:	d8 2e       	mov	r13, r24
			fp->obj.sclust = 0;
    3bb4:	d7 01       	movw	r26, r14
    3bb6:	16 96       	adiw	r26, 0x06	; 6
    3bb8:	1d 92       	st	X+, r1
    3bba:	1d 92       	st	X+, r1
    3bbc:	1d 92       	st	X+, r1
    3bbe:	1c 92       	st	X, r1
    3bc0:	19 97       	sbiw	r26, 0x09	; 9
    3bc2:	2b c0       	rjmp	.+86     	; 0x3c1a <f_truncate+0xe6>
		} else {				/* When truncate a part of the file, remove remaining clusters */
			ncl = get_fat(&fp->obj, fp->clust);
    3bc4:	f7 01       	movw	r30, r14
    3bc6:	44 89       	ldd	r20, Z+20	; 0x14
    3bc8:	55 89       	ldd	r21, Z+21	; 0x15
    3bca:	66 89       	ldd	r22, Z+22	; 0x16
    3bcc:	77 89       	ldd	r23, Z+23	; 0x17
    3bce:	80 81       	ld	r24, Z
    3bd0:	91 81       	ldd	r25, Z+1	; 0x01
    3bd2:	0e 94 73 0d 	call	0x1ae6	; 0x1ae6 <get_fat.clone.2>
    3bd6:	ab 01       	movw	r20, r22
    3bd8:	bc 01       	movw	r22, r24
			res = FR_OK;
			if (ncl == 0xFFFFFFFF) res = FR_DISK_ERR;
    3bda:	4f 3f       	cpi	r20, 0xFF	; 255
    3bdc:	ff ef       	ldi	r31, 0xFF	; 255
    3bde:	5f 07       	cpc	r21, r31
    3be0:	ff ef       	ldi	r31, 0xFF	; 255
    3be2:	6f 07       	cpc	r22, r31
    3be4:	ff ef       	ldi	r31, 0xFF	; 255
    3be6:	7f 07       	cpc	r23, r31
    3be8:	99 f0       	breq	.+38     	; 0x3c10 <f_truncate+0xdc>
			if (ncl == 1) res = FR_INT_ERR;
    3bea:	41 30       	cpi	r20, 0x01	; 1
    3bec:	51 05       	cpc	r21, r1
    3bee:	61 05       	cpc	r22, r1
    3bf0:	71 05       	cpc	r23, r1
    3bf2:	09 f0       	breq	.+2      	; 0x3bf6 <f_truncate+0xc2>
    3bf4:	4e c0       	rjmp	.+156    	; 0x3c92 <f_truncate+0x15e>
    3bf6:	0f c0       	rjmp	.+30     	; 0x3c16 <f_truncate+0xe2>
			if (res == FR_OK && ncl < fs->n_fatent) {
				res = remove_chain(&fp->obj, ncl, fp->clust);
    3bf8:	d7 01       	movw	r26, r14
    3bfa:	54 96       	adiw	r26, 0x14	; 20
    3bfc:	0d 91       	ld	r16, X+
    3bfe:	1d 91       	ld	r17, X+
    3c00:	2d 91       	ld	r18, X+
    3c02:	3c 91       	ld	r19, X
    3c04:	57 97       	sbiw	r26, 0x17	; 23
    3c06:	c7 01       	movw	r24, r14
    3c08:	0e 94 bb 10 	call	0x2176	; 0x2176 <remove_chain.clone.4>
    3c0c:	d8 2e       	mov	r13, r24
    3c0e:	05 c0       	rjmp	.+10     	; 0x3c1a <f_truncate+0xe6>
			res = remove_chain(&fp->obj, fp->obj.sclust, 0);
			fp->obj.sclust = 0;
		} else {				/* When truncate a part of the file, remove remaining clusters */
			ncl = get_fat(&fp->obj, fp->clust);
			res = FR_OK;
			if (ncl == 0xFFFFFFFF) res = FR_DISK_ERR;
    3c10:	dd 24       	eor	r13, r13
    3c12:	d3 94       	inc	r13
    3c14:	02 c0       	rjmp	.+4      	; 0x3c1a <f_truncate+0xe6>
			if (ncl == 1) res = FR_INT_ERR;
    3c16:	f2 e0       	ldi	r31, 0x02	; 2
    3c18:	df 2e       	mov	r13, r31
			if (res == FR_OK && ncl < fs->n_fatent) {
				res = remove_chain(&fp->obj, ncl, fp->clust);
			}
		}
		fp->obj.objsize = fp->fptr;	/* Set file size to current read/write point */
    3c1a:	f7 01       	movw	r30, r14
    3c1c:	80 89       	ldd	r24, Z+16	; 0x10
    3c1e:	91 89       	ldd	r25, Z+17	; 0x11
    3c20:	a2 89       	ldd	r26, Z+18	; 0x12
    3c22:	b3 89       	ldd	r27, Z+19	; 0x13
    3c24:	82 87       	std	Z+10, r24	; 0x0a
    3c26:	93 87       	std	Z+11, r25	; 0x0b
    3c28:	a4 87       	std	Z+12, r26	; 0x0c
    3c2a:	b5 87       	std	Z+13, r27	; 0x0d
		fp->flag |= FA_MODIFIED;
    3c2c:	86 85       	ldd	r24, Z+14	; 0x0e
    3c2e:	80 64       	ori	r24, 0x40	; 64
    3c30:	86 87       	std	Z+14, r24	; 0x0e
#if !FF_FS_TINY
		if (res == FR_OK && (fp->flag & FA_DIRTY)) {
    3c32:	dd 20       	and	r13, r13
    3c34:	e1 f4       	brne	.+56     	; 0x3c6e <f_truncate+0x13a>
    3c36:	87 ff       	sbrs	r24, 7
    3c38:	21 c0       	rjmp	.+66     	; 0x3c7c <f_truncate+0x148>
			if (disk_write(fs->pdrv, fp->buf, fp->sect, 1) != RES_OK) {
    3c3a:	e9 81       	ldd	r30, Y+1	; 0x01
    3c3c:	fa 81       	ldd	r31, Y+2	; 0x02
    3c3e:	b7 01       	movw	r22, r14
    3c40:	6e 5d       	subi	r22, 0xDE	; 222
    3c42:	7f 4f       	sbci	r23, 0xFF	; 255
    3c44:	d7 01       	movw	r26, r14
    3c46:	58 96       	adiw	r26, 0x18	; 24
    3c48:	2d 91       	ld	r18, X+
    3c4a:	3d 91       	ld	r19, X+
    3c4c:	4d 91       	ld	r20, X+
    3c4e:	5c 91       	ld	r21, X
    3c50:	5b 97       	sbiw	r26, 0x1b	; 27
    3c52:	81 81       	ldd	r24, Z+1	; 0x01
    3c54:	01 e0       	ldi	r16, 0x01	; 1
    3c56:	10 e0       	ldi	r17, 0x00	; 0
    3c58:	0e 94 4d 06 	call	0xc9a	; 0xc9a <disk_write>
    3c5c:	88 23       	and	r24, r24
    3c5e:	29 f4       	brne	.+10     	; 0x3c6a <f_truncate+0x136>
				res = FR_DISK_ERR;
			} else {
				fp->flag &= (BYTE)~FA_DIRTY;
    3c60:	f7 01       	movw	r30, r14
    3c62:	86 85       	ldd	r24, Z+14	; 0x0e
    3c64:	8f 77       	andi	r24, 0x7F	; 127
    3c66:	86 87       	std	Z+14, r24	; 0x0e
    3c68:	09 c0       	rjmp	.+18     	; 0x3c7c <f_truncate+0x148>
		fp->obj.objsize = fp->fptr;	/* Set file size to current read/write point */
		fp->flag |= FA_MODIFIED;
#if !FF_FS_TINY
		if (res == FR_OK && (fp->flag & FA_DIRTY)) {
			if (disk_write(fs->pdrv, fp->buf, fp->sect, 1) != RES_OK) {
				res = FR_DISK_ERR;
    3c6a:	dd 24       	eor	r13, r13
    3c6c:	d3 94       	inc	r13
			} else {
				fp->flag &= (BYTE)~FA_DIRTY;
			}
		}
#endif
		if (res != FR_OK) ABORT(fs, res);
    3c6e:	d7 01       	movw	r26, r14
    3c70:	1f 96       	adiw	r26, 0x0f	; 15
    3c72:	dc 92       	st	X, r13
    3c74:	1f 97       	sbiw	r26, 0x0f	; 15
    3c76:	02 c0       	rjmp	.+4      	; 0x3c7c <f_truncate+0x148>


	/* Check validity of the file object */
	res = validate(&fp->obj, &fs);
	if (res != FR_OK || (res = (FRESULT)fp->err) != FR_OK) LEAVE_FF(fs, res);
	if (!(fp->flag & FA_WRITE)) LEAVE_FF(fs, FR_DENIED);	/* Check access mode */
    3c78:	e7 e0       	ldi	r30, 0x07	; 7
    3c7a:	de 2e       	mov	r13, r30
#endif
		if (res != FR_OK) ABORT(fs, res);
	}

	LEAVE_FF(fs, res);
}
    3c7c:	8d 2d       	mov	r24, r13
    3c7e:	0f 90       	pop	r0
    3c80:	0f 90       	pop	r0
    3c82:	cf 91       	pop	r28
    3c84:	df 91       	pop	r29
    3c86:	1f 91       	pop	r17
    3c88:	0f 91       	pop	r16
    3c8a:	ff 90       	pop	r15
    3c8c:	ef 90       	pop	r14
    3c8e:	df 90       	pop	r13
    3c90:	08 95       	ret
		} else {				/* When truncate a part of the file, remove remaining clusters */
			ncl = get_fat(&fp->obj, fp->clust);
			res = FR_OK;
			if (ncl == 0xFFFFFFFF) res = FR_DISK_ERR;
			if (ncl == 1) res = FR_INT_ERR;
			if (res == FR_OK && ncl < fs->n_fatent) {
    3c92:	e9 81       	ldd	r30, Y+1	; 0x01
    3c94:	fa 81       	ldd	r31, Y+2	; 0x02
    3c96:	84 89       	ldd	r24, Z+20	; 0x14
    3c98:	95 89       	ldd	r25, Z+21	; 0x15
    3c9a:	a6 89       	ldd	r26, Z+22	; 0x16
    3c9c:	b7 89       	ldd	r27, Z+23	; 0x17
    3c9e:	48 17       	cp	r20, r24
    3ca0:	59 07       	cpc	r21, r25
    3ca2:	6a 07       	cpc	r22, r26
    3ca4:	7b 07       	cpc	r23, r27
    3ca6:	08 f0       	brcs	.+2      	; 0x3caa <f_truncate+0x176>
    3ca8:	b8 cf       	rjmp	.-144    	; 0x3c1a <f_truncate+0xe6>
    3caa:	a6 cf       	rjmp	.-180    	; 0x3bf8 <f_truncate+0xc4>

00003cac <f_unlink>:
/*-----------------------------------------------------------------------*/

FRESULT f_unlink (
	const TCHAR* path		/* Pointer to the file or directory path */
)
{
    3cac:	6f 92       	push	r6
    3cae:	7f 92       	push	r7
    3cb0:	8f 92       	push	r8
    3cb2:	9f 92       	push	r9
    3cb4:	af 92       	push	r10
    3cb6:	bf 92       	push	r11
    3cb8:	cf 92       	push	r12
    3cba:	df 92       	push	r13
    3cbc:	ef 92       	push	r14
    3cbe:	ff 92       	push	r15
    3cc0:	0f 93       	push	r16
    3cc2:	1f 93       	push	r17
    3cc4:	df 93       	push	r29
    3cc6:	cf 93       	push	r28
    3cc8:	cd b7       	in	r28, 0x3d	; 61
    3cca:	de b7       	in	r29, 0x3e	; 62
    3ccc:	c4 55       	subi	r28, 0x54	; 84
    3cce:	d0 40       	sbci	r29, 0x00	; 0
    3cd0:	0f b6       	in	r0, 0x3f	; 63
    3cd2:	f8 94       	cli
    3cd4:	de bf       	out	0x3e, r29	; 62
    3cd6:	0f be       	out	0x3f, r0	; 63
    3cd8:	cd bf       	out	0x3d, r28	; 61
    3cda:	8e 01       	movw	r16, r28
    3cdc:	0d 5a       	subi	r16, 0xAD	; 173
    3cde:	1f 4f       	sbci	r17, 0xFF	; 255
    3ce0:	d8 01       	movw	r26, r16
    3ce2:	8d 93       	st	X+, r24
    3ce4:	9c 93       	st	X, r25
	FFOBJID obj;
#endif
	DEF_NAMEBUFF

	/* Get logical drive and mount the volume if needed */
	res = mount_volume(&path, &fs, FA_WRITE);
    3ce6:	c8 01       	movw	r24, r16
    3ce8:	be 01       	movw	r22, r28
    3cea:	6f 5f       	subi	r22, 0xFF	; 255
    3cec:	7f 4f       	sbci	r23, 0xFF	; 255
    3cee:	42 e0       	ldi	r20, 0x02	; 2
    3cf0:	0e 94 0b 09 	call	0x1216	; 0x1216 <mount_volume>
	if (res == FR_OK) {
    3cf4:	88 23       	and	r24, r24
    3cf6:	09 f0       	breq	.+2      	; 0x3cfa <f_unlink+0x4e>
    3cf8:	90 c0       	rjmp	.+288    	; 0x3e1a <f_unlink+0x16e>
		dj.obj.fs = fs;
    3cfa:	89 81       	ldd	r24, Y+1	; 0x01
    3cfc:	9a 81       	ldd	r25, Y+2	; 0x02
    3cfe:	9c 83       	std	Y+4, r25	; 0x04
    3d00:	8b 83       	std	Y+3, r24	; 0x03
		INIT_NAMEBUFF(fs);
		res = follow_path(&dj, path);	/* Follow the path to the object */
    3d02:	f8 01       	movw	r30, r16
    3d04:	60 81       	ld	r22, Z
    3d06:	71 81       	ldd	r23, Z+1	; 0x01
    3d08:	ce 01       	movw	r24, r28
    3d0a:	03 96       	adiw	r24, 0x03	; 3
    3d0c:	0e 94 1f 12 	call	0x243e	; 0x243e <follow_path>
		if (res == FR_OK) {
    3d10:	88 23       	and	r24, r24
    3d12:	09 f0       	breq	.+2      	; 0x3d16 <f_unlink+0x6a>
    3d14:	82 c0       	rjmp	.+260    	; 0x3e1a <f_unlink+0x16e>
			if (dj.fn[NSFLAG] & (NS_DOT | NS_NONAME)) {
    3d16:	8a a5       	ldd	r24, Y+42	; 0x2a
    3d18:	80 7a       	andi	r24, 0xA0	; 160
    3d1a:	21 f4       	brne	.+8      	; 0x3d24 <f_unlink+0x78>
				res = FR_INVALID_NAME;	/* It must be a real object */
			} else if (dj.obj.attr & AM_RDO) {
    3d1c:	af 80       	ldd	r10, Y+7	; 0x07
    3d1e:	a0 fe       	sbrs	r10, 0
    3d20:	92 c0       	rjmp	.+292    	; 0x3e46 <f_unlink+0x19a>
    3d22:	5c c0       	rjmp	.+184    	; 0x3ddc <f_unlink+0x130>
		dj.obj.fs = fs;
		INIT_NAMEBUFF(fs);
		res = follow_path(&dj, path);	/* Follow the path to the object */
		if (res == FR_OK) {
			if (dj.fn[NSFLAG] & (NS_DOT | NS_NONAME)) {
				res = FR_INVALID_NAME;	/* It must be a real object */
    3d24:	86 e0       	ldi	r24, 0x06	; 6
    3d26:	79 c0       	rjmp	.+242    	; 0x3e1a <f_unlink+0x16e>
				if (dclst == fs->cdir) {
					res = FR_DENIED;		/* Current directory cannot be removed */
				} else
#endif
				{
					sdj.obj.fs = fs;		/* Open the sub-directory */
    3d28:	dc a6       	std	Y+44, r13	; 0x2c
    3d2a:	cb a6       	std	Y+43, r12	; 0x2b
					sdj.obj.sclust = dclst;
    3d2c:	e9 aa       	std	Y+49, r14	; 0x31
    3d2e:	fa aa       	std	Y+50, r15	; 0x32
    3d30:	0b ab       	std	Y+51, r16	; 0x33
    3d32:	1c ab       	std	Y+52, r17	; 0x34
					if (fs->fs_type == FS_EXFAT) {
						sdj.obj.objsize = obj.objsize;
						sdj.obj.stat = obj.stat;
					}
#endif
					res = dir_sdi(&sdj, 0);
    3d34:	8b e2       	ldi	r24, 0x2B	; 43
    3d36:	c8 2e       	mov	r12, r24
    3d38:	d1 2c       	mov	r13, r1
    3d3a:	cc 0e       	add	r12, r28
    3d3c:	dd 1e       	adc	r13, r29
    3d3e:	c6 01       	movw	r24, r12
    3d40:	0e 94 54 11 	call	0x22a8	; 0x22a8 <dir_sdi.clone.5>
					if (res == FR_OK) {
    3d44:	88 23       	and	r24, r24
    3d46:	09 f0       	breq	.+2      	; 0x3d4a <f_unlink+0x9e>
    3d48:	68 c0       	rjmp	.+208    	; 0x3e1a <f_unlink+0x16e>
	DIR* dp,		/* Pointer to the directory object */
	int vol			/* Filtered by 0:file/directory or 1:volume label */
)
{
	FRESULT res = FR_NO_FILE;
	FATFS *fs = dp->obj.fs;
    3d4a:	ab a4       	ldd	r10, Y+43	; 0x2b
    3d4c:	bc a4       	ldd	r11, Y+44	; 0x2c
static FRESULT dir_read (
	DIR* dp,		/* Pointer to the directory object */
	int vol			/* Filtered by 0:file/directory or 1:volume label */
)
{
	FRESULT res = FR_NO_FILE;
    3d4e:	84 e0       	ldi	r24, 0x04	; 4
	BYTE attr, et;
#if FF_USE_LFN
	BYTE ord = 0xFF, sum = 0xFF;
#endif

	while (dp->sect) {
    3d50:	b1 e4       	ldi	r27, 0x41	; 65
    3d52:	8b 2e       	mov	r8, r27
    3d54:	91 2c       	mov	r9, r1
    3d56:	8c 0e       	add	r8, r28
    3d58:	9d 1e       	adc	r9, r29
		res = move_window(fs, dp->sect);
		if (res != FR_OK) break;
		et = dp->dir[DIR_Name];	/* Test for the entry type */
    3d5a:	a5 e4       	ldi	r26, 0x45	; 69
    3d5c:	6a 2e       	mov	r6, r26
    3d5e:	71 2c       	mov	r7, r1
    3d60:	6c 0e       	add	r6, r28
    3d62:	7d 1e       	adc	r7, r29
						sdj.obj.stat = obj.stat;
					}
#endif
					res = dir_sdi(&sdj, 0);
					if (res == FR_OK) {
						res = DIR_READ_FILE(&sdj);			/* Check if the sub-directory is empty */
    3d64:	96 01       	movw	r18, r12
    3d66:	dc 2c       	mov	r13, r12
    3d68:	c3 2e       	mov	r12, r19
    3d6a:	21 c0       	rjmp	.+66     	; 0x3dae <f_unlink+0x102>
#if FF_USE_LFN
	BYTE ord = 0xFF, sum = 0xFF;
#endif

	while (dp->sect) {
		res = move_window(fs, dp->sect);
    3d6c:	c5 01       	movw	r24, r10
    3d6e:	0e 94 2a 08 	call	0x1054	; 0x1054 <move_window>
		if (res != FR_OK) break;
    3d72:	88 23       	and	r24, r24
    3d74:	41 f5       	brne	.+80     	; 0x3dc6 <f_unlink+0x11a>
		et = dp->dir[DIR_Name];	/* Test for the entry type */
    3d76:	d3 01       	movw	r26, r6
    3d78:	ed 91       	ld	r30, X+
    3d7a:	fc 91       	ld	r31, X
    3d7c:	11 97       	sbiw	r26, 0x01	; 1
    3d7e:	90 81       	ld	r25, Z
		if (et == 0) {
    3d80:	99 23       	and	r25, r25
    3d82:	09 f4       	brne	.+2      	; 0x3d86 <f_unlink+0xda>
    3d84:	6d c0       	rjmp	.+218    	; 0x3e60 <f_unlink+0x1b4>
				}
			}
		} else
#endif
		{	/* On the FAT/FAT32 volume */
			dp->obj.attr = attr = dp->dir[DIR_Attr] & AM_MASK;	/* Get attribute */
    3d86:	83 85       	ldd	r24, Z+11	; 0x0b
    3d88:	8f 73       	andi	r24, 0x3F	; 63
    3d8a:	8f a7       	std	Y+47, r24	; 0x2f
					}
					break;
				}
			}
#else		/* Non LFN configuration */
			if (et != DDEM && et != '.' && attr != AM_LFN && (int)((attr & ~AM_ARC) == AM_VOL) == vol) {	/* Is it a valid entry? */
    3d8c:	95 3e       	cpi	r25, 0xE5	; 229
    3d8e:	39 f0       	breq	.+14     	; 0x3d9e <f_unlink+0xf2>
    3d90:	9e 32       	cpi	r25, 0x2E	; 46
    3d92:	29 f0       	breq	.+10     	; 0x3d9e <f_unlink+0xf2>
    3d94:	8f 30       	cpi	r24, 0x0F	; 15
    3d96:	19 f0       	breq	.+6      	; 0x3d9e <f_unlink+0xf2>
    3d98:	8f 71       	andi	r24, 0x1F	; 31
    3d9a:	88 30       	cpi	r24, 0x08	; 8
    3d9c:	f9 f4       	brne	.+62     	; 0x3ddc <f_unlink+0x130>
				break;
			}
#endif
		}
		res = dir_next(dp, 0);		/* Next entry */
    3d9e:	8d 2d       	mov	r24, r13
    3da0:	9c 2d       	mov	r25, r12
    3da2:	60 e0       	ldi	r22, 0x00	; 0
    3da4:	70 e0       	ldi	r23, 0x00	; 0
    3da6:	0e 94 c2 0f 	call	0x1f84	; 0x1f84 <dir_next>
		if (res != FR_OK) break;
    3daa:	88 23       	and	r24, r24
    3dac:	61 f4       	brne	.+24     	; 0x3dc6 <f_unlink+0x11a>
	BYTE attr, et;
#if FF_USE_LFN
	BYTE ord = 0xFF, sum = 0xFF;
#endif

	while (dp->sect) {
    3dae:	f4 01       	movw	r30, r8
    3db0:	40 81       	ld	r20, Z
    3db2:	51 81       	ldd	r21, Z+1	; 0x01
    3db4:	62 81       	ldd	r22, Z+2	; 0x02
    3db6:	73 81       	ldd	r23, Z+3	; 0x03
    3db8:	41 15       	cp	r20, r1
    3dba:	51 05       	cpc	r21, r1
    3dbc:	61 05       	cpc	r22, r1
    3dbe:	71 05       	cpc	r23, r1
    3dc0:	a9 f6       	brne	.-86     	; 0x3d6c <f_unlink+0xc0>
		}
		res = dir_next(dp, 0);		/* Next entry */
		if (res != FR_OK) break;
	}

	if (res != FR_OK) dp->sect = 0;		/* Terminate the read operation on error or EOT */
    3dc2:	88 23       	and	r24, r24
    3dc4:	59 f0       	breq	.+22     	; 0x3ddc <f_unlink+0x130>
    3dc6:	fe 01       	movw	r30, r28
    3dc8:	ef 5b       	subi	r30, 0xBF	; 191
    3dca:	ff 4f       	sbci	r31, 0xFF	; 255
    3dcc:	10 82       	st	Z, r1
    3dce:	11 82       	std	Z+1, r1	; 0x01
    3dd0:	12 82       	std	Z+2, r1	; 0x02
    3dd2:	13 82       	std	Z+3, r1	; 0x03
#endif
					res = dir_sdi(&sdj, 0);
					if (res == FR_OK) {
						res = DIR_READ_FILE(&sdj);			/* Check if the sub-directory is empty */
						if (res == FR_OK) res = FR_DENIED;	/* Not empty? */
						if (res == FR_NO_FILE) res = FR_OK;	/* Empty? */
    3dd4:	84 30       	cpi	r24, 0x04	; 4
    3dd6:	09 f4       	brne	.+2      	; 0x3dda <f_unlink+0x12e>
    3dd8:	45 c0       	rjmp	.+138    	; 0x3e64 <f_unlink+0x1b8>
    3dda:	1f c0       	rjmp	.+62     	; 0x3e1a <f_unlink+0x16e>
					}
#endif
					res = dir_sdi(&sdj, 0);
					if (res == FR_OK) {
						res = DIR_READ_FILE(&sdj);			/* Check if the sub-directory is empty */
						if (res == FR_OK) res = FR_DENIED;	/* Not empty? */
    3ddc:	87 e0       	ldi	r24, 0x07	; 7
    3dde:	1d c0       	rjmp	.+58     	; 0x3e1a <f_unlink+0x16e>
	}
#else			/* Non LFN configuration */

	res = move_window(fs, dp->sect);
	if (res == FR_OK) {
		dp->dir[DIR_Name] = DDEM;	/* Mark the entry 'deleted'.*/
    3de0:	ed 8d       	ldd	r30, Y+29	; 0x1d
    3de2:	fe 8d       	ldd	r31, Y+30	; 0x1e
    3de4:	85 ee       	ldi	r24, 0xE5	; 229
    3de6:	80 83       	st	Z, r24
		fs->wflag = 1;
    3de8:	81 e0       	ldi	r24, 0x01	; 1
    3dea:	d6 01       	movw	r26, r12
    3dec:	14 96       	adiw	r26, 0x04	; 4
    3dee:	8c 93       	st	X, r24
    3df0:	14 97       	sbiw	r26, 0x04	; 4
				}
			}
		}
		if (res == FR_OK) {		/* It is ready to remove the object */
			res = dir_remove(&dj);				/* Remove the directory entry */
			if (res == FR_OK && dclst != 0) {	/* Remove the cluster chain if exist */
    3df2:	e1 14       	cp	r14, r1
    3df4:	f1 04       	cpc	r15, r1
    3df6:	01 05       	cpc	r16, r1
    3df8:	11 05       	cpc	r17, r1
    3dfa:	59 f0       	breq	.+22     	; 0x3e12 <f_unlink+0x166>
#if FF_FS_EXFAT
				res = remove_chain(&obj, dclst, 0);
#else
				res = remove_chain(&dj.obj, dclst, 0);
    3dfc:	ce 01       	movw	r24, r28
    3dfe:	03 96       	adiw	r24, 0x03	; 3
    3e00:	b8 01       	movw	r22, r16
    3e02:	a7 01       	movw	r20, r14
    3e04:	00 e0       	ldi	r16, 0x00	; 0
    3e06:	10 e0       	ldi	r17, 0x00	; 0
    3e08:	98 01       	movw	r18, r16
    3e0a:	0e 94 bb 10 	call	0x2176	; 0x2176 <remove_chain.clone.4>
#endif
			}
			if (res == FR_OK) res = sync_fs(fs);
    3e0e:	88 23       	and	r24, r24
    3e10:	21 f4       	brne	.+8      	; 0x3e1a <f_unlink+0x16e>
    3e12:	89 81       	ldd	r24, Y+1	; 0x01
    3e14:	9a 81       	ldd	r25, Y+2	; 0x02
    3e16:	0e 94 d0 0c 	call	0x19a0	; 0x19a0 <sync_fs>
		}
		FREE_NAMEBUFF();
	}

	LEAVE_FF(fs, res);
}
    3e1a:	cc 5a       	subi	r28, 0xAC	; 172
    3e1c:	df 4f       	sbci	r29, 0xFF	; 255
    3e1e:	0f b6       	in	r0, 0x3f	; 63
    3e20:	f8 94       	cli
    3e22:	de bf       	out	0x3e, r29	; 62
    3e24:	0f be       	out	0x3f, r0	; 63
    3e26:	cd bf       	out	0x3d, r28	; 61
    3e28:	cf 91       	pop	r28
    3e2a:	df 91       	pop	r29
    3e2c:	1f 91       	pop	r17
    3e2e:	0f 91       	pop	r16
    3e30:	ff 90       	pop	r15
    3e32:	ef 90       	pop	r14
    3e34:	df 90       	pop	r13
    3e36:	cf 90       	pop	r12
    3e38:	bf 90       	pop	r11
    3e3a:	af 90       	pop	r10
    3e3c:	9f 90       	pop	r9
    3e3e:	8f 90       	pop	r8
    3e40:	7f 90       	pop	r7
    3e42:	6f 90       	pop	r6
    3e44:	08 95       	ret
				init_alloc_info(&obj, 0);
				dclst = obj.sclust;
			} else
#endif
			{
				dclst = ld_clust(fs, dj.dir);
    3e46:	c9 80       	ldd	r12, Y+1	; 0x01
    3e48:	da 80       	ldd	r13, Y+2	; 0x02
    3e4a:	6d 8d       	ldd	r22, Y+29	; 0x1d
    3e4c:	7e 8d       	ldd	r23, Y+30	; 0x1e
    3e4e:	f6 01       	movw	r30, r12
    3e50:	80 81       	ld	r24, Z
    3e52:	0e 94 3c 0d 	call	0x1a78	; 0x1a78 <ld_clust.clone.0>
    3e56:	7b 01       	movw	r14, r22
    3e58:	8c 01       	movw	r16, r24
			}
			if (dj.obj.attr & AM_DIR) {		/* Is the object a sub-directory? */
    3e5a:	a4 fe       	sbrs	r10, 4
    3e5c:	03 c0       	rjmp	.+6      	; 0x3e64 <f_unlink+0x1b8>
    3e5e:	64 cf       	rjmp	.-312    	; 0x3d28 <f_unlink+0x7c>
	while (dp->sect) {
		res = move_window(fs, dp->sect);
		if (res != FR_OK) break;
		et = dp->dir[DIR_Name];	/* Test for the entry type */
		if (et == 0) {
			res = FR_NO_FILE; break; /* Reached to end of the directory */
    3e60:	84 e0       	ldi	r24, 0x04	; 4
    3e62:	b1 cf       	rjmp	.-158    	; 0x3dc6 <f_unlink+0x11a>
static FRESULT dir_remove (	/* FR_OK:Succeeded, FR_DISK_ERR:A disk error */
	DIR* dp					/* Directory object pointing the entry to be removed */
)
{
	FRESULT res;
	FATFS *fs = dp->obj.fs;
    3e64:	cb 80       	ldd	r12, Y+3	; 0x03
    3e66:	dc 80       	ldd	r13, Y+4	; 0x04
		} while (res == FR_OK);
		if (res == FR_NO_FILE) res = FR_INT_ERR;
	}
#else			/* Non LFN configuration */

	res = move_window(fs, dp->sect);
    3e68:	49 8d       	ldd	r20, Y+25	; 0x19
    3e6a:	5a 8d       	ldd	r21, Y+26	; 0x1a
    3e6c:	6b 8d       	ldd	r22, Y+27	; 0x1b
    3e6e:	7c 8d       	ldd	r23, Y+28	; 0x1c
    3e70:	c6 01       	movw	r24, r12
    3e72:	0e 94 2a 08 	call	0x1054	; 0x1054 <move_window>
	if (res == FR_OK) {
    3e76:	88 23       	and	r24, r24
    3e78:	09 f4       	brne	.+2      	; 0x3e7c <f_unlink+0x1d0>
    3e7a:	b2 cf       	rjmp	.-156    	; 0x3de0 <f_unlink+0x134>
    3e7c:	ce cf       	rjmp	.-100    	; 0x3e1a <f_unlink+0x16e>

00003e7e <f_mkdir>:
/*-----------------------------------------------------------------------*/

FRESULT f_mkdir (
	const TCHAR* path		/* Pointer to the directory path */
)
{
    3e7e:	6f 92       	push	r6
    3e80:	7f 92       	push	r7
    3e82:	8f 92       	push	r8
    3e84:	9f 92       	push	r9
    3e86:	af 92       	push	r10
    3e88:	bf 92       	push	r11
    3e8a:	cf 92       	push	r12
    3e8c:	df 92       	push	r13
    3e8e:	ff 92       	push	r15
    3e90:	0f 93       	push	r16
    3e92:	1f 93       	push	r17
    3e94:	df 93       	push	r29
    3e96:	cf 93       	push	r28
    3e98:	cd b7       	in	r28, 0x3d	; 61
    3e9a:	de b7       	in	r29, 0x3e	; 62
    3e9c:	ea 97       	sbiw	r28, 0x3a	; 58
    3e9e:	0f b6       	in	r0, 0x3f	; 63
    3ea0:	f8 94       	cli
    3ea2:	de bf       	out	0x3e, r29	; 62
    3ea4:	0f be       	out	0x3f, r0	; 63
    3ea6:	cd bf       	out	0x3d, r28	; 61
    3ea8:	9a af       	std	Y+58, r25	; 0x3a
    3eaa:	89 af       	std	Y+57, r24	; 0x39
	FFOBJID sobj;
	DWORD dcl, pcl, tm;
	DEF_NAMEBUFF


	res = mount_volume(&path, &fs, FA_WRITE);	/* Get logical drive and mount the volume if needed */
    3eac:	ce 01       	movw	r24, r28
    3eae:	c9 96       	adiw	r24, 0x39	; 57
    3eb0:	be 01       	movw	r22, r28
    3eb2:	6f 5f       	subi	r22, 0xFF	; 255
    3eb4:	7f 4f       	sbci	r23, 0xFF	; 255
    3eb6:	42 e0       	ldi	r20, 0x02	; 2
    3eb8:	0e 94 0b 09 	call	0x1216	; 0x1216 <mount_volume>
    3ebc:	f8 2e       	mov	r15, r24
	if (res == FR_OK) {
    3ebe:	88 23       	and	r24, r24
    3ec0:	09 f0       	breq	.+2      	; 0x3ec4 <f_mkdir+0x46>
    3ec2:	c4 c0       	rjmp	.+392    	; 0x404c <f_mkdir+0x1ce>
		dj.obj.fs = fs;
    3ec4:	89 81       	ldd	r24, Y+1	; 0x01
    3ec6:	9a 81       	ldd	r25, Y+2	; 0x02
    3ec8:	9a 8b       	std	Y+18, r25	; 0x12
    3eca:	89 8b       	std	Y+17, r24	; 0x11
		INIT_NAMEBUFF(fs);
		res = follow_path(&dj, path);			/* Follow the file path */
    3ecc:	69 ad       	ldd	r22, Y+57	; 0x39
    3ece:	7a ad       	ldd	r23, Y+58	; 0x3a
    3ed0:	ce 01       	movw	r24, r28
    3ed2:	41 96       	adiw	r24, 0x11	; 17
    3ed4:	0e 94 1f 12 	call	0x243e	; 0x243e <follow_path>
		if (res == FR_OK) {						/* Invalid name or name collision */
    3ed8:	88 23       	and	r24, r24
    3eda:	39 f4       	brne	.+14     	; 0x3eea <f_mkdir+0x6c>
			res = (dj.fn[NSFLAG] & (NS_DOT | NS_NONAME)) ? FR_INVALID_NAME : FR_EXIST;
    3edc:	88 ad       	ldd	r24, Y+56	; 0x38
    3ede:	80 7a       	andi	r24, 0xA0	; 160
    3ee0:	09 f0       	breq	.+2      	; 0x3ee4 <f_mkdir+0x66>
    3ee2:	c9 c0       	rjmp	.+402    	; 0x4076 <f_mkdir+0x1f8>
    3ee4:	48 e0       	ldi	r20, 0x08	; 8
    3ee6:	f4 2e       	mov	r15, r20
    3ee8:	b1 c0       	rjmp	.+354    	; 0x404c <f_mkdir+0x1ce>
		}
		if (res == FR_NO_FILE) {				/* It is clear to create a new directory */
    3eea:	84 30       	cpi	r24, 0x04	; 4
    3eec:	09 f0       	breq	.+2      	; 0x3ef0 <f_mkdir+0x72>
    3eee:	ad c0       	rjmp	.+346    	; 0x404a <f_mkdir+0x1cc>
			sobj.fs = fs;						/* New object ID to create a new chain */
    3ef0:	89 81       	ldd	r24, Y+1	; 0x01
    3ef2:	9a 81       	ldd	r25, Y+2	; 0x02
    3ef4:	9c 83       	std	Y+4, r25	; 0x04
    3ef6:	8b 83       	std	Y+3, r24	; 0x03
			dcl = create_chain(&sobj, 0);		/* Allocate a cluster for the new directory */
    3ef8:	ce 01       	movw	r24, r28
    3efa:	03 96       	adiw	r24, 0x03	; 3
    3efc:	40 e0       	ldi	r20, 0x00	; 0
    3efe:	50 e0       	ldi	r21, 0x00	; 0
    3f00:	ba 01       	movw	r22, r20
    3f02:	0e 94 3e 0e 	call	0x1c7c	; 0x1c7c <create_chain.clone.3>
    3f06:	5b 01       	movw	r10, r22
    3f08:	6c 01       	movw	r12, r24
			res = FR_OK;
			if (dcl == 0) res = FR_DENIED;		/* No space to allocate a new cluster? */
    3f0a:	61 15       	cp	r22, r1
    3f0c:	71 05       	cpc	r23, r1
    3f0e:	81 05       	cpc	r24, r1
    3f10:	91 05       	cpc	r25, r1
    3f12:	81 f0       	breq	.+32     	; 0x3f34 <f_mkdir+0xb6>
			if (dcl == 1) res = FR_INT_ERR;		/* Any insanity? */
    3f14:	81 e0       	ldi	r24, 0x01	; 1
    3f16:	a8 16       	cp	r10, r24
    3f18:	b1 04       	cpc	r11, r1
    3f1a:	c1 04       	cpc	r12, r1
    3f1c:	d1 04       	cpc	r13, r1
    3f1e:	69 f0       	breq	.+26     	; 0x3f3a <f_mkdir+0xbc>
			if (dcl == 0xFFFFFFFF) res = FR_DISK_ERR;	/* Disk error? */
    3f20:	ef ef       	ldi	r30, 0xFF	; 255
    3f22:	ae 16       	cp	r10, r30
    3f24:	ef ef       	ldi	r30, 0xFF	; 255
    3f26:	be 06       	cpc	r11, r30
    3f28:	ef ef       	ldi	r30, 0xFF	; 255
    3f2a:	ce 06       	cpc	r12, r30
    3f2c:	ef ef       	ldi	r30, 0xFF	; 255
    3f2e:	de 06       	cpc	r13, r30
    3f30:	39 f0       	breq	.+14     	; 0x3f40 <f_mkdir+0xc2>
    3f32:	08 c0       	rjmp	.+16     	; 0x3f44 <f_mkdir+0xc6>
		}
		if (res == FR_NO_FILE) {				/* It is clear to create a new directory */
			sobj.fs = fs;						/* New object ID to create a new chain */
			dcl = create_chain(&sobj, 0);		/* Allocate a cluster for the new directory */
			res = FR_OK;
			if (dcl == 0) res = FR_DENIED;		/* No space to allocate a new cluster? */
    3f34:	37 e0       	ldi	r19, 0x07	; 7
    3f36:	f3 2e       	mov	r15, r19
    3f38:	05 c0       	rjmp	.+10     	; 0x3f44 <f_mkdir+0xc6>
			if (dcl == 1) res = FR_INT_ERR;		/* Any insanity? */
    3f3a:	22 e0       	ldi	r18, 0x02	; 2
    3f3c:	f2 2e       	mov	r15, r18
    3f3e:	02 c0       	rjmp	.+4      	; 0x3f44 <f_mkdir+0xc6>
			if (dcl == 0xFFFFFFFF) res = FR_DISK_ERR;	/* Disk error? */
    3f40:	ff 24       	eor	r15, r15
    3f42:	f3 94       	inc	r15
			tm = GET_FATTIME();
    3f44:	0e 94 b7 06 	call	0xd6e	; 0xd6e <get_fattime>
    3f48:	3b 01       	movw	r6, r22
    3f4a:	4c 01       	movw	r8, r24
			if (res == FR_OK) {
    3f4c:	ff 20       	and	r15, r15
    3f4e:	09 f0       	breq	.+2      	; 0x3f52 <f_mkdir+0xd4>
    3f50:	72 c0       	rjmp	.+228    	; 0x4036 <f_mkdir+0x1b8>
				res = dir_clear(fs, dcl);		/* Clear the allocated cluster as new direcotry table */
    3f52:	89 81       	ldd	r24, Y+1	; 0x01
    3f54:	9a 81       	ldd	r25, Y+2	; 0x02
    3f56:	b6 01       	movw	r22, r12
    3f58:	a5 01       	movw	r20, r10
    3f5a:	0e 94 cf 07 	call	0xf9e	; 0xf9e <dir_clear>
    3f5e:	f8 2e       	mov	r15, r24
				if (res == FR_OK) {
    3f60:	88 23       	and	r24, r24
    3f62:	09 f0       	breq	.+2      	; 0x3f66 <f_mkdir+0xe8>
    3f64:	68 c0       	rjmp	.+208    	; 0x4036 <f_mkdir+0x1b8>
					if (!FF_FS_EXFAT || fs->fs_type != FS_EXFAT) {	/* Create dot entries (FAT only) */
						memset(fs->win + DIR_Name, ' ', 11);	/* Create "." entry */
    3f66:	29 81       	ldd	r18, Y+1	; 0x01
    3f68:	3a 81       	ldd	r19, Y+2	; 0x02
    3f6a:	20 5d       	subi	r18, 0xD0	; 208
    3f6c:	3f 4f       	sbci	r19, 0xFF	; 255
    3f6e:	c9 01       	movw	r24, r18
    3f70:	60 e2       	ldi	r22, 0x20	; 32
    3f72:	70 e0       	ldi	r23, 0x00	; 0
    3f74:	4b e0       	ldi	r20, 0x0B	; 11
    3f76:	50 e0       	ldi	r21, 0x00	; 0
    3f78:	0e 94 c0 21 	call	0x4380	; 0x4380 <memset>
						fs->win[DIR_Name] = '.';
    3f7c:	e9 81       	ldd	r30, Y+1	; 0x01
    3f7e:	fa 81       	ldd	r31, Y+2	; 0x02
    3f80:	8e e2       	ldi	r24, 0x2E	; 46
    3f82:	80 ab       	std	Z+48, r24	; 0x30
						fs->win[DIR_Attr] = AM_DIR;
    3f84:	80 e1       	ldi	r24, 0x10	; 16
    3f86:	83 af       	std	Z+59, r24	; 0x3b
						st_32(fs->win + DIR_ModTime, tm);
    3f88:	cf 01       	movw	r24, r30
    3f8a:	8a 5b       	subi	r24, 0xBA	; 186
    3f8c:	9f 4f       	sbci	r25, 0xFF	; 255
    3f8e:	b4 01       	movw	r22, r8
    3f90:	a3 01       	movw	r20, r6
    3f92:	0e 94 f1 06 	call	0xde2	; 0xde2 <st_32>
						st_clust(fs, fs->win, dcl);
    3f96:	89 81       	ldd	r24, Y+1	; 0x01
    3f98:	9a 81       	ldd	r25, Y+2	; 0x02
    3f9a:	bc 01       	movw	r22, r24
    3f9c:	60 5d       	subi	r22, 0xD0	; 208
    3f9e:	7f 4f       	sbci	r23, 0xFF	; 255
    3fa0:	a6 01       	movw	r20, r12
    3fa2:	95 01       	movw	r18, r10
    3fa4:	0e 94 66 0d 	call	0x1acc	; 0x1acc <st_clust.clone.1>
						memcpy(fs->win + SZDIRE, fs->win, SZDIRE);	/* Create ".." entry */
    3fa8:	89 81       	ldd	r24, Y+1	; 0x01
    3faa:	9a 81       	ldd	r25, Y+2	; 0x02
    3fac:	c0 96       	adiw	r24, 0x30	; 48
    3fae:	dc 01       	movw	r26, r24
    3fb0:	90 96       	adiw	r26, 0x20	; 32
    3fb2:	fc 01       	movw	r30, r24
    3fb4:	80 e2       	ldi	r24, 0x20	; 32
    3fb6:	01 90       	ld	r0, Z+
    3fb8:	0d 92       	st	X+, r0
    3fba:	81 50       	subi	r24, 0x01	; 1
    3fbc:	e1 f7       	brne	.-8      	; 0x3fb6 <f_mkdir+0x138>
						fs->win[SZDIRE + 1] = '.'; pcl = dj.obj.sclust;
    3fbe:	89 81       	ldd	r24, Y+1	; 0x01
    3fc0:	9a 81       	ldd	r25, Y+2	; 0x02
    3fc2:	fc 01       	movw	r30, r24
    3fc4:	ef 5a       	subi	r30, 0xAF	; 175
    3fc6:	ff 4f       	sbci	r31, 0xFF	; 255
    3fc8:	2e e2       	ldi	r18, 0x2E	; 46
    3fca:	20 83       	st	Z, r18
						st_clust(fs, fs->win + SZDIRE, pcl);
    3fcc:	bc 01       	movw	r22, r24
    3fce:	60 5b       	subi	r22, 0xB0	; 176
    3fd0:	7f 4f       	sbci	r23, 0xFF	; 255
    3fd2:	2f 89       	ldd	r18, Y+23	; 0x17
    3fd4:	38 8d       	ldd	r19, Y+24	; 0x18
    3fd6:	49 8d       	ldd	r20, Y+25	; 0x19
    3fd8:	5a 8d       	ldd	r21, Y+26	; 0x1a
    3fda:	0e 94 66 0d 	call	0x1acc	; 0x1acc <st_clust.clone.1>
						fs->wflag = 1;
    3fde:	e9 81       	ldd	r30, Y+1	; 0x01
    3fe0:	fa 81       	ldd	r31, Y+2	; 0x02
    3fe2:	11 e0       	ldi	r17, 0x01	; 1
    3fe4:	14 83       	std	Z+4, r17	; 0x04
					}
					res = dir_register(&dj);	/* Register the object to the parent directory */
    3fe6:	ce 01       	movw	r24, r28
    3fe8:	41 96       	adiw	r24, 0x11	; 17
    3fea:	0e 94 d6 11 	call	0x23ac	; 0x23ac <dir_register>
    3fee:	f8 2e       	mov	r15, r24
				}
			}
			if (res == FR_OK) {
    3ff0:	88 23       	and	r24, r24
    3ff2:	09 f5       	brne	.+66     	; 0x4036 <f_mkdir+0x1b8>
					fs->dirbuf[XDIR_Attr] = AM_DIR;			/* Attribute */
					res = store_xdir(&dj);
				} else
#endif
				{
					st_32(dj.dir + DIR_CrtTime, tm);	/* Created time */
    3ff4:	8b a5       	ldd	r24, Y+43	; 0x2b
    3ff6:	9c a5       	ldd	r25, Y+44	; 0x2c
    3ff8:	0e 96       	adiw	r24, 0x0e	; 14
    3ffa:	b4 01       	movw	r22, r8
    3ffc:	a3 01       	movw	r20, r6
    3ffe:	0e 94 f1 06 	call	0xde2	; 0xde2 <st_32>
					st_32(dj.dir + DIR_ModTime, tm);
    4002:	8b a5       	ldd	r24, Y+43	; 0x2b
    4004:	9c a5       	ldd	r25, Y+44	; 0x2c
    4006:	46 96       	adiw	r24, 0x16	; 22
    4008:	b4 01       	movw	r22, r8
    400a:	a3 01       	movw	r20, r6
    400c:	0e 94 f1 06 	call	0xde2	; 0xde2 <st_32>
					st_clust(fs, dj.dir, dcl);			/* Table start cluster */
    4010:	6b a5       	ldd	r22, Y+43	; 0x2b
    4012:	7c a5       	ldd	r23, Y+44	; 0x2c
    4014:	89 81       	ldd	r24, Y+1	; 0x01
    4016:	9a 81       	ldd	r25, Y+2	; 0x02
    4018:	a6 01       	movw	r20, r12
    401a:	95 01       	movw	r18, r10
    401c:	0e 94 66 0d 	call	0x1acc	; 0x1acc <st_clust.clone.1>
					dj.dir[DIR_Attr] = AM_DIR;			/* Attribute */
    4020:	eb a5       	ldd	r30, Y+43	; 0x2b
    4022:	fc a5       	ldd	r31, Y+44	; 0x2c
    4024:	80 e1       	ldi	r24, 0x10	; 16
    4026:	83 87       	std	Z+11, r24	; 0x0b
					fs->wflag = 1;
    4028:	89 81       	ldd	r24, Y+1	; 0x01
    402a:	9a 81       	ldd	r25, Y+2	; 0x02
    402c:	fc 01       	movw	r30, r24
    402e:	14 83       	std	Z+4, r17	; 0x04
				}
				if (res == FR_OK) {
					res = sync_fs(fs);
    4030:	0e 94 d0 0c 	call	0x19a0	; 0x19a0 <sync_fs>
    4034:	0a c0       	rjmp	.+20     	; 0x404a <f_mkdir+0x1cc>
				}
			} else {
				remove_chain(&sobj, dcl, 0);		/* Could not register, remove the allocated cluster */
    4036:	ce 01       	movw	r24, r28
    4038:	03 96       	adiw	r24, 0x03	; 3
    403a:	b6 01       	movw	r22, r12
    403c:	a5 01       	movw	r20, r10
    403e:	00 e0       	ldi	r16, 0x00	; 0
    4040:	10 e0       	ldi	r17, 0x00	; 0
    4042:	98 01       	movw	r18, r16
    4044:	0e 94 bb 10 	call	0x2176	; 0x2176 <remove_chain.clone.4>
    4048:	01 c0       	rjmp	.+2      	; 0x404c <f_mkdir+0x1ce>
		INIT_NAMEBUFF(fs);
		res = follow_path(&dj, path);			/* Follow the file path */
		if (res == FR_OK) {						/* Invalid name or name collision */
			res = (dj.fn[NSFLAG] & (NS_DOT | NS_NONAME)) ? FR_INVALID_NAME : FR_EXIST;
		}
		if (res == FR_NO_FILE) {				/* It is clear to create a new directory */
    404a:	f8 2e       	mov	r15, r24
		}
		FREE_NAMEBUFF();
	}

	LEAVE_FF(fs, res);
}
    404c:	8f 2d       	mov	r24, r15
    404e:	ea 96       	adiw	r28, 0x3a	; 58
    4050:	0f b6       	in	r0, 0x3f	; 63
    4052:	f8 94       	cli
    4054:	de bf       	out	0x3e, r29	; 62
    4056:	0f be       	out	0x3f, r0	; 63
    4058:	cd bf       	out	0x3d, r28	; 61
    405a:	cf 91       	pop	r28
    405c:	df 91       	pop	r29
    405e:	1f 91       	pop	r17
    4060:	0f 91       	pop	r16
    4062:	ff 90       	pop	r15
    4064:	df 90       	pop	r13
    4066:	cf 90       	pop	r12
    4068:	bf 90       	pop	r11
    406a:	af 90       	pop	r10
    406c:	9f 90       	pop	r9
    406e:	8f 90       	pop	r8
    4070:	7f 90       	pop	r7
    4072:	6f 90       	pop	r6
    4074:	08 95       	ret
	if (res == FR_OK) {
		dj.obj.fs = fs;
		INIT_NAMEBUFF(fs);
		res = follow_path(&dj, path);			/* Follow the file path */
		if (res == FR_OK) {						/* Invalid name or name collision */
			res = (dj.fn[NSFLAG] & (NS_DOT | NS_NONAME)) ? FR_INVALID_NAME : FR_EXIST;
    4076:	96 e0       	ldi	r25, 0x06	; 6
    4078:	f9 2e       	mov	r15, r25
    407a:	e8 cf       	rjmp	.-48     	; 0x404c <f_mkdir+0x1ce>

0000407c <f_rename>:

FRESULT f_rename (
	const TCHAR* path_old,	/* Pointer to the object name to be renamed */
	const TCHAR* path_new	/* Pointer to the new name */
)
{
    407c:	8f 92       	push	r8
    407e:	9f 92       	push	r9
    4080:	af 92       	push	r10
    4082:	bf 92       	push	r11
    4084:	df 92       	push	r13
    4086:	ef 92       	push	r14
    4088:	ff 92       	push	r15
    408a:	0f 93       	push	r16
    408c:	1f 93       	push	r17
    408e:	df 93       	push	r29
    4090:	cf 93       	push	r28
    4092:	cd b7       	in	r28, 0x3d	; 61
    4094:	de b7       	in	r29, 0x3e	; 62
    4096:	c6 57       	subi	r28, 0x76	; 118
    4098:	d0 40       	sbci	r29, 0x00	; 0
    409a:	0f b6       	in	r0, 0x3f	; 63
    409c:	f8 94       	cli
    409e:	de bf       	out	0x3e, r29	; 62
    40a0:	0f be       	out	0x3f, r0	; 63
    40a2:	cd bf       	out	0x3d, r28	; 61
    40a4:	8e 01       	movw	r16, r28
    40a6:	0d 58       	subi	r16, 0x8D	; 141
    40a8:	1f 4f       	sbci	r17, 0xFF	; 255
    40aa:	d8 01       	movw	r26, r16
    40ac:	8d 93       	st	X+, r24
    40ae:	9c 93       	st	X, r25
    40b0:	ce 01       	movw	r24, r28
    40b2:	8b 58       	subi	r24, 0x8B	; 139
    40b4:	9f 4f       	sbci	r25, 0xFF	; 255
    40b6:	fc 01       	movw	r30, r24
    40b8:	71 83       	std	Z+1, r23	; 0x01
    40ba:	60 83       	st	Z, r22
	DIR djo, djn;
	BYTE buf[FF_FS_EXFAT ? SZDIRE * 2 : SZDIRE], *dir;
	DEF_NAMEBUFF


	get_ldnumber(&path_new);	/* Snip the drive number of new name off */
    40bc:	0e 94 29 07 	call	0xe52	; 0xe52 <get_ldnumber>
	res = mount_volume(&path_old, &fs, FA_WRITE);	/* Get logical drive of the old object */
    40c0:	c8 01       	movw	r24, r16
    40c2:	be 01       	movw	r22, r28
    40c4:	6f 5f       	subi	r22, 0xFF	; 255
    40c6:	7f 4f       	sbci	r23, 0xFF	; 255
    40c8:	42 e0       	ldi	r20, 0x02	; 2
    40ca:	0e 94 0b 09 	call	0x1216	; 0x1216 <mount_volume>
	if (res == FR_OK) {
    40ce:	88 23       	and	r24, r24
    40d0:	09 f0       	breq	.+2      	; 0x40d4 <f_rename+0x58>
    40d2:	ba c0       	rjmp	.+372    	; 0x4248 <f_rename+0x1cc>
		djo.obj.fs = fs;
    40d4:	89 81       	ldd	r24, Y+1	; 0x01
    40d6:	9a 81       	ldd	r25, Y+2	; 0x02
    40d8:	9c a3       	std	Y+36, r25	; 0x24
    40da:	8b a3       	std	Y+35, r24	; 0x23
		INIT_NAMEBUFF(fs);
		res = follow_path(&djo, path_old);	/* Check old object */
    40dc:	d8 01       	movw	r26, r16
    40de:	6d 91       	ld	r22, X+
    40e0:	7c 91       	ld	r23, X
    40e2:	ce 01       	movw	r24, r28
    40e4:	83 96       	adiw	r24, 0x23	; 35
    40e6:	0e 94 1f 12 	call	0x243e	; 0x243e <follow_path>
		if (res == FR_OK) {
    40ea:	88 23       	and	r24, r24
    40ec:	09 f0       	breq	.+2      	; 0x40f0 <f_rename+0x74>
    40ee:	ac c0       	rjmp	.+344    	; 0x4248 <f_rename+0x1cc>
			if (djo.fn[NSFLAG] & (NS_DOT | NS_NONAME)) {
    40f0:	fe 01       	movw	r30, r28
    40f2:	e6 5b       	subi	r30, 0xB6	; 182
    40f4:	ff 4f       	sbci	r31, 0xFF	; 255
    40f6:	80 81       	ld	r24, Z
    40f8:	80 7a       	andi	r24, 0xA0	; 160
    40fa:	09 f4       	brne	.+2      	; 0x40fe <f_rename+0x82>
    40fc:	b8 c0       	rjmp	.+368    	; 0x426e <f_rename+0x1f2>
				res = FR_INVALID_NAME;		/* Object must not be a dot name or blank name */
    40fe:	86 e0       	ldi	r24, 0x06	; 6
    4100:	a3 c0       	rjmp	.+326    	; 0x4248 <f_rename+0x1cc>
			{	/* At FAT/FAT32 volume */
				memcpy(buf, djo.dir, SZDIRE);			/* Save directory entry of the object */
				memcpy(&djn, &djo, sizeof djn);			/* Duplicate the directory object */
				res = follow_path(&djn, path_new);		/* Make sure if new object name is not in use */
				if (res == FR_OK) {						/* Is new name already in use by another object? */
					res = (djn.obj.sclust == djo.obj.sclust && djn.dptr == djo.dptr) ? FR_NO_FILE : FR_EXIST;
    4102:	f8 01       	movw	r30, r16
    4104:	26 81       	ldd	r18, Z+6	; 0x06
    4106:	37 81       	ldd	r19, Z+7	; 0x07
    4108:	40 85       	ldd	r20, Z+8	; 0x08
    410a:	51 85       	ldd	r21, Z+9	; 0x09
    410c:	89 a5       	ldd	r24, Y+41	; 0x29
    410e:	9a a5       	ldd	r25, Y+42	; 0x2a
    4110:	ab a5       	ldd	r26, Y+43	; 0x2b
    4112:	bc a5       	ldd	r27, Y+44	; 0x2c
    4114:	28 17       	cp	r18, r24
    4116:	39 07       	cpc	r19, r25
    4118:	4a 07       	cpc	r20, r26
    411a:	5b 07       	cpc	r21, r27
    411c:	09 f0       	breq	.+2      	; 0x4120 <f_rename+0xa4>
    411e:	85 c0       	rjmp	.+266    	; 0x422a <f_rename+0x1ae>
    4120:	26 85       	ldd	r18, Z+14	; 0x0e
    4122:	37 85       	ldd	r19, Z+15	; 0x0f
    4124:	40 89       	ldd	r20, Z+16	; 0x10
    4126:	51 89       	ldd	r21, Z+17	; 0x11
    4128:	89 a9       	ldd	r24, Y+49	; 0x31
    412a:	9a a9       	ldd	r25, Y+50	; 0x32
    412c:	ab a9       	ldd	r26, Y+51	; 0x33
    412e:	bc a9       	ldd	r27, Y+52	; 0x34
    4130:	28 17       	cp	r18, r24
    4132:	39 07       	cpc	r19, r25
    4134:	4a 07       	cpc	r20, r26
    4136:	5b 07       	cpc	r21, r27
    4138:	09 f0       	breq	.+2      	; 0x413c <f_rename+0xc0>
    413a:	77 c0       	rjmp	.+238    	; 0x422a <f_rename+0x1ae>
    413c:	03 c0       	rjmp	.+6      	; 0x4144 <f_rename+0xc8>
				}
				if (res == FR_NO_FILE) { 				/* It is a valid path and no name collision */
    413e:	84 30       	cpi	r24, 0x04	; 4
    4140:	09 f0       	breq	.+2      	; 0x4144 <f_rename+0xc8>
    4142:	82 c0       	rjmp	.+260    	; 0x4248 <f_rename+0x1cc>
					res = dir_register(&djn);			/* Register the new entry */
    4144:	8e 01       	movw	r16, r28
    4146:	05 5b       	subi	r16, 0xB5	; 181
    4148:	1f 4f       	sbci	r17, 0xFF	; 255
    414a:	c8 01       	movw	r24, r16
    414c:	0e 94 d6 11 	call	0x23ac	; 0x23ac <dir_register>
					if (res == FR_OK) {
    4150:	88 23       	and	r24, r24
    4152:	09 f0       	breq	.+2      	; 0x4156 <f_rename+0xda>
    4154:	79 c0       	rjmp	.+242    	; 0x4248 <f_rename+0x1cc>
						dir = djn.dir;					/* Copy directory entry of the object except name */
    4156:	d8 01       	movw	r26, r16
    4158:	5a 96       	adiw	r26, 0x1a	; 26
    415a:	ed 91       	ld	r30, X+
    415c:	fc 91       	ld	r31, X
    415e:	5b 97       	sbiw	r26, 0x1b	; 27
						memcpy(dir + 13, buf + 13, SZDIRE - 13);
    4160:	cf 01       	movw	r24, r30
    4162:	0d 96       	adiw	r24, 0x0d	; 13
    4164:	ae 01       	movw	r20, r28
    4166:	40 5f       	subi	r20, 0xF0	; 240
    4168:	5f 4f       	sbci	r21, 0xFF	; 255
    416a:	23 e1       	ldi	r18, 0x13	; 19
    416c:	da 01       	movw	r26, r20
    416e:	0d 90       	ld	r0, X+
    4170:	ad 01       	movw	r20, r26
    4172:	dc 01       	movw	r26, r24
    4174:	0d 92       	st	X+, r0
    4176:	cd 01       	movw	r24, r26
    4178:	21 50       	subi	r18, 0x01	; 1
    417a:	c1 f7       	brne	.-16     	; 0x416c <f_rename+0xf0>
						dir[DIR_Attr] = buf[DIR_Attr];
    417c:	8e 85       	ldd	r24, Y+14	; 0x0e
    417e:	83 87       	std	Z+11, r24	; 0x0b
						if (!(dir[DIR_Attr] & AM_DIR)) dir[DIR_Attr] |= AM_ARC;	/* Set archive attribute if it is a file */
    4180:	84 fd       	sbrc	r24, 4
    4182:	02 c0       	rjmp	.+4      	; 0x4188 <f_rename+0x10c>
    4184:	80 62       	ori	r24, 0x20	; 32
    4186:	83 87       	std	Z+11, r24	; 0x0b
						fs->wflag = 1;
    4188:	09 81       	ldd	r16, Y+1	; 0x01
    418a:	1a 81       	ldd	r17, Y+2	; 0x02
    418c:	dd 24       	eor	r13, r13
    418e:	d3 94       	inc	r13
    4190:	d8 01       	movw	r26, r16
    4192:	14 96       	adiw	r26, 0x04	; 4
    4194:	dc 92       	st	X, r13
    4196:	14 97       	sbiw	r26, 0x04	; 4
						if ((dir[DIR_Attr] & AM_DIR) && djo.obj.sclust != djn.obj.sclust) {	/* Update .. entry in the sub-directory being moved if needed */
    4198:	83 85       	ldd	r24, Z+11	; 0x0b
    419a:	84 ff       	sbrs	r24, 4
    419c:	8d c0       	rjmp	.+282    	; 0x42b8 <f_rename+0x23c>
    419e:	5b e4       	ldi	r21, 0x4B	; 75
    41a0:	e5 2e       	mov	r14, r21
    41a2:	f1 2c       	mov	r15, r1
    41a4:	ec 0e       	add	r14, r28
    41a6:	fd 1e       	adc	r15, r29
    41a8:	29 a5       	ldd	r18, Y+41	; 0x29
    41aa:	3a a5       	ldd	r19, Y+42	; 0x2a
    41ac:	4b a5       	ldd	r20, Y+43	; 0x2b
    41ae:	5c a5       	ldd	r21, Y+44	; 0x2c
    41b0:	d7 01       	movw	r26, r14
    41b2:	16 96       	adiw	r26, 0x06	; 6
    41b4:	8d 90       	ld	r8, X+
    41b6:	9d 90       	ld	r9, X+
    41b8:	ad 90       	ld	r10, X+
    41ba:	bc 90       	ld	r11, X
    41bc:	19 97       	sbiw	r26, 0x09	; 9
    41be:	28 15       	cp	r18, r8
    41c0:	39 05       	cpc	r19, r9
    41c2:	4a 05       	cpc	r20, r10
    41c4:	5b 05       	cpc	r21, r11
    41c6:	09 f4       	brne	.+2      	; 0x41ca <f_rename+0x14e>
    41c8:	77 c0       	rjmp	.+238    	; 0x42b8 <f_rename+0x23c>
							LBA_t sect = clst2sect(fs, ld_clust(fs, dir));
    41ca:	d8 01       	movw	r26, r16
    41cc:	8c 91       	ld	r24, X
    41ce:	bf 01       	movw	r22, r30
    41d0:	0e 94 3c 0d 	call	0x1a78	; 0x1a78 <ld_clust.clone.0>
    41d4:	ab 01       	movw	r20, r22
    41d6:	bc 01       	movw	r22, r24
    41d8:	c8 01       	movw	r24, r16
    41da:	0e 94 fa 06 	call	0xdf4	; 0xdf4 <clst2sect>
    41de:	ab 01       	movw	r20, r22
    41e0:	bc 01       	movw	r22, r24

							if (sect == 0) {
    41e2:	41 15       	cp	r20, r1
    41e4:	51 05       	cpc	r21, r1
    41e6:	61 05       	cpc	r22, r1
    41e8:	71 05       	cpc	r23, r1
    41ea:	09 f1       	breq	.+66     	; 0x422e <f_rename+0x1b2>
								res = FR_INT_ERR;
							} else {
/* Start of critical section where an interruption can cause a cross-link */
								res = move_window(fs, sect);
    41ec:	c8 01       	movw	r24, r16
    41ee:	0e 94 2a 08 	call	0x1054	; 0x1054 <move_window>
								dir = fs->win + SZDIRE * 1;	/* Pointer to .. entry */
    41f2:	e9 81       	ldd	r30, Y+1	; 0x01
    41f4:	fa 81       	ldd	r31, Y+2	; 0x02
								if (res == FR_OK && dir[1] == '.') {
    41f6:	88 23       	and	r24, r24
    41f8:	39 f5       	brne	.+78     	; 0x4248 <f_rename+0x1cc>
    41fa:	df 01       	movw	r26, r30
    41fc:	af 5a       	subi	r26, 0xAF	; 175
    41fe:	bf 4f       	sbci	r27, 0xFF	; 255
    4200:	8c 91       	ld	r24, X
    4202:	8e 32       	cpi	r24, 0x2E	; 46
    4204:	09 f0       	breq	.+2      	; 0x4208 <f_rename+0x18c>
    4206:	58 c0       	rjmp	.+176    	; 0x42b8 <f_rename+0x23c>
							if (sect == 0) {
								res = FR_INT_ERR;
							} else {
/* Start of critical section where an interruption can cause a cross-link */
								res = move_window(fs, sect);
								dir = fs->win + SZDIRE * 1;	/* Pointer to .. entry */
    4208:	bf 01       	movw	r22, r30
    420a:	60 5b       	subi	r22, 0xB0	; 176
    420c:	7f 4f       	sbci	r23, 0xFF	; 255
								if (res == FR_OK && dir[1] == '.') {
									st_clust(fs, dir, djn.obj.sclust);
    420e:	d7 01       	movw	r26, r14
    4210:	16 96       	adiw	r26, 0x06	; 6
    4212:	2d 91       	ld	r18, X+
    4214:	3d 91       	ld	r19, X+
    4216:	4d 91       	ld	r20, X+
    4218:	5c 91       	ld	r21, X
    421a:	19 97       	sbiw	r26, 0x09	; 9
    421c:	cf 01       	movw	r24, r30
    421e:	0e 94 66 0d 	call	0x1acc	; 0x1acc <st_clust.clone.1>
									fs->wflag = 1;
    4222:	e9 81       	ldd	r30, Y+1	; 0x01
    4224:	fa 81       	ldd	r31, Y+2	; 0x02
    4226:	d4 82       	std	Z+4, r13	; 0x04
    4228:	47 c0       	rjmp	.+142    	; 0x42b8 <f_rename+0x23c>
			{	/* At FAT/FAT32 volume */
				memcpy(buf, djo.dir, SZDIRE);			/* Save directory entry of the object */
				memcpy(&djn, &djo, sizeof djn);			/* Duplicate the directory object */
				res = follow_path(&djn, path_new);		/* Make sure if new object name is not in use */
				if (res == FR_OK) {						/* Is new name already in use by another object? */
					res = (djn.obj.sclust == djo.obj.sclust && djn.dptr == djo.dptr) ? FR_NO_FILE : FR_EXIST;
    422a:	88 e0       	ldi	r24, 0x08	; 8
    422c:	0d c0       	rjmp	.+26     	; 0x4248 <f_rename+0x1cc>
						fs->wflag = 1;
						if ((dir[DIR_Attr] & AM_DIR) && djo.obj.sclust != djn.obj.sclust) {	/* Update .. entry in the sub-directory being moved if needed */
							LBA_t sect = clst2sect(fs, ld_clust(fs, dir));

							if (sect == 0) {
								res = FR_INT_ERR;
    422e:	82 e0       	ldi	r24, 0x02	; 2
    4230:	0b c0       	rjmp	.+22     	; 0x4248 <f_rename+0x1cc>
	}
#else			/* Non LFN configuration */

	res = move_window(fs, dp->sect);
	if (res == FR_OK) {
		dp->dir[DIR_Name] = DDEM;	/* Mark the entry 'deleted'.*/
    4232:	ed ad       	ldd	r30, Y+61	; 0x3d
    4234:	fe ad       	ldd	r31, Y+62	; 0x3e
    4236:	85 ee       	ldi	r24, 0xE5	; 229
    4238:	80 83       	st	Z, r24
		fs->wflag = 1;
    423a:	81 e0       	ldi	r24, 0x01	; 1
    423c:	f8 01       	movw	r30, r16
    423e:	84 83       	std	Z+4, r24	; 0x04
				}
			}
			if (res == FR_OK) {		/* New entry has been created */
				res = dir_remove(&djo);	/* Remove old entry */
				if (res == FR_OK) {
					res = sync_fs(fs);
    4240:	89 81       	ldd	r24, Y+1	; 0x01
    4242:	9a 81       	ldd	r25, Y+2	; 0x02
    4244:	0e 94 d0 0c 	call	0x19a0	; 0x19a0 <sync_fs>
		}
		FREE_NAMEBUFF();
	}

	LEAVE_FF(fs, res);
}
    4248:	ca 58       	subi	r28, 0x8A	; 138
    424a:	df 4f       	sbci	r29, 0xFF	; 255
    424c:	0f b6       	in	r0, 0x3f	; 63
    424e:	f8 94       	cli
    4250:	de bf       	out	0x3e, r29	; 62
    4252:	0f be       	out	0x3f, r0	; 63
    4254:	cd bf       	out	0x3d, r28	; 61
    4256:	cf 91       	pop	r28
    4258:	df 91       	pop	r29
    425a:	1f 91       	pop	r17
    425c:	0f 91       	pop	r16
    425e:	ff 90       	pop	r15
    4260:	ef 90       	pop	r14
    4262:	df 90       	pop	r13
    4264:	bf 90       	pop	r11
    4266:	af 90       	pop	r10
    4268:	9f 90       	pop	r9
    426a:	8f 90       	pop	r8
    426c:	08 95       	ret
					}
				}
			} else
#endif
			{	/* At FAT/FAT32 volume */
				memcpy(buf, djo.dir, SZDIRE);			/* Save directory entry of the object */
    426e:	de 01       	movw	r26, r28
    4270:	13 96       	adiw	r26, 0x03	; 3
    4272:	3d ad       	ldd	r19, Y+61	; 0x3d
    4274:	2e ad       	ldd	r18, Y+62	; 0x3e
    4276:	83 2f       	mov	r24, r19
    4278:	92 2f       	mov	r25, r18
    427a:	fc 01       	movw	r30, r24
    427c:	80 e2       	ldi	r24, 0x20	; 32
    427e:	01 90       	ld	r0, Z+
    4280:	0d 92       	st	X+, r0
    4282:	81 50       	subi	r24, 0x01	; 1
    4284:	e1 f7       	brne	.-8      	; 0x427e <f_rename+0x202>
				memcpy(&djn, &djo, sizeof djn);			/* Duplicate the directory object */
    4286:	de 01       	movw	r26, r28
    4288:	a5 5b       	subi	r26, 0xB5	; 181
    428a:	bf 4f       	sbci	r27, 0xFF	; 255
    428c:	fe 01       	movw	r30, r28
    428e:	b3 96       	adiw	r30, 0x23	; 35
    4290:	88 e2       	ldi	r24, 0x28	; 40
    4292:	01 90       	ld	r0, Z+
    4294:	0d 92       	st	X+, r0
    4296:	81 50       	subi	r24, 0x01	; 1
    4298:	e1 f7       	brne	.-8      	; 0x4292 <f_rename+0x216>
				res = follow_path(&djn, path_new);		/* Make sure if new object name is not in use */
    429a:	8e 01       	movw	r16, r28
    429c:	05 5b       	subi	r16, 0xB5	; 181
    429e:	1f 4f       	sbci	r17, 0xFF	; 255
    42a0:	fe 01       	movw	r30, r28
    42a2:	eb 58       	subi	r30, 0x8B	; 139
    42a4:	ff 4f       	sbci	r31, 0xFF	; 255
    42a6:	60 81       	ld	r22, Z
    42a8:	71 81       	ldd	r23, Z+1	; 0x01
    42aa:	c8 01       	movw	r24, r16
    42ac:	0e 94 1f 12 	call	0x243e	; 0x243e <follow_path>
				if (res == FR_OK) {						/* Is new name already in use by another object? */
    42b0:	88 23       	and	r24, r24
    42b2:	09 f4       	brne	.+2      	; 0x42b6 <f_rename+0x23a>
    42b4:	26 cf       	rjmp	.-436    	; 0x4102 <f_rename+0x86>
    42b6:	43 cf       	rjmp	.-378    	; 0x413e <f_rename+0xc2>
static FRESULT dir_remove (	/* FR_OK:Succeeded, FR_DISK_ERR:A disk error */
	DIR* dp					/* Directory object pointing the entry to be removed */
)
{
	FRESULT res;
	FATFS *fs = dp->obj.fs;
    42b8:	0b a1       	ldd	r16, Y+35	; 0x23
    42ba:	1c a1       	ldd	r17, Y+36	; 0x24
		} while (res == FR_OK);
		if (res == FR_NO_FILE) res = FR_INT_ERR;
	}
#else			/* Non LFN configuration */

	res = move_window(fs, dp->sect);
    42bc:	49 ad       	ldd	r20, Y+57	; 0x39
    42be:	5a ad       	ldd	r21, Y+58	; 0x3a
    42c0:	6b ad       	ldd	r22, Y+59	; 0x3b
    42c2:	7c ad       	ldd	r23, Y+60	; 0x3c
    42c4:	c8 01       	movw	r24, r16
    42c6:	0e 94 2a 08 	call	0x1054	; 0x1054 <move_window>
	if (res == FR_OK) {
    42ca:	88 23       	and	r24, r24
    42cc:	09 f4       	brne	.+2      	; 0x42d0 <f_rename+0x254>
    42ce:	b1 cf       	rjmp	.-158    	; 0x4232 <f_rename+0x1b6>
    42d0:	bb cf       	rjmp	.-138    	; 0x4248 <f_rename+0x1cc>

000042d2 <__mulsi3>:
    42d2:	62 9f       	mul	r22, r18
    42d4:	d0 01       	movw	r26, r0
    42d6:	73 9f       	mul	r23, r19
    42d8:	f0 01       	movw	r30, r0
    42da:	82 9f       	mul	r24, r18
    42dc:	e0 0d       	add	r30, r0
    42de:	f1 1d       	adc	r31, r1
    42e0:	64 9f       	mul	r22, r20
    42e2:	e0 0d       	add	r30, r0
    42e4:	f1 1d       	adc	r31, r1
    42e6:	92 9f       	mul	r25, r18
    42e8:	f0 0d       	add	r31, r0
    42ea:	83 9f       	mul	r24, r19
    42ec:	f0 0d       	add	r31, r0
    42ee:	74 9f       	mul	r23, r20
    42f0:	f0 0d       	add	r31, r0
    42f2:	65 9f       	mul	r22, r21
    42f4:	f0 0d       	add	r31, r0
    42f6:	99 27       	eor	r25, r25
    42f8:	72 9f       	mul	r23, r18
    42fa:	b0 0d       	add	r27, r0
    42fc:	e1 1d       	adc	r30, r1
    42fe:	f9 1f       	adc	r31, r25
    4300:	63 9f       	mul	r22, r19
    4302:	b0 0d       	add	r27, r0
    4304:	e1 1d       	adc	r30, r1
    4306:	f9 1f       	adc	r31, r25
    4308:	bd 01       	movw	r22, r26
    430a:	cf 01       	movw	r24, r30
    430c:	11 24       	eor	r1, r1
    430e:	08 95       	ret

00004310 <__udivmodsi4>:
    4310:	a1 e2       	ldi	r26, 0x21	; 33
    4312:	1a 2e       	mov	r1, r26
    4314:	aa 1b       	sub	r26, r26
    4316:	bb 1b       	sub	r27, r27
    4318:	fd 01       	movw	r30, r26
    431a:	0d c0       	rjmp	.+26     	; 0x4336 <__udivmodsi4_ep>

0000431c <__udivmodsi4_loop>:
    431c:	aa 1f       	adc	r26, r26
    431e:	bb 1f       	adc	r27, r27
    4320:	ee 1f       	adc	r30, r30
    4322:	ff 1f       	adc	r31, r31
    4324:	a2 17       	cp	r26, r18
    4326:	b3 07       	cpc	r27, r19
    4328:	e4 07       	cpc	r30, r20
    432a:	f5 07       	cpc	r31, r21
    432c:	20 f0       	brcs	.+8      	; 0x4336 <__udivmodsi4_ep>
    432e:	a2 1b       	sub	r26, r18
    4330:	b3 0b       	sbc	r27, r19
    4332:	e4 0b       	sbc	r30, r20
    4334:	f5 0b       	sbc	r31, r21

00004336 <__udivmodsi4_ep>:
    4336:	66 1f       	adc	r22, r22
    4338:	77 1f       	adc	r23, r23
    433a:	88 1f       	adc	r24, r24
    433c:	99 1f       	adc	r25, r25
    433e:	1a 94       	dec	r1
    4340:	69 f7       	brne	.-38     	; 0x431c <__udivmodsi4_loop>
    4342:	60 95       	com	r22
    4344:	70 95       	com	r23
    4346:	80 95       	com	r24
    4348:	90 95       	com	r25
    434a:	9b 01       	movw	r18, r22
    434c:	ac 01       	movw	r20, r24
    434e:	bd 01       	movw	r22, r26
    4350:	cf 01       	movw	r24, r30
    4352:	08 95       	ret

00004354 <memcmp>:
    4354:	fb 01       	movw	r30, r22
    4356:	dc 01       	movw	r26, r24
    4358:	04 c0       	rjmp	.+8      	; 0x4362 <memcmp+0xe>
    435a:	8d 91       	ld	r24, X+
    435c:	01 90       	ld	r0, Z+
    435e:	80 19       	sub	r24, r0
    4360:	21 f4       	brne	.+8      	; 0x436a <memcmp+0x16>
    4362:	41 50       	subi	r20, 0x01	; 1
    4364:	50 40       	sbci	r21, 0x00	; 0
    4366:	c8 f7       	brcc	.-14     	; 0x435a <memcmp+0x6>
    4368:	88 1b       	sub	r24, r24
    436a:	99 0b       	sbc	r25, r25
    436c:	08 95       	ret

0000436e <memcpy>:
    436e:	fb 01       	movw	r30, r22
    4370:	dc 01       	movw	r26, r24
    4372:	02 c0       	rjmp	.+4      	; 0x4378 <memcpy+0xa>
    4374:	01 90       	ld	r0, Z+
    4376:	0d 92       	st	X+, r0
    4378:	41 50       	subi	r20, 0x01	; 1
    437a:	50 40       	sbci	r21, 0x00	; 0
    437c:	d8 f7       	brcc	.-10     	; 0x4374 <memcpy+0x6>
    437e:	08 95       	ret

00004380 <memset>:
    4380:	dc 01       	movw	r26, r24
    4382:	01 c0       	rjmp	.+2      	; 0x4386 <memset+0x6>
    4384:	6d 93       	st	X+, r22
    4386:	41 50       	subi	r20, 0x01	; 1
    4388:	50 40       	sbci	r21, 0x00	; 0
    438a:	e0 f7       	brcc	.-8      	; 0x4384 <memset+0x4>
    438c:	08 95       	ret

0000438e <strchr>:
    438e:	fc 01       	movw	r30, r24
    4390:	81 91       	ld	r24, Z+
    4392:	86 17       	cp	r24, r22
    4394:	21 f0       	breq	.+8      	; 0x439e <strchr+0x10>
    4396:	88 23       	and	r24, r24
    4398:	d9 f7       	brne	.-10     	; 0x4390 <strchr+0x2>
    439a:	99 27       	eor	r25, r25
    439c:	08 95       	ret
    439e:	31 97       	sbiw	r30, 0x01	; 1
    43a0:	cf 01       	movw	r24, r30
    43a2:	08 95       	ret

000043a4 <_exit>:
    43a4:	f8 94       	cli

000043a6 <__stop_program>:
    43a6:	ff cf       	rjmp	.-2      	; 0x43a6 <__stop_program>
